BL51 BANKED LINKER/LOCATER V6.00                                                        08/07/2017  18:56:55  PAGE 1


BL51 BANKED LINKER/LOCATER V6.00, INVOKED BY:
C:\KEIL_V5\C51\BIN\BL51.EXE .\absTask.obj, .\setup.obj, .\mode.obj, .\FILTER.obj, .\PID.obj, .\DataScope_DP.obj, .\BUTTO
>> N.obj, .\LCD5510_V2.obj, .\LED.obj, .\MOTOR.obj, .\SERVO.obj, .\STEP_MOTOR.obj, .\ANGLE.obj, .\phSensor.obj, .\liquid
>> ometer.obj, .\speaker.obj, .\fixedPulser.obj, .\MT_1_L298N.obj, .\MPU9250_SBUF.obj, .\RELAY.obj, .\TM1638.obj, .\ADS1
>> 115.obj, .\74HC595.obj, .\hc_sr04.obj, .\NRF24L01.obj, .\ADC.obj, .\delay.obj, .\stc15_eeprom.obj, .\stc15_exti.obj, 
>> .\GPIO.obj, .\stc15_iic.obj, .\PCA.obj, .\stc15_pwm.obj, .\stc15_spi.obj, .\timer.obj, .\USART1.obj, .\Conf_tny.obj T
>> O 电子大赛程序框架 RTX51TINY RAMSIZE (256)


MEMORY MODEL: LARGE WITH FLOATING POINT ARITHMETIC


INPUT MODULES INCLUDED:
  .\absTask.obj (ABSTASK)
  .\setup.obj (SETUP)
  .\mode.obj (MODE)
  .\FILTER.obj (FILTER)
  .\PID.obj (PID)
  .\DataScope_DP.obj (DATASCOPE_DP)
  .\BUTTON.obj (BUTTON)
  .\LCD5510_V2.obj (LCD5510_V2)
  .\LED.obj (LED)
  .\MOTOR.obj (MOTOR)
  .\SERVO.obj (SERVO)
  .\STEP_MOTOR.obj (STEP_MOTOR)
  .\ANGLE.obj (ANGLE)
  .\phSensor.obj (PHSENSOR)
  .\liquidometer.obj (LIQUIDOMETER)
  .\speaker.obj (SPEAKER)
  .\fixedPulser.obj (FIXEDPULSER)
  .\MT_1_L298N.obj (MT_1_L298N)
  .\MPU9250_SBUF.obj (MPU9250_SBUF)
  .\RELAY.obj (RELAY)
  .\TM1638.obj (TM1638)
  .\ADS1115.obj (ADS1115)
  .\74HC595.obj (74HC595)
  .\hc_sr04.obj (HC_SR04)
  .\NRF24L01.obj (NRF24L01)
  .\ADC.obj (ADC)
  .\delay.obj (DELAY)
  .\stc15_eeprom.obj (STC15_EEPROM)
  .\stc15_exti.obj (STC15_EXTI)
  .\GPIO.obj (GPIO)
  .\stc15_iic.obj (STC15_IIC)
  .\PCA.obj (PCA)
  .\stc15_pwm.obj (STC15_PWM)
  .\stc15_spi.obj (STC15_SPI)
  .\timer.obj (TIMER)
  .\USART1.obj (USART1)
  .\Conf_tny.obj (?RTX51_TINY_KERNAL)
  C:\KEIL_V5\C51\LIB\RTX51TNY.LIB (?RTX51_TINY_OS_CREATE)
  C:\KEIL_V5\C51\LIB\RTX51TNY.LIB (?RTX51_TINY_OS_DELETE)
  C:\KEIL_V5\C51\LIB\RTX51TNY.LIB (?RTX51_TINY_OS_WAIT)
  C:\KEIL_V5\C51\LIB\C51FPL.LIB (?C?FPADD)
  C:\KEIL_V5\C51\LIB\C51FPL.LIB (?C?FPMUL)
  C:\KEIL_V5\C51\LIB\C51FPL.LIB (?C?FPDIV)
  C:\KEIL_V5\C51\LIB\C51FPL.LIB (?C?FPCMP)
  C:\KEIL_V5\C51\LIB\C51FPL.LIB (?C?FCAST)
BL51 BANKED LINKER/LOCATER V6.00                                                      08/07/2017  18:56:55  PAGE 2


  C:\KEIL_V5\C51\LIB\C51FPL.LIB (?C?CASTF)
  C:\KEIL_V5\C51\LIB\C51FPL.LIB (PRINTF)
  C:\KEIL_V5\C51\LIB\C51FPL.LIB (FABS)
  C:\KEIL_V5\C51\LIB\C51FPL.LIB (?C?FPGETOPN)
  C:\KEIL_V5\C51\LIB\C51FPL.LIB (?C?FPROUND)
  C:\KEIL_V5\C51\LIB\C51FPL.LIB (?C?FPCONVERT)
  C:\KEIL_V5\C51\LIB\C51FPL.LIB (?C?FTNPWR)
  C:\KEIL_V5\C51\LIB\C51L.LIB (?C_STARTUP)
  C:\KEIL_V5\C51\LIB\C51L.LIB (?C?COPY)
  C:\KEIL_V5\C51\LIB\C51L.LIB (?C?CLDPTR)
  C:\KEIL_V5\C51\LIB\C51L.LIB (?C?CLDOPTR)
  C:\KEIL_V5\C51\LIB\C51L.LIB (?C?CSTPTR)
  C:\KEIL_V5\C51\LIB\C51L.LIB (?C?CSTOPTR)
  C:\KEIL_V5\C51\LIB\C51L.LIB (?C?IMUL)
  C:\KEIL_V5\C51\LIB\C51L.LIB (?C?UIDIV)
  C:\KEIL_V5\C51\LIB\C51L.LIB (?C?IILDX)
  C:\KEIL_V5\C51\LIB\C51L.LIB (?C?ILDIX)
  C:\KEIL_V5\C51\LIB\C51L.LIB (?C?ILDPTR)
  C:\KEIL_V5\C51\LIB\C51L.LIB (?C?ILDOPTR)
  C:\KEIL_V5\C51\LIB\C51L.LIB (?C?LMUL)
  C:\KEIL_V5\C51\LIB\C51L.LIB (?C?ULDIV)
  C:\KEIL_V5\C51\LIB\C51L.LIB (?C?SLDIV)
  C:\KEIL_V5\C51\LIB\C51L.LIB (?C?LNEG)
  C:\KEIL_V5\C51\LIB\C51L.LIB (?C?SLCMP)
  C:\KEIL_V5\C51\LIB\C51L.LIB (?C?ULCMP)
  C:\KEIL_V5\C51\LIB\C51L.LIB (?C?ULSHR)
  C:\KEIL_V5\C51\LIB\C51L.LIB (?C?LLDPTR)
  C:\KEIL_V5\C51\LIB\C51L.LIB (?C?LLDOPTR)
  C:\KEIL_V5\C51\LIB\C51L.LIB (?C?LLDOPTR0)
  C:\KEIL_V5\C51\LIB\C51L.LIB (?C?LSTXDATA)
  C:\KEIL_V5\C51\LIB\C51L.LIB (?C?LSTKXDATA)
  C:\KEIL_V5\C51\LIB\C51L.LIB (?C?OFFXADD)
  C:\KEIL_V5\C51\LIB\C51L.LIB (?C?PLDIXDATA)
  C:\KEIL_V5\C51\LIB\C51L.LIB (?C?PSTXDATA)
  C:\KEIL_V5\C51\LIB\C51L.LIB (?C?PLDPTR)
  C:\KEIL_V5\C51\LIB\C51L.LIB (?C?CCASE)
  C:\KEIL_V5\C51\LIB\C51L.LIB (?C?ICALL)
  C:\KEIL_V5\C51\LIB\C51L.LIB (PUTCHAR)
  C:\KEIL_V5\C51\LIB\C51L.LIB (ABS)
  C:\KEIL_V5\C51\LIB\C51L.LIB (LABS)
  C:\KEIL_V5\C51\LIB\C51L.LIB (MALLOC)
  C:\KEIL_V5\C51\LIB\C51L.LIB (FREE)
  C:\KEIL_V5\C51\LIB\C51L.LIB (?C_INIT)
  C:\KEIL_V5\C51\LIB\C51L.LIB (?C?LLDIDATA)
  C:\KEIL_V5\C51\LIB\C51L.LIB (?C?LLDXDATA)
  C:\KEIL_V5\C51\LIB\C51L.LIB (?C?LLDPDATA)
  C:\KEIL_V5\C51\LIB\C51L.LIB (?C?LLDCODE)
  C:\KEIL_V5\C51\LIB\C51L.LIB (?C?LLDIDATA0)
  C:\KEIL_V5\C51\LIB\C51L.LIB (?C?LLDXDATA0)
  C:\KEIL_V5\C51\LIB\C51L.LIB (?C?LLDPDATA0)
  C:\KEIL_V5\C51\LIB\C51L.LIB (?C?LLDCODE0)
  C:\KEIL_V5\C51\LIB\C51L.LIB (?C?PLDIDATA)
  C:\KEIL_V5\C51\LIB\C51L.LIB (?C?PLDXDATA)
  C:\KEIL_V5\C51\LIB\C51L.LIB (?C?PLDPDATA)
  C:\KEIL_V5\C51\LIB\C51L.LIB (?C?PLDCODE)
  C:\KEIL_V5\C51\LIB\C51L.LIB (INIT_MEM)

BL51 BANKED LINKER/LOCATER V6.00                                                      08/07/2017  18:56:55  PAGE 3



TASK TABLE OF MODULE:  电子大赛程序框架 (ABSTASK)

TASKID   PRIORITY   REG-BANK   SEGMENT NAME
-------------------------------------------
0        0          0          ?PR?TASKSTART?ABSTASK
1        0          0          ?PR?PRINTANGLEDATA?ABSTASK
2        0          0          ?PR?DATAUPDATE?ABSTASK
3        0          0          ?PR?PRINTADS1115?ABSTASK
4        0          0          ?PR?ABUTTONSCAN?ABSTASK
5        0          0          ?PR?PRINTDISTANCE?ABSTASK
6        0          0          ?PR?DISTANCEUPDATA?ABSTASK
7        0          0          ?PR?PRINTFBUTTON?ABSTASK
8        0          0          ?PR?BUZZ?ABSTASK
10       0          0          ?PR?BUTTONSOUND?ABSTASK
12       0          0          ?PR?DISTANCE?ABSTASK



LINK MAP OF MODULE:  电子大赛程序框架 (ABSTASK)


            TYPE    BASE      LENGTH    RELOCATION   SEGMENT NAME
            -----------------------------------------------------

            * * * * * * *   D A T A   M E M O R Y   * * * * * * *
            REG     0000H     0008H     ABSOLUTE     "REG BANK 0"
            DATA    0008H     0006H     ABSOLUTE     
            DATA    000EH     0008H     UNIT         ?DT?TM1638
            DATA    0016H     0005H     UNIT         _DATA_GROUP_
                    001BH     0005H                  *** GAP ***
            DATA    0020H     0001H     BIT_ADDR     ?BA?STC15_SPI
            BIT     0021H.0   0001H.2   UNIT         _BIT_GROUP_
            BIT     0022H.2   0000H.3   UNIT         ?BI?PCA
            BIT     0022H.5   0000H.2   UNIT         ?BI?FIXEDPULSER
            BIT     0022H.7   0000H.1   UNIT         ?BI?LED
            BIT     0023H.0   0000H.1   UNIT         ?BI?_SETSTEPMOTORDIVERSION?STEP_MOTOR
            BIT     0023H.1   0000H.1   UNIT         ?BI?GETANGLE?ANGLE
            BIT     0023H.2   0000H.1   UNIT         ?BI?_SETPINSTATE?GPIO
            BIT     0023H.3   0000H.1   UNIT         ?RTX?BITS
                    0023H.4   0000H.4                *** GAP ***
            IDATA   0024H     001AH     UNIT         ?RTX?TASKSTATE?S
            IDATA   003EH     000DH     UNIT         ?RTX?TASKSP?S
            IDATA   004BH     0001H     UNIT         ?STACK

            * * * * * * *  X D A T A   M E M O R Y  * * * * * * *
            XDATA   0000H     0290H     UNIT         ?XD?USART1
            XDATA   0290H     01E3H     UNIT         _XDATA_GROUP_
            XDATA   0473H     01A6H     UNIT         ?XD?FILTER
            XDATA   0619H     00A3H     UNIT         ?XD?MPU9250_SBUF
            XDATA   06BCH     0082H     UNIT         ?XD?PID
            XDATA   073EH     0053H     UNIT         ?XD?_USART1_PRINTF?USART1
            XDATA   0791H     004AH     UNIT         ?XD?SERVO
            XDATA   07DBH     003CH     UNIT         ?XD?STC15_PWM
            XDATA   0817H     002EH     UNIT         ?XD?_COPESERIALDATA?MPU9250_SBUF
            XDATA   0845H     002AH     UNIT         ?XD?DATASCOPE_DP
            XDATA   086FH     0021H     UNIT         ?XD?_INIT_STR_MOTOR?SERVO
BL51 BANKED LINKER/LOCATER V6.00                                                      08/07/2017  18:56:55  PAGE 4


            XDATA   0890H     0020H     UNIT         ?XD?HC_SR04
            XDATA   08B0H     001CH     UNIT         ?XD?STEP_MOTOR
            XDATA   08CCH     0018H     UNIT         ?XD?FIXEDPULSER
            XDATA   08E4H     0016H     UNIT         ?XD?_PWM_INIT?STC15_PWM
            XDATA   08FAH     0016H     UNIT         ?XD?TIMER
            XDATA   0910H     0015H     UNIT         ?XD?GETANGLE?ANGLE
            XDATA   0925H     0015H     UNIT         ?XD?PCA
            XDATA   093AH     0014H     UNIT         ?XD?_ITOA?USART1
            XDATA   094EH     0013H     UNIT         ?XD?_NIXIELEDLIGHT?TM1638
            XDATA   0961H     0012H     UNIT         ?XD?DC_MOTOR_CONFIG?MOTOR
            XDATA   0973H     0010H     UNIT         ?XD?BUTTON
            XDATA   0983H     0010H     UNIT         ?XD?ADS1115
            XDATA   0993H     000EH     UNIT         ?XD?_STEPMOTOR_INIT?STEP_MOTOR
            XDATA   09A1H     000EH     UNIT         ?XD?_TM1638LEDDISPLAY?TM1638
            XDATA   09AFH     000DH     UNIT         ?XD?_PID_CONFIG?PID
            XDATA   09BCH     000BH     UNIT         ?XD?_LCD_PRINTNUM_F?LCD5510_V2
            XDATA   09C7H     000AH     UNIT         ?XD?RELAY
            XDATA   09D1H     000AH     UNIT         ?XD?NRF24L01
            XDATA   09DBH     0009H     UNIT         ?XD?_SET_STR_ANGLE?SERVO
            XDATA   09E4H     0008H     UNIT         ?XD?ANGLE
            XDATA   09ECH     0008H     UNIT         ?XD?INIT_MEM
            XDATA   09F4H     0007H     UNIT         ?XD?_SETSTEPMOTORWITHPULSE?STEP_MOTOR
            XDATA   09FBH     0007H     UNIT         ?XD?_SETSTEPMOTORWITHDISTANCE?STEP_MOTOR
            XDATA   0A02H     0007H     UNIT         ?XD?_SETSTEPMOTORWITHANGLE?STEP_MOTOR
            XDATA   0A09H     0007H     UNIT         ?XD?_EEPROM_READ_N?STC15_EEPROM
            XDATA   0A10H     0007H     UNIT         ?XD?_EEPROM_WRITE_N?STC15_EEPROM
            XDATA   0A17H     0006H     UNIT         ?XD?_CHARTOLONG?MPU9250_SBUF
            XDATA   0A1DH     0006H     UNIT         ?XD?_IIC_WRDATTOADD?STC15_IIC
            XDATA   0A23H     0006H     UNIT         ?XD?_IIC_RDDATFROMADD?STC15_IIC
            XDATA   0A29H     0006H     UNIT         ?XD?_SPI_WRITE_BUF?STC15_SPI
            XDATA   0A2FH     0005H     UNIT         ?XD?_SETPARAMETERINFERIORLIMIT?PID
            XDATA   0A34H     0005H     UNIT         ?XD?_SETPARAMETERUPPERLIMIT?PID
            XDATA   0A39H     0005H     UNIT         ?XD?_SETACTUALPARAMETER?PID
            XDATA   0A3EH     0005H     UNIT         ?XD?_SETKI?PID
            XDATA   0A43H     0005H     UNIT         ?XD?_SETKP?PID
            XDATA   0A48H     0005H     UNIT         ?XD?_SETKD?PID
            XDATA   0A4DH     0005H     UNIT         ?XD?_SETPARAMETER?PID
            XDATA   0A52H     0005H     UNIT         ?XD?_SETMAXERROR?PID
            XDATA   0A57H     0005H     UNIT         ?XD?_LCD_PRINTS?LCD5510_V2
            XDATA   0A5CH     0005H     UNIT         ?XD?_SETDC_MOTORSPEED?MOTOR
            XDATA   0A61H     0005H     UNIT         ?XD?_SET_PWM_DUTY?STC15_PWM
            XDATA   0A66H     0005H     UNIT         ?XD?_SPI_READ_BUF?STC15_SPI
            XDATA   0A6BH     0004H     UNIT         ?XD?MOTOR
            XDATA   0A6FH     0004H     UNIT         ?XD?_HC595_INIT?74HC595
            XDATA   0A73H     0004H     UNIT         ?XD?_NRF24L01_RXPACKET?NRF24L01
            XDATA   0A77H     0003H     UNIT         ?XD?_INTEGRAL_SEPARA_PID?PID
            XDATA   0A7AH     0003H     UNIT         ?XD?_ANTI_WINDUP_PID?PID
            XDATA   0A7DH     0003H     UNIT         ?XD?_TRAPEZOIDAL_INTEGRAL_PID?PID
            XDATA   0A80H     0003H     UNIT         ?XD?_NRF24L01_TXPACKET?NRF24L01
            XDATA   0A83H     0003H     UNIT         ?XD?_PCA_INIT?PCA
            XDATA   0A86H     0003H     UNIT         ?XD?_PWMOUTPUT?PCA
            XDATA   0A89H     0002H     UNIT         ?XD?_SETSTEPMOTORWITHROUND?STEP_MOTOR
            XDATA   0A8BH     0002H     UNIT         ?XD?_SETSPEAKERPERIOD?SPEAKER
            XDATA   0A8DH     0002H     UNIT         ?XD?_SETLENGTH?SPEAKER
            XDATA   0A8FH     0002H     UNIT         ?XD?RELAY_INIT?RELAY
            XDATA   0A91H     0002H     UNIT         ?XD?_SET_PWM_PERIOD?STC15_PWM
            XDATA   0A93H     0002H     UNIT         ?XD?_PWM_INILIZE?STC15_PWM
BL51 BANKED LINKER/LOCATER V6.00                                                      08/07/2017  18:56:55  PAGE 5


            XDATA   0A95H     0001H     UNIT         ?XD?_POSITION_PID?PID
            XDATA   0A96H     0001H     UNIT         ?XD?_INCREMENTAL_PID?PID
            XDATA   0A97H     0001H     UNIT         ?XD?_POSCLASSPID?PID
            XDATA   0A98H     0001H     UNIT         ?XD?_BOARD_LED_PWM?LED
            XDATA   0A99H     0001H     UNIT         ?XD?_OPEN_DC_MOTOR?MOTOR
            XDATA   0A9AH     0001H     UNIT         ?XD?_CLOSE_DC_MOTOR?MOTOR
            XDATA   0A9BH     0001H     UNIT         ?XD?_OPEN_STR?SERVO
            XDATA   0A9CH     0001H     UNIT         ?XD?_CLOSE_STR?SERVO
            XDATA   0A9DH     0001H     UNIT         ?XD?_CLOSE_STEPMOTOR?STEP_MOTOR
            XDATA   0A9EH     0001H     UNIT         ?XD?_OPEN_SPEAKER?SPEAKER
            XDATA   0A9FH     0001H     UNIT         ?XD?_CLOSE_SPEAKER?SPEAKER
            XDATA   0AA0H     0001H     UNIT         ?XD?_HC595SENDDATA?74HC595
            XDATA   0AA1H     0001H     UNIT         ?XD?_NRF24L01_INIT?NRF24L01
            XDATA   0AA2H     0001H     UNIT         ?XD?_CHOICEHALFDUPLEXMODE?NRF24L01

            * * * * * * *   C O D E   M E M O R Y   * * * * * * *
            CODE    0000H     0003H     ABSOLUTE     
            CODE    0003H     0003H     ABSOLUTE     
                    0006H     0005H                  *** GAP ***
            CODE    000BH     0003H     ABSOLUTE     
                    000EH     0005H                  *** GAP ***
            CODE    0013H     0003H     ABSOLUTE     
                    0016H     000DH                  *** GAP ***
            CODE    0023H     0003H     ABSOLUTE     
                    0026H     0005H                  *** GAP ***
            CODE    002BH     0003H     ABSOLUTE     
                    002EH     000DH                  *** GAP ***
            CODE    003BH     0003H     ABSOLUTE     
                    003EH     0005H                  *** GAP ***
            CODE    0043H     0003H     ABSOLUTE     
                    0046H     000DH                  *** GAP ***
            CODE    0053H     0003H     ABSOLUTE     
                    0056H     0005H                  *** GAP ***
            CODE    005BH     0003H     ABSOLUTE     
                    005EH     0005H                  *** GAP ***
            CODE    0063H     0003H     ABSOLUTE     
                    0066H     001DH                  *** GAP ***
            CODE    0083H     0003H     ABSOLUTE     
                    0086H     0005H                  *** GAP ***
            CODE    008BH     0003H     ABSOLUTE     
                    008EH     0005H                  *** GAP ***
            CODE    0093H     0003H     ABSOLUTE     
                    0096H     0005H                  *** GAP ***
            CODE    009BH     0003H     ABSOLUTE     
                    009EH     0005H                  *** GAP ***
            CODE    00A3H     0003H     ABSOLUTE     
                    00A6H     075AH                  *** GAP ***
            CODE    0800H     0B0DH     UNIT         ?C?LIB_CODE
            CODE    130DH     06E0H     UNIT         ?PR?_USART_CONFIGURATION?USART1
            CODE    19EDH     049AH     UNIT         ?PR?_COPESERIALDATA?MPU9250_SBUF
            CODE    1E87H     0483H     UNIT         ?PR?PRINTF?PRINTF
            CODE    230AH     03E1H     UNIT         ?PR?_TRAPEZOIDAL_INTEGRAL_PID?PID
            CODE    26EBH     03D8H     UNIT         ?PR?_ANTI_WINDUP_PID?PID
            CODE    2AC3H     039AH     UNIT         ?PR?_PWM_INILIZE?STC15_PWM
            CODE    2E5DH     0393H     UNIT         ?PR?_NIXIELEDLIGHT?TM1638
            CODE    31F0H     033AH     UNIT         ?PR?_USART1_PRINTF?USART1
            CODE    352AH     02E3H     UNIT         ?RTX?CODE
BL51 BANKED LINKER/LOCATER V6.00                                                      08/07/2017  18:56:55  PAGE 6


            CODE    380DH     026AH     UNIT         ?CO?LCD5510_V2
            CODE    3A77H     0252H     UNIT         ?PR?_TIMER_INILIZE?TIMER
            CODE    3CC9H     0246H     UNIT         ?PR?_INTEGRAL_SEPARA_PID?PID
            CODE    3F0FH     01DCH     UNIT         ?PR?_POSITION_PID?PID
            CODE    40EBH     01D4H     UNIT         ?PR?_INIT_STR_MOTOR?SERVO
            CODE    42BFH     01CBH     UNIT         ?PR?_FILTER?FILTER
            CODE    448AH     01C4H     UNIT         ?PR?_GPIO_INILIZE?GPIO
            CODE    464EH     01A0H     UNIT         ?PR?_INCREMENTAL_PID?PID
            CODE    47EEH     019FH     UNIT         ?PR?_PCA_INIT?PCA
            CODE    498DH     0198H     UNIT         ?PR?_TM1638LEDDISPLAY?TM1638
            CODE    4B25H     0183H     UNIT         ?PR?_ITOA?USART1
            CODE    4CA8H     016DH     UNIT         ?PR?DISTANCE?ABSTASK
            CODE    4E15H     0152H     UNIT         ?PR?_KALMANFILTER?FILTER
            CODE    4F67H     0146H     UNIT         ?PR?_PID_CONFIG?PID
            CODE    50ADH     013EH     UNIT         ?PR?_FREE?FREE
            CODE    51EBH     013DH     UNIT         ?PR?_PWMOUTPUT?PCA
            CODE    5328H     013BH     UNIT         ?PR?GETBUTTONNUM?TM1638
            CODE    5463H     0134H     UNIT         ?PR?_DATASCOPE_GET_CHANNEL_DATA?DATASCOPE_DP
            CODE    5597H     0116H     UNIT         ?PR?_SET_STR_ANGLE?SERVO
            CODE    56ADH     00FAH     UNIT         ?PR?_NRF24L01_INIT?NRF24L01
            CODE    57A7H     00ECH     UNIT         ?PR?_SETPULSE?FIXEDPULSER
            CODE    5893H     00E4H     UNIT         ?PR?_SET_PWM_DUTY?STC15_PWM
            CODE    5977H     00D4H     UNIT         ?C_INITSEG
            CODE    5A4BH     00D1H     UNIT         ?PR?_MALLOC?MALLOC
            CODE    5B1CH     00CEH     UNIT         ?PR?DISTANCEUPDATA?ABSTASK
            CODE    5BEAH     00C7H     UNIT         ?PR?_SETSTEPMOTORWITHDISTANCE?STEP_MOTOR
            CODE    5CB1H     00C2H     UNIT         ?PR?_BUZZ?SPEAKER
            CODE    5D73H     00B6H     UNIT         ?PR?_EXT_INILIZE?STC15_EXTI
            CODE    5E29H     00B4H     UNIT         ?PR?_MOVINGAVERAGEFILTER?FILTER
            CODE    5EDDH     00AFH     UNIT         ?PR?UART1_INT?USART1
            CODE    5F8CH     00AEH     UNIT         ?PR?_PWMN_UPDATE?PCA
            CODE    603AH     00AAH     UNIT         ?PR?_FLOAT2BYTE?DATASCOPE_DP
            CODE    60E4H     00A5H     UNIT         ?PR?_DATASCOPE_DATA_GENERATE?DATASCOPE_DP
            CODE    6189H     00A3H     UNIT         ?PR?PCA_HANDLER?PCA
            CODE    622CH     009FH     UNIT         ?PR?_STEPMOTOR_INIT?STEP_MOTOR
            CODE    62CBH     009AH     UNIT         ?PR?_PWM_SET_T12_PERIOD?STC15_PWM
            CODE    6365H     0093H     UNIT         ?PR?_CHARTOLONG?MPU9250_SBUF
            CODE    63F8H     0092H     UNIT         ?PR?_SETDC_MOTORSPEED?MOTOR
            CODE    648AH     008CH     UNIT         ?C_C51STARTUP
            CODE    6516H     008AH     UNIT         ?PR?_SHUDDERINGFILTER?FILTER
            CODE    65A0H     0086H     UNIT         ?PR?_RELAYKEYCHANGE?RELAY
            CODE    6626H     0085H     UNIT         ?PR?UART2_INT?USART1
            CODE    66ABH     0085H     UNIT         ?PR?UART3_INT?USART1
            CODE    6730H     0085H     UNIT         ?PR?UART4_INT?USART1
            CODE    67B5H     007CH     UNIT         ?PR?TIMERINIT?TIMER
            CODE    6831H     007BH     UNIT         ?PR?PULSER_1INT?FIXEDPULSER
            CODE    68ACH     007BH     UNIT         ?PR?PULSER_2INT?FIXEDPULSER
            CODE    6927H     0079H     UNIT         ?PR?GETANGLE?ANGLE
            CODE    69A0H     0070H     UNIT         ?PR?_LCD_PRINTNUM_F?LCD5510_V2
            CODE    6A10H     006BH     UNIT         ?PR?DC_MOTOR_CONFIG?MOTOR
            CODE    6A7BH     0069H     UNIT         ?PR?PRINTADS1115?ABSTASK
            CODE    6AE4H     0069H     UNIT         ?PR?EXT_INT0?HC_SR04
            CODE    6B4DH     0065H     UNIT         ?PR?_LCD_PRINTNUM_I?LCD5510_V2
            CODE    6BB2H     0065H     UNIT         ?PR?_SETSTEPMOTORWITHANGLE?STEP_MOTOR
            CODE    6C17H     0063H     UNIT         ?PR?_LIMITINGFILTER?FILTER
            CODE    6C7AH     0062H     UNIT         ?PR?TEST?SETUP
            CODE    6CDCH     0061H     UNIT         ?PR?_SET_PWM_PERIOD?STC15_PWM
BL51 BANKED LINKER/LOCATER V6.00                                                      08/07/2017  18:56:55  PAGE 7


            CODE    6D3DH     005EH     UNIT         ?PR?_GET_ADC10BITRESULT?ADC
            CODE    6D9BH     005BH     UNIT         ?PR?DATAUPDATE?ABSTASK
            CODE    6DF6H     0059H     UNIT         ?PR?SETUP?SETUP
            CODE    6E4FH     0057H     UNIT         ?PR?_PWM_INIT?STC15_PWM
            CODE    6EA6H     0054H     UNIT         ?PR?_LCD_PRINTSL?LCD5510_V2
            CODE    6EFAH     0053H     UNIT         ?PR?_ADC_INILIZE?ADC
            CODE    6F4DH     0053H     UNIT         ?PR?_IIC_RDDATFROMADD?STC15_IIC
            CODE    6FA0H     0052H     UNIT         ?PR?_NRF24L01_RXPACKET?NRF24L01
            CODE    6FF2H     0050H     UNIT         ?PR?PRINTFBUTTON?ABSTASK
            CODE    7042H     004AH     UNIT         ?PR?_GETJY901ACCELERATION?MPU9250_SBUF
            CODE    708CH     004AH     UNIT         ?PR?_GETJY901PALSTANCE?MPU9250_SBUF
            CODE    70D6H     0048H     UNIT         ?PR?_WRITECONFIGREGISTER?ADS1115
            CODE    711EH     0048H     UNIT         ?PR?TIMER4_INT?TIMER
            CODE    7166H     0047H     UNIT         ?CO?SETUP
            CODE    71ADH     0047H     UNIT         ?PR?GETTM1638READ?TM1638
            CODE    71F4H     0046H     UNIT         ?PR?HC_SR04_INIT?HC_SR04
            CODE    723AH     0045H     UNIT         ?PR?_POSCLASSPID?PID
            CODE    727FH     0044H     UNIT         ?C?LDIV
            CODE    72C3H     0043H     UNIT         ?PR?LCD5510_INIT?LCD5510_V2
            CODE    7306H     0040H     UNIT         ?PR?PRINTANGLEDATA?ABSTASK
            CODE    7346H     0040H     UNIT         ?PR?_SPI_WRITE_BUF?STC15_SPI
            CODE    7386H     003FH     UNIT         ?PR?_EEPROM_READ_N?STC15_EEPROM
            CODE    73C5H     003FH     UNIT         ?PR?_EEPROM_WRITE_N?STC15_EEPROM
            CODE    7404H     003DH     UNIT         ?PR?_LCD_PRINTC?LCD5510_V2
            CODE    7441H     003CH     UNIT         ?PR?_SETTM1638WRITE?TM1638
            CODE    747DH     003CH     UNIT         ?PR?_INIT_MEMPOOL?INIT_MEM
            CODE    74B9H     003BH     UNIT         ?PR?_LCD_PRINTS?LCD5510_V2
            CODE    74F4H     003BH     UNIT         ?PR?_INITJY901?MPU9250_SBUF
            CODE    752FH     003BH     UNIT         ?PR?_CLOSERELAYMODULAR?RELAY
            CODE    756AH     003AH     UNIT         ?PR?_NRF24L01_TXPACKET?NRF24L01
            CODE    75A4H     0039H     UNIT         ?PR?_SETSTEPMOTORWITHROUND?STEP_MOTOR
            CODE    75DDH     0038H     UNIT         ?PR?BUTTONSCAN?BUTTON
            CODE    7615H     0036H     UNIT         ?PR?_GETJY901MAGNETIC?MPU9250_SBUF
            CODE    764BH     0036H     UNIT         ?PR?_IIC_WRDATTOADD?STC15_IIC
            CODE    7681H     0035H     UNIT         ?PR?BUZZ?ABSTASK
            CODE    76B6H     0035H     UNIT         ?PR?_UART1_INIT?SETUP
            CODE    76EBH     0035H     UNIT         ?PR?_SPI_READ_BUF?STC15_SPI
            CODE    7720H     0033H     UNIT         ?PR?READCONVERSIONREGISTER?ADS1115
            CODE    7753H     0032H     UNIT         ?PR?_GETJY901ANGLE?MPU9250_SBUF
            CODE    7785H     0032H     UNIT         ?PR?_CHOICEHALFDUPLEXMODE?NRF24L01
            CODE    77B7H     0031H     UNIT         ?PR?_SENDSCOPEDATA?DATASCOPE_DP
            CODE    77E8H     0031H     UNIT         ?PR?_CLOSERELAYKEY?RELAY
            CODE    7819H     0030H     UNIT         ?PR?_OPENRELAYKEY?RELAY
            CODE    7849H     002FH     UNIT         ?PR?INIT_TM1638?TM1638
            CODE    7878H     002EH     UNIT         ?PR?_DELAY_US?DELAY
            CODE    78A6H     002DH     UNIT         ?PR?PULSERINIT?FIXEDPULSER
            CODE    78D3H     0029H     UNIT         ?PR?_SETTIMEOUT?TIMER
            CODE    78FCH     0028H     UNIT         ?PR?BOARD_LED_INIT?LED
            CODE    7924H     0028H     UNIT         ?PR?_OPEN_PWM_N?STC15_PWM
            CODE    794CH     0028H     UNIT         ?PR?_TX2_WRITE2BUFF?USART1
            CODE    7974H     0028H     UNIT         ?PR?_TX3_WRITE2BUFF?USART1
            CODE    799CH     0028H     UNIT         ?PR?_TX4_WRITE2BUFF?USART1
            CODE    79C4H     0027H     UNIT         ?PR?IIC_RDACK?STC15_IIC
            CODE    79EBH     0027H     UNIT         ?PR?_TX1_WRITE2BUFF?USART1
            CODE    7A12H     0027H     UNIT         ?PR?PUTCHAR?PUTCHAR
            CODE    7A39H     0026H     UNIT         ?PR?_INPUTONEBYTE?STC15_IIC
            CODE    7A5FH     0025H     UNIT         ?PR?_SETSTEPMOTORWITHPULSE?STEP_MOTOR
BL51 BANKED LINKER/LOCATER V6.00                                                      08/07/2017  18:56:55  PAGE 8


            CODE    7A84H     0025H     UNIT         ?PR?_CLOSE_PWM_N?STC15_PWM
            CODE    7AA9H     0024H     UNIT         ?PR?SPEAKER_INIT?SPEAKER
            CODE    7ACDH     0024H     UNIT         ?PR?OUTPUTONEBYTE?STC15_IIC
            CODE    7AF1H     0024H     UNIT         ?PR?_SPI_RW?STC15_SPI
            CODE    7B15H     0022H     UNIT         ?PR?_BLINK?LED
            CODE    7B37H     0021H     UNIT         ?PR?_SETPARAMETERINFERIORLIMIT?PID
            CODE    7B58H     0021H     UNIT         ?PR?_SETPARAMETERUPPERLIMIT?PID
            CODE    7B79H     0021H     UNIT         ?PR?_SETACTUALPARAMETER?PID
            CODE    7B9AH     0021H     UNIT         ?PR?_SETKI?PID
            CODE    7BBBH     0021H     UNIT         ?PR?_SETKP?PID
            CODE    7BDCH     0021H     UNIT         ?PR?_SETKD?PID
            CODE    7BFDH     0021H     UNIT         ?PR?_SETPARAMETER?PID
            CODE    7C1EH     0021H     UNIT         ?PR?_SETMAXERROR?PID
            CODE    7C3FH     0021H     UNIT         ?PR?LCD_CLR_SCR?LCD5510_V2
            CODE    7C60H     0021H     UNIT         ?PR?BUZZSUCCEED?SPEAKER
            CODE    7C81H     0021H     UNIT         ?PR?BUZZFAILED?SPEAKER
            CODE    7CA2H     0021H     UNIT         ?PR?_SETDISTANCE?HC_SR04
            CODE    7CC3H     0020H     UNIT         ?PR?_LCD_WRITE_BYTE?LCD5510_V2
            CODE    7CE3H     0020H     UNIT         ?PR?_OPEN_STR?SERVO
            CODE    7D03H     0020H     UNIT         ?PR?_EEPROM_SECTORERASE?STC15_EEPROM
            CODE    7D23H     001FH     UNIT         ?PR?PRINTDISTANCE?ABSTASK
            CODE    7D42H     001FH     UNIT         ?PR?_CLOSE_STR?SERVO
            CODE    7D61H     001FH     UNIT         ?PR?_SETTM1638COM?TM1638
            CODE    7D80H     001FH     UNIT         ?PR?_UPDATEDISTANCE?HC_SR04
            CODE    7D9FH     001FH     UNIT         ?PR?_PWM_SET_PERIOD?STC15_PWM
            CODE    7DBEH     001FH     UNIT         ?PR?_ISACTIVETIMER?TIMER
            CODE    7DDDH     001FH     UNIT         ?PR?_ISEXPIREDTIMER?TIMER
            CODE    7DFCH     001EH     UNIT         ?PR?_OPEN_DC_MOTOR?MOTOR
            CODE    7E1AH     001EH     UNIT         ?PR?_OPENPULSER?FIXEDPULSER
            CODE    7E38H     001EH     UNIT         ?CO?TM1638
            CODE    7E56H     001EH     UNIT         ?PR?_GETADS1115CONVSIONDATA?ADS1115
            CODE    7E74H     001DH     UNIT         ?PR?_CLOSE_DC_MOTOR?MOTOR
            CODE    7E91H     001DH     UNIT         ?PR?_CLOSE_STEPMOTOR?STEP_MOTOR
            CODE    7EAEH     001DH     UNIT         ?PR?_CLOSEPULSER?FIXEDPULSER
            CODE    7ECBH     001DH     UNIT         ?PR?_ISSTOPPED?TIMER
            CODE    7EE8H     001CH     UNIT         ?PR?_FREESTEPMOTOR?STEP_MOTOR
            CODE    7F04H     001CH     UNIT         ?PR?_LOCKSTEPMOTOR?STEP_MOTOR
            CODE    7F20H     001CH     UNIT         ?PR?_ADC_CONFIG?ANGLE
            CODE    7F3CH     001CH     UNIT         ?PR?_SETTIMERHERTZ?TIMER
            CODE    7F58H     001BH     UNIT         ?PR?_GETBUTTONSTATE?BUTTON
            CODE    7F73H     001BH     UNIT         ?PR?_SETSTEPMOTORDIVERSION?STEP_MOTOR
            CODE    7F8EH     001AH     UNIT         ?PR?_GETPARAMETER?PID
            CODE    7FA8H     001AH     UNIT         ?PR?_GETERR?PID
            CODE    7FC2H     001AH     UNIT         ?PR?_GETERRLAST?PID
            CODE    7FDCH     001AH     UNIT         ?PR?_GETKP?PID
            CODE    7FF6H     001AH     UNIT         ?PR?_GETKI?PID
            CODE    8010H     001AH     UNIT         ?PR?_GETKD?PID
            CODE    802AH     001AH     UNIT         ?PR?_GETOUTPUT?PID
            CODE    8044H     001AH     UNIT         ?PR?_GETINTEGRAL?PID
            CODE    805EH     001AH     UNIT         ?PR?_READ_STR_ANGLE?SERVO
            CODE    8078H     001AH     UNIT         ?PR?_ADS1115_CONFIG?ADS1115
            CODE    8092H     001AH     UNIT         ?PR?_GETDISTANCE?HC_SR04
            CODE    80ACH     001AH     UNIT         ?PR?_GET_PWM_PERIOD?STC15_PWM
            CODE    80C6H     001AH     UNIT         ?PR?_GET_PWM_N_DUTY?STC15_PWM
            CODE    80E0H     001AH     UNIT         ?PR?_GETTIMEROUT?TIMER
            CODE    80FAH     001AH     UNIT         ?PR?_GETTIMERHERTZ?TIMER
            CODE    8114H     001AH     UNIT         ?RTX?TASKENT?S
BL51 BANKED LINKER/LOCATER V6.00                                                      08/07/2017  18:56:55  PAGE 9


            CODE    812EH     0019H     UNIT         ?PR?_INCCLASSPID?PID
            CODE    8147H     0019H     UNIT         ?PR?_HC595_INIT?74HC595
            CODE    8160H     0019H     UNIT         ?PR?_IIC_WRDEVADDANDDATADD?STC15_IIC
            CODE    8179H     0017H     UNIT         ?PR?BUTTON_CONFIG?BUTTON
            CODE    8190H     0017H     UNIT         ?PR?_PRINTSTRING1?USART1
            CODE    81A7H     0016H     UNIT         ?PR?CHANGEREGISTER?ADS1115
            CODE    81BDH     0015H     UNIT         ?PR?BUTTONSOUND?ABSTASK
            CODE    81D2H     0015H     UNIT         ?PR?_RESTARTTIMER?TIMER
            CODE    81E7H     0014H     UNIT         ?PR?_LCD_POS_BYTE?LCD5510_V2
            CODE    81FBH     0014H     UNIT         ?PR?RELAY_INIT?RELAY
            CODE    820FH     0014H     UNIT         ?PR?_SETTIMERVALUE?HC_SR04
            CODE    8223H     0014H     UNIT         ?PR?_GETTIMERVALUE?HC_SR04
            CODE    8237H     0013H     UNIT         ?CO?ABSTASK
            CODE    824AH     0013H     UNIT         ?PR?_LCD_CLR_ROW?LCD5510_V2
            CODE    825DH     0013H     UNIT         ?PR?_OPEN_STEPMOTOR?STEP_MOTOR
            CODE    8270H     0013H     UNIT         ?PR?_PRINTSTRING2?USART1
            CODE    8283H     0013H     UNIT         ?PR?_PRINTSTRING3?USART1
            CODE    8296H     0013H     UNIT         ?PR?_PRINTSTRING4?USART1
            CODE    82A9H     0012H     UNIT         ?PR?TASKSTART?ABSTASK
            CODE    82BBH     0012H     UNIT         ?PR?_OPENPID?PID
            CODE    82CDH     0012H     UNIT         ?PR?_GETPULSERSTATE?FIXEDPULSER
            CODE    82DFH     0012H     UNIT         ?PR?_ENABLEJY901?MPU9250_SBUF
            CODE    82F1H     0012H     UNIT         ?PR?_OPENJY901SBUFMODE?MPU9250_SBUF
            CODE    8303H     0012H     UNIT         ?PR?_OPENRELAYMODULAR?RELAY
            CODE    8315H     0012H     UNIT         ?PR?_OPEN_ADS1115?ADS1115
            CODE    8327H     0012H     UNIT         ?PR?_OPEN_HC_SR04?HC_SR04
            CODE    8339H     0012H     UNIT         ?PR?_GET_PWM_N_STATE?STC15_PWM
            CODE    834BH     0011H     UNIT         ?PR?_CLOSEPID?PID
            CODE    835CH     0011H     UNIT         ?PR?_GETSTEPMOTORSTATE?STEP_MOTOR
            CODE    836DH     0011H     UNIT         ?PR?_DISABLEJY901?MPU9250_SBUF
            CODE    837EH     0011H     UNIT         ?PR?_CLOSEJY901SBUFMODE?MPU9250_SBUF
            CODE    838FH     0011H     UNIT         ?PR?_CLOSE_ADS1115?ADS1115
            CODE    83A0H     0011H     UNIT         ?PR?_HC595SENDDATA?74HC595
            CODE    83B1H     0011H     UNIT         ?PR?_CLOSE_HC_SR04?HC_SR04
            CODE    83C2H     0011H     UNIT         ?PR?_GETHC_SR04_STATE?HC_SR04
            CODE    83D3H     0011H     UNIT         ?PR?_SETPWM_DIV?STC15_PWM
            CODE    83E4H     0011H     UNIT         ?PR?_GETPWM_DIV?STC15_PWM
            CODE    83F5H     0011H     UNIT         ?PR?_SPI_RW_REG?STC15_SPI
            CODE    8406H     0011H     UNIT         ?PR?_SETUART1INTERRUPT?USART1
            CODE    8417H     0010H     UNIT         ?PR?_GETDC_MOTORSTATE?MOTOR
            CODE    8427H     0010H     UNIT         ?PR?_DELAY_MS?DELAY
            CODE    8437H     000FH     UNIT         ?PR?ABUTTONSCAN?ABSTASK
            CODE    8446H     000FH     UNIT         ?PR?_SETSTEPMOTORSTATE?STEP_MOTOR
            CODE    8455H     000EH     UNIT         ?PR?DISABLEEEPROM?STC15_EEPROM
            CODE    8463H     000EH     UNIT         ?PR?DELAY5US?STC15_IIC
            CODE    8471H     000EH     UNIT         ?PR?_ONRESTARTTIMER?TIMER
            CODE    847FH     000DH     UNIT         ?PR?IIC_ACK?STC15_IIC
            CODE    848CH     000DH     UNIT         ?PR?_SPI_READ?STC15_SPI
            CODE    8499H     000DH     UNIT         ?PR?_STOPTIMER?TIMER
            CODE    84A6H     000DH     UNIT         ?PR?_FABS?FABS
            CODE    84B3H     000CH     UNIT         ?PR?_ADC_POWERCONTROL?ADC
            CODE    84BFH     000CH     UNIT         ?PR?_ABS?ABS
            CODE    84CBH     000BH     UNIT         ?PR?BUZZWAIT?SPEAKER
            CODE    84D6H     000AH     UNIT         ?PR?IIC_START?STC15_IIC
            CODE    84E0H     000AH     UNIT         ?PR?IIC_NACK?STC15_IIC
            CODE    84EAH     000AH     UNIT         ?PR?OPEN_PWM_ALL?STC15_PWM
            CODE    84F4H     000AH     UNIT         ?PR?CLOSE_PWM_ALL?STC15_PWM
BL51 BANKED LINKER/LOCATER V6.00                                                      08/07/2017  18:56:55  PAGE 10


            CODE    84FEH     0009H     UNIT         ?PR?_SETSPEAKERPERIOD?SPEAKER
            CODE    8507H     0009H     UNIT         ?PR?_SETLENGTH?SPEAKER
            CODE    8510H     0009H     UNIT         ?PR?SETCARFORWARD?MT_1_L298N
            CODE    8519H     0009H     UNIT         ?PR?SETCARBACK?MT_1_L298N
            CODE    8522H     0009H     UNIT         ?PR?SETCARSTOP?MT_1_L298N
            CODE    852BH     0009H     UNIT         ?PR?SETCARRIGHTFORWARD?MT_1_L298N
            CODE    8534H     0009H     UNIT         ?PR?SETCARRIGHTBACK?MT_1_L298N
            CODE    853DH     0009H     UNIT         ?PR?SETCARRIGHTTURN?MT_1_L298N
            CODE    8546H     0009H     UNIT         ?PR?SETCARLEFTFORWARD?MT_1_L298N
            CODE    854FH     0009H     UNIT         ?PR?SETCARLEFTBACK?MT_1_L298N
            CODE    8558H     0009H     UNIT         ?PR?SETCARLEFTTURN?MT_1_L298N
            CODE    8561H     0009H     UNIT         ?PR?GETMICROS?TIMER
            CODE    856AH     0009H     UNIT         ?PR?GETMILLIS?TIMER
            CODE    8573H     0008H     UNIT         ?PR?_LABS?LABS
            CODE    857BH     0006H     UNIT         ?PR?_BOARD_LED_PWM?LED
            CODE    8581H     0006H     UNIT         ?PR?_OPEN_SPEAKER?SPEAKER
            CODE    8587H     0006H     UNIT         ?PR?_CLOSE_SPEAKER?SPEAKER
            CODE    858DH     0006H     UNIT         ?PR?IIC_STOP?STC15_IIC
            CODE    8593H     0006H     UNIT         ?PR?_SETSPIRX_DR?STC15_SPI
            CODE    8599H     0006H     UNIT         ?PR?GETSECONDS?TIMER
            CODE    859FH     0006H     UNIT         ?PR?GETMINUTES?TIMER
            CODE    85A5H     0006H     UNIT         ?PR?GETHOURS?TIMER
            CODE    85ABH     0006H     UNIT         ?PR?GETDAYS?TIMER
            CODE    85B1H     0005H     UNIT         ?PR?OPEN_BOARD_LED?LED
            CODE    85B6H     0005H     UNIT         ?PR?CLOSE_BOARD_LED?LED
            CODE    85BBH     0005H     UNIT         ?PR?CLOSETM1638DISPLAY?TM1638
            CODE    85C0H     0004H     UNIT         ?PR?ADC_INT?ADC
            CODE    85C4H     0003H     UNIT         ?PR?GETBOARD_LED_STATE?LED
            CODE    85C7H     0003H     UNIT         ?PR?_SETPINSTATE?GPIO
            CODE    85CAH     0003H     UNIT         ?PR?_SETSPISTA?STC15_SPI
            CODE    85CDH     0003H     UNIT         ?PR?GETSPISTA?STC15_SPI
            CODE    85D0H     0003H     UNIT         ?PR?GETSPIRX_DR?STC15_SPI
            CODE    85D3H     0001H     UNIT         ?PR?MODE1?MODE
            CODE    85D4H     0001H     UNIT         ?PR?MODE2?MODE
            CODE    85D5H     0001H     UNIT         ?PR?MODE3?MODE
            CODE    85D6H     0001H     UNIT         ?PR?MODE4?MODE
            CODE    85D7H     0001H     UNIT         ?PR?MODELAUNCHER?MODE
            CODE    85D8H     0001H     UNIT         ?PR?EXT_INT1?STC15_EXTI
            CODE    85D9H     0001H     UNIT         ?PR?EXT_INT2?STC15_EXTI
            CODE    85DAH     0001H     UNIT         ?PR?EXT_INT3?STC15_EXTI
            CODE    85DBH     0001H     UNIT         ?PR?EXT_INT4?STC15_EXTI



OVERLAY MAP OF MODULE:   电子大赛程序框架 (ABSTASK)


SEGMENT                                             BIT_GROUP          DATA_GROUP          XDATA_GROUP
  +--> CALLED SEGMENT                            START    LENGTH     START    LENGTH     START    LENGTH
--------------------------------------------------------------------------------------------------------
?PR?TASKSTART?ABSTASK                            -----    -----      -----    -----      -----    -----
  +--> ?PR?SETUP?SETUP
  +--> ?PR?_BLINK?LED

?PR?SETUP?SETUP                                  -----    -----      -----    -----      -----    -----
  +--> ?PR?_UART1_INIT?SETUP
  +--> ?PR?TIMERINIT?TIMER
BL51 BANKED LINKER/LOCATER V6.00                                                      08/07/2017  18:56:55  PAGE 11


  +--> ?PR?BOARD_LED_INIT?LED
  +--> ?PR?LCD5510_INIT?LCD5510_V2
  +--> ?CO?SETUP
  +--> ?PR?_LCD_PRINTSL?LCD5510_V2
  +--> ?PR?LCD_CLR_SCR?LCD5510_V2
  +--> ?PR?BUTTON_CONFIG?BUTTON
  +--> ?PR?SPEAKER_INIT?SPEAKER
  +--> ?PR?_ADC_CONFIG?ANGLE
  +--> ?PR?_ADS1115_CONFIG?ADS1115
  +--> ?PR?HC_SR04_INIT?HC_SR04
  +--> ?PR?_OPEN_HC_SR04?HC_SR04
  +--> ?PR?_OPEN_ADS1115?ADS1115

?PR?_UART1_INIT?SETUP                            -----    -----      -----    -----      0290H    000DH
  +--> ?PR?_USART_CONFIGURATION?USART1
  +--> ?CO?SETUP
  +--> ?PR?_PRINTSTRING1?USART1

?PR?_USART_CONFIGURATION?USART1                  -----    -----      -----    -----      029DH    0009H

?PR?_PRINTSTRING1?USART1                         -----    -----      -----    -----      -----    -----
  +--> ?PR?_TX1_WRITE2BUFF?USART1

?PR?TIMERINIT?TIMER                              -----    -----      -----    -----      0290H    0021H
  +--> ?PR?_TIMER_INILIZE?TIMER

?PR?BOARD_LED_INIT?LED                           -----    -----      -----    -----      0290H    0002H
  +--> ?PR?_GPIO_INILIZE?GPIO
  +--> ?PR?OPEN_BOARD_LED?LED
  +--> ?PR?_DELAY_MS?DELAY
  +--> ?PR?CLOSE_BOARD_LED?LED

?PR?LCD5510_INIT?LCD5510_V2                      -----    -----      -----    -----      0290H    0002H
  +--> ?PR?_GPIO_INILIZE?GPIO
  +--> ?PR?_LCD_WRITE_BYTE?LCD5510_V2
  +--> ?PR?LCD_CLR_SCR?LCD5510_V2

?PR?LCD_CLR_SCR?LCD5510_V2                       -----    -----      -----    -----      -----    -----
  +--> ?PR?_LCD_WRITE_BYTE?LCD5510_V2

?PR?_LCD_PRINTSL?LCD5510_V2                      -----    -----      -----    -----      032AH    0005H
  +--> ?PR?_LCD_PRINTC?LCD5510_V2

?PR?_LCD_PRINTC?LCD5510_V2                       -----    -----      -----    -----      -----    -----
  +--> ?PR?_LCD_POS_BYTE?LCD5510_V2
  +--> ?CO?LCD5510_V2
  +--> ?PR?_LCD_WRITE_BYTE?LCD5510_V2

?PR?_LCD_POS_BYTE?LCD5510_V2                     -----    -----      -----    -----      -----    -----
  +--> ?PR?_LCD_WRITE_BYTE?LCD5510_V2

?PR?BUTTON_CONFIG?BUTTON                         -----    -----      -----    -----      0290H    0002H
  +--> ?PR?_GPIO_INILIZE?GPIO
  +--> ?PR?INIT_TM1638?TM1638

?PR?INIT_TM1638?TM1638                           -----    -----      -----    -----      0292H    0001H
  +--> ?PR?_SETTM1638COM?TM1638
BL51 BANKED LINKER/LOCATER V6.00                                                      08/07/2017  18:56:55  PAGE 12


  +--> ?PR?_SETTM1638WRITE?TM1638

?PR?_SETTM1638COM?TM1638                         -----    -----      -----    -----      0293H    0001H
  +--> ?PR?_DELAY_US?DELAY
  +--> ?PR?_SETTM1638WRITE?TM1638

?PR?_SETTM1638WRITE?TM1638                       -----    -----      -----    -----      0467H    0002H
  +--> ?PR?_DELAY_US?DELAY

?PR?SPEAKER_INIT?SPEAKER                         -----    -----      -----    -----      -----    -----
  +--> ?PR?PULSERINIT?FIXEDPULSER
  +--> ?PR?_BUZZ?SPEAKER

?PR?PULSERINIT?FIXEDPULSER                       -----    -----      -----    -----      0290H    0002H
  +--> ?PR?_GPIO_INILIZE?GPIO

?PR?_BUZZ?SPEAKER                                -----    -----      -----    -----      0461H    0007H
  +--> ?PR?_CLOSEPULSER?FIXEDPULSER
  +--> ?PR?_SETPULSE?FIXEDPULSER
  +--> ?PR?_OPENPULSER?FIXEDPULSER

?PR?_SETPULSE?FIXEDPULSER                        -----    -----      -----    -----      0468H    000BH

?PR?_ADC_CONFIG?ANGLE                            -----    -----      -----    -----      0290H    0006H
  +--> ?PR?_ADC_INILIZE?ADC

?PR?_ADS1115_CONFIG?ADS1115                      -----    -----      -----    -----      0290H    0004H
  +--> ?PR?_GPIO_INILIZE?GPIO

?PR?HC_SR04_INIT?HC_SR04                         -----    -----      -----    -----      0290H    0005H
  +--> ?PR?_GPIO_INILIZE?GPIO
  +--> ?PR?_EXT_INILIZE?STC15_EXTI

?PR?_BLINK?LED                                   -----    -----      -----    -----      0290H    0001H
  +--> ?PR?OPEN_BOARD_LED?LED
  +--> ?PR?_DELAY_MS?DELAY
  +--> ?PR?CLOSE_BOARD_LED?LED

*** NEW ROOT ***************************************************

?PR?PRINTANGLEDATA?ABSTASK                       -----    -----      -----    -----      -----    -----
  +--> ?PR?_GETJY901ANGLE?MPU9250_SBUF
  +--> ?PR?_DATASCOPE_GET_CHANNEL_DATA?DATAS...
  +--> ?PR?_SENDSCOPEDATA?DATASCOPE_DP

?PR?_DATASCOPE_GET_CHANNEL_DATA?DATAS...         -----    -----      -----    -----      0448H    0005H
  +--> ?PR?_FLOAT2BYTE?DATASCOPE_DP

?PR?_FLOAT2BYTE?DATASCOPE_DP                     -----    -----      -----    -----      044DH    000AH

?PR?_SENDSCOPEDATA?DATASCOPE_DP                  -----    -----      -----    -----      0448H    0002H
  +--> ?PR?_DATASCOPE_DATA_GENERATE?DATASCOP...
  +--> ?PR?_TX1_WRITE2BUFF?USART1

*** NEW ROOT ***************************************************

?PR?DATAUPDATE?ABSTASK                           -----    -----      -----    -----      -----    -----
BL51 BANKED LINKER/LOCATER V6.00                                                      08/07/2017  18:56:55  PAGE 13


  +--> ?PR?_GETJY901ANGLE?MPU9250_SBUF
  +--> ?PR?_LCD_PRINTNUM_I?LCD5510_V2

?PR?_LCD_PRINTNUM_I?LCD5510_V2                   -----    -----      -----    -----      02C0H    0008H
  +--> ?PR?_MALLOC?MALLOC
  +--> ?CO?LCD5510_V2
  +--> ?PR?PRINTF?PRINTF
  +--> ?PR?_LCD_PRINTSL?LCD5510_V2
  +--> ?PR?_FREE?FREE

?PR?_MALLOC?MALLOC                               -----    -----      -----    -----      02C8H    0006H

?PR?PRINTF?PRINTF                                0021H.0  0001H.1    0016H    0005H      02C8H    0030H
  +--> ?PR?PUTCHAR?PUTCHAR

?PR?_FREE?FREE                                   -----    -----      -----    -----      02C8H    0006H

*** NEW ROOT ***************************************************

?PR?PRINTADS1115?ABSTASK                         -----    -----      -----    -----      -----    -----
  +--> ?PR?_GETADS1115CONVSIONDATA?ADS1115
  +--> ?PR?_DATASCOPE_GET_CHANNEL_DATA?DATAS...
  +--> ?PR?_SENDSCOPEDATA?DATASCOPE_DP

?PR?_GETADS1115CONVSIONDATA?ADS1115              -----    -----      -----    -----      02F8H    0002H
  +--> ?PR?_WRITECONFIGREGISTER?ADS1115
  +--> ?PR?CHANGEREGISTER?ADS1115
  +--> ?PR?READCONVERSIONREGISTER?ADS1115

?PR?_WRITECONFIGREGISTER?ADS1115                 -----    -----      -----    -----      02FAH    0001H
  +--> ?PR?IIC_START?STC15_IIC
  +--> ?PR?_INPUTONEBYTE?STC15_IIC
  +--> ?PR?IIC_RDACK?STC15_IIC
  +--> ?PR?IIC_STOP?STC15_IIC

?PR?IIC_START?STC15_IIC                          -----    -----      -----    -----      -----    -----
  +--> ?PR?DELAY5US?STC15_IIC

?PR?_INPUTONEBYTE?STC15_IIC                      -----    -----      -----    -----      -----    -----
  +--> ?PR?DELAY5US?STC15_IIC

?PR?IIC_RDACK?STC15_IIC                          0022H.1  0000H.1    -----    -----      -----    -----
  +--> ?PR?_INPUTONEBYTE?STC15_IIC
  +--> ?PR?DELAY5US?STC15_IIC

?PR?IIC_STOP?STC15_IIC                           -----    -----      -----    -----      -----    -----
  +--> ?PR?DELAY5US?STC15_IIC

?PR?CHANGEREGISTER?ADS1115                       -----    -----      -----    -----      -----    -----
  +--> ?PR?IIC_START?STC15_IIC
  +--> ?PR?_INPUTONEBYTE?STC15_IIC
  +--> ?PR?IIC_RDACK?STC15_IIC
  +--> ?PR?IIC_STOP?STC15_IIC

?PR?READCONVERSIONREGISTER?ADS1115               -----    -----      -----    -----      02FAH    000CH
  +--> ?PR?IIC_START?STC15_IIC
  +--> ?PR?_INPUTONEBYTE?STC15_IIC
BL51 BANKED LINKER/LOCATER V6.00                                                      08/07/2017  18:56:55  PAGE 14


  +--> ?PR?IIC_RDACK?STC15_IIC
  +--> ?PR?OUTPUTONEBYTE?STC15_IIC
  +--> ?PR?IIC_ACK?STC15_IIC
  +--> ?PR?IIC_STOP?STC15_IIC

?PR?OUTPUTONEBYTE?STC15_IIC                      -----    -----      -----    -----      0306H    0008H
  +--> ?PR?DELAY5US?STC15_IIC

?PR?IIC_ACK?STC15_IIC                            -----    -----      -----    -----      -----    -----
  +--> ?PR?DELAY5US?STC15_IIC

*** NEW ROOT ***************************************************

?PR?BUZZ?ABSTASK                                 -----    -----      -----    -----      -----    -----
  +--> ?PR?_GETBUTTONSTATE?BUTTON
  +--> ?PR?_BUZZ?SPEAKER
  +--> ?PR?BUZZSUCCEED?SPEAKER
  +--> ?PR?BUZZFAILED?SPEAKER

?PR?BUZZSUCCEED?SPEAKER                          -----    -----      -----    -----      -----    -----
  +--> ?PR?_BUZZ?SPEAKER

?PR?BUZZFAILED?SPEAKER                           -----    -----      -----    -----      -----    -----
  +--> ?PR?_BUZZ?SPEAKER

*** NEW ROOT ***************************************************

?PR?ABUTTONSCAN?ABSTASK                          -----    -----      -----    -----      -----    -----
  +--> ?PR?BUTTONSCAN?BUTTON

?PR?BUTTONSCAN?BUTTON                            -----    -----      -----    -----      0320H    0002H
  +--> ?PR?GETBUTTONNUM?TM1638

?PR?GETBUTTONNUM?TM1638                          -----    -----      -----    -----      0461H    0006H
  +--> ?CO?TM1638
  +--> ?PR?_SETTM1638WRITE?TM1638
  +--> ?PR?_DELAY_US?DELAY
  +--> ?PR?GETTM1638READ?TM1638

?PR?GETTM1638READ?TM1638                         -----    -----      -----    -----      0467H    0002H
  +--> ?PR?_DELAY_US?DELAY

*** NEW ROOT ***************************************************

?PR?PRINTFBUTTON?ABSTASK                         -----    -----      -----    -----      -----    -----
  +--> ?PR?_GETBUTTONSTATE?BUTTON
  +--> ?CO?ABSTASK
  +--> ?PR?_LCD_PRINTSL?LCD5510_V2
  +--> ?PR?LCD_CLR_SCR?LCD5510_V2

*** NEW ROOT ***************************************************

?PR?PRINTDISTANCE?ABSTASK                        -----    -----      -----    -----      -----    -----
  +--> ?PR?_GETDISTANCE?HC_SR04
  +--> ?PR?_DATASCOPE_GET_CHANNEL_DATA?DATAS...
  +--> ?PR?_SENDSCOPEDATA?DATASCOPE_DP

BL51 BANKED LINKER/LOCATER V6.00                                                      08/07/2017  18:56:55  PAGE 15


*** NEW ROOT ***************************************************

?PR?DISTANCEUPDATA?ABSTASK                       -----    -----      -----    -----      033EH    0085H
  +--> ?PR?_UPDATEDISTANCE?HC_SR04
  +--> ?PR?_GETTIMERVALUE?HC_SR04
  +--> ?PR?_KALMANFILTER?FILTER
  +--> ?PR?_SETDISTANCE?HC_SR04

?PR?_UPDATEDISTANCE?HC_SR04                      -----    -----      -----    -----      -----    -----
  +--> ?PR?_DELAY_US?DELAY

?PR?_KALMANFILTER?FILTER                         -----    -----      -----    -----      03C3H    0028H

?PR?_SETDISTANCE?HC_SR04                         -----    -----      -----    -----      03C3H    0005H

*** NEW ROOT ***************************************************

?PR?DISTANCE?ABSTASK                             -----    -----      -----    -----      03EBH    005DH
  +--> ?PR?_UPDATEDISTANCE?HC_SR04
  +--> ?PR?_GETTIMERVALUE?HC_SR04
  +--> ?PR?_LIMITINGFILTER?FILTER
  +--> ?PR?_SHUDDERINGFILTER?FILTER
  +--> ?PR?_MOVINGAVERAGEFILTER?FILTER
  +--> ?PR?_FILTER?FILTER
  +--> ?PR?_DATASCOPE_GET_CHANNEL_DATA?DATAS...
  +--> ?PR?_SENDSCOPEDATA?DATASCOPE_DP

?PR?_LIMITINGFILTER?FILTER                       -----    -----      -----    -----      0448H    0008H
  +--> ?PR?_FABS?FABS

?PR?_SHUDDERINGFILTER?FILTER                     -----    -----      -----    -----      0448H    0007H
  +--> ?PR?_FABS?FABS

?PR?_MOVINGAVERAGEFILTER?FILTER                  -----    -----      -----    -----      0448H    0009H

?PR?_FILTER?FILTER                               -----    -----      -----    -----      0448H    0019H

*** NEW ROOT ***************************************************

?PR?BUTTONSOUND?ABSTASK                          -----    -----      -----    -----      -----    -----
  +--> ?PR?GETBUTTONNUM?TM1638
  +--> ?PR?BUZZWAIT?SPEAKER

?PR?BUZZWAIT?SPEAKER                             -----    -----      -----    -----      -----    -----
  +--> ?PR?_BUZZ?SPEAKER

*** NEW ROOT ***************************************************

?PR?PULSER_1INT?FIXEDPULSER                      -----    -----      -----    -----      -----    -----
  +--> ?PR?_CLOSEPULSER?FIXEDPULSER

*** NEW ROOT ***************************************************

?PR?PULSER_2INT?FIXEDPULSER                      -----    -----      -----    -----      -----    -----
  +--> ?PR?_CLOSEPULSER?FIXEDPULSER

*** NEW ROOT ***************************************************
BL51 BANKED LINKER/LOCATER V6.00                                                      08/07/2017  18:56:55  PAGE 16



?C_C51STARTUP                                    -----    -----      -----    -----      -----    -----
  +--> ?C_INITSEG



UNRESOLVED EXTERNAL SYMBOLS:
   DS1302_INIT
   DS1302_READ_TIME
   TIME_BUF
   TIME_BUF1



SYMBOL TABLE OF MODULE:  电子大赛程序框架 (ABSTASK)

  VALUE           TYPE          NAME
  ----------------------------------

  -------         MODULE        ABSTASK
  C:0000H         SYMBOL        _ICE_DUMMY_
  D:0080H         PUBLIC        P0
  D:0090H         PUBLIC        P1
  D:00A0H         PUBLIC        P2
  D:00B0H         PUBLIC        P3
  C:6D9BH         PUBLIC        dataUpdate
  D:00C0H         PUBLIC        P4
  D:00C8H         PUBLIC        P5
  D:00E8H         PUBLIC        P6
  D:00F8H         PUBLIC        P7
  C:81BDH         PUBLIC        ButtonSound
  D:00A8H         PUBLIC        IE
  C:6FF2H         PUBLIC        printfButton
  C:7306H         PUBLIC        printAngleData
  D:00B8H         PUBLIC        IP
  D:00D8H         PUBLIC        CCON
  C:7681H         PUBLIC        Buzz
  C:4CA8H         PUBLIC        Distance
  C:5B1CH         PUBLIC        distanceUpdata
  D:0098H         PUBLIC        SCON
  D:0088H         PUBLIC        TCON
  D:00F0H         PUBLIC        B
  C:82A9H         PUBLIC        taskStart
  D:00E0H         PUBLIC        ACC
  C:6A7BH         PUBLIC        printADS1115
  C:7D23H         PUBLIC        printDistance
  C:8437H         PUBLIC        aButtonScan
  D:00D0H         PUBLIC        PSW
  -------         PROC          TASKSTART
  C:82A9H         LINE#         3
  C:82A9H         LINE#         5
  C:82ACH         LINE#         6
  C:82B1H         LINE#         7
  C:82B6H         LINE#         9
  -------         ENDPROC       TASKSTART
  -------         PROC          PRINTANGLEDATA
  C:7306H         LINE#         12
BL51 BANKED LINKER/LOCATER V6.00                                                      08/07/2017  18:56:55  PAGE 17


  C:7306H         LINE#         14
  C:7306H         LINE#         15
  C:7306H         LINE#         16
  C:7315H         LINE#         17
  C:7325H         LINE#         18
  C:7335H         LINE#         19
  C:733AH         LINE#         20
  C:7344H         LINE#         21
  -------         ENDPROC       PRINTANGLEDATA
  -------         PROC          DATAUPDATE
  C:6D9BH         LINE#         23
  C:6D9BH         LINE#         25
  C:6D9BH         LINE#         26
  C:6D9BH         LINE#         27
  C:6DB4H         LINE#         28
  C:6DCFH         LINE#         29
  C:6DEAH         LINE#         30
  C:6DF4H         LINE#         32
  -------         ENDPROC       DATAUPDATE
  -------         PROC          PRINTADS1115
  C:6A7BH         LINE#         35
  C:6A7BH         LINE#         37
  C:6A7BH         LINE#         38
  C:6A7BH         LINE#         39
  C:6A91H         LINE#         40
  C:6AA7H         LINE#         41
  C:6ABDH         LINE#         42
  C:6AD3H         LINE#         43
  C:6AD8H         LINE#         44
  C:6AE2H         LINE#         46
  -------         ENDPROC       PRINTADS1115
  -------         PROC          BUZZ
  C:7681H         LINE#         49
  C:7681H         LINE#         51
  C:7681H         LINE#         52
  C:7681H         LINE#         54
  C:7689H         LINE#         55
  C:7689H         LINE#         56
  C:7694H         LINE#         58
  C:7694H         LINE#         59
  C:769CH         LINE#         60
  C:769CH         LINE#         61
  C:769FH         LINE#         62
  C:769FH         LINE#         63
  C:76A7H         LINE#         64
  C:76A7H         LINE#         65
  C:76AAH         LINE#         66
  C:76AAH         LINE#         67
  C:76B4H         LINE#         68
  -------         ENDPROC       BUZZ
  -------         PROC          ABUTTONSCAN
  C:8437H         LINE#         71
  C:8437H         LINE#         73
  C:8437H         LINE#         74
  C:8437H         LINE#         75
  C:843AH         LINE#         78
  C:8444H         LINE#         80
BL51 BANKED LINKER/LOCATER V6.00                                                      08/07/2017  18:56:55  PAGE 18


  -------         ENDPROC       ABUTTONSCAN
  -------         PROC          PRINTFBUTTON
  C:6FF2H         LINE#         83
  C:6FF2H         LINE#         85
  C:6FF2H         LINE#         86
  C:6FF2H         LINE#         87
  C:6FFAH         LINE#         88
  C:6FFAH         LINE#         89
  C:7007H         LINE#         90
  C:7011H         LINE#         91
  C:7014H         LINE#         93
  C:7014H         LINE#         94
  C:701CH         LINE#         95
  C:701CH         LINE#         96
  C:7029H         LINE#         97
  C:7033H         LINE#         98
  C:7036H         LINE#         100
  C:7036H         LINE#         101
  C:7040H         LINE#         102
  -------         ENDPROC       PRINTFBUTTON
  -------         PROC          PRINTDISTANCE
  C:7D23H         LINE#         104
  C:7D23H         LINE#         106
  C:7D23H         LINE#         107
  C:7D23H         LINE#         108
  C:7D31H         LINE#         110
  C:7D36H         LINE#         111
  C:7D40H         LINE#         112
  -------         ENDPROC       PRINTDISTANCE
  -------         PROC          DISTANCEUPDATA
  -------         DO            
  X:033EH         SYMBOL        time
  X:0342H         SYMBOL        distance
  X:0346H         SYMBOL        i
  X:0347H         SYMBOL        Data
  -------         ENDDO         
  C:5B1CH         LINE#         114
  C:5B1CH         LINE#         116
  C:5B26H         LINE#         117
  C:5B30H         LINE#         119
  C:5B35H         LINE#         121
  C:5B35H         LINE#         122
  C:5B35H         LINE#         124
  C:5B35H         LINE#         125
  C:5B3AH         LINE#         126
  C:5B44H         LINE#         128
  C:5B44H         LINE#         130
  C:5B88H         LINE#         131
  C:5BA7H         LINE#         133
  C:5BCEH         LINE#         135
  C:5BE7H         LINE#         138
  -------         ENDPROC       DISTANCEUPDATA
  -------         PROC          DISTANCE
  -------         DO            
  X:03EBH         SYMBOL        value
  X:03EFH         SYMBOL        actValue
  X:03F3H         SYMBOL        Data
BL51 BANKED LINKER/LOCATER V6.00                                                      08/07/2017  18:56:55  PAGE 19


  X:0447H         SYMBOL        i
  -------         ENDDO         
  C:4CA8H         LINE#         140
  C:4CA8H         LINE#         145
  C:4CADH         LINE#         146
  C:4CADH         LINE#         147
  C:4CADH         LINE#         148
  C:4CB2H         LINE#         149
  C:4CB2H         LINE#         150
  C:4CB7H         LINE#         151
  C:4CC1H         LINE#         152
  C:4CD4H         LINE#         153
  C:4CF5H         LINE#         154
  C:4D12H         LINE#         155
  C:4D29H         LINE#         156
  C:4D4BH         LINE#         157
  C:4D5AH         LINE#         158
  C:4D7FH         LINE#         159
  C:4D96H         LINE#         160
  C:4DADH         LINE#         161
  C:4DD8H         LINE#         162
  C:4E03H         LINE#         163
  C:4E08H         LINE#         165
  C:4E12H         LINE#         167
  -------         ENDPROC       DISTANCE
  -------         PROC          BUTTONSOUND
  C:81BDH         LINE#         169
  C:81BDH         LINE#         171
  C:81BDH         LINE#         172
  C:81BDH         LINE#         173
  C:81C3H         LINE#         174
  C:81C3H         LINE#         175
  C:81C6H         LINE#         176
  C:81C6H         LINE#         177
  C:81D0H         LINE#         178
  -------         ENDPROC       BUTTONSOUND
  -------         ENDMOD        ABSTASK

  -------         MODULE        SETUP
  C:0000H         SYMBOL        _ICE_DUMMY_
  D:0080H         PUBLIC        P0
  D:0090H         PUBLIC        P1
  D:00A0H         PUBLIC        P2
  D:00B0H         PUBLIC        P3
  D:00C0H         PUBLIC        P4
  D:00C8H         PUBLIC        P5
  C:76B6H         PUBLIC        _UART1_init
  D:00E8H         PUBLIC        P6
  D:00F8H         PUBLIC        P7
  D:00A8H         PUBLIC        IE
  D:00B8H         PUBLIC        IP
  D:00D8H         PUBLIC        CCON
  C:6DF6H         PUBLIC        setup
  D:0098H         PUBLIC        SCON
  D:0088H         PUBLIC        TCON
  D:00F0H         PUBLIC        B
  C:6C7AH         PUBLIC        test
BL51 BANKED LINKER/LOCATER V6.00                                                      08/07/2017  18:56:55  PAGE 20


  D:00E0H         PUBLIC        ACC
  D:00D0H         PUBLIC        PSW
  -------         PROC          _UART1_INIT
  D:0004H         SYMBOL        BandRate
  -------         DO            
  X:0290H         SYMBOL        COMx_InitStructure
  -------         ENDDO         
  C:76B6H         LINE#         24
  C:76B6H         LINE#         25
  C:76B6H         LINE#         27
  C:76BCH         LINE#         28
  C:76C0H         LINE#         29
  C:76C4H         LINE#         30
  C:76CAH         LINE#         31
  C:76CDH         LINE#         32
  C:76D0H         LINE#         33
  C:76D2H         LINE#         34
  C:76D5H         LINE#         35
  C:76D7H         LINE#         36
  C:76E2H         LINE#         37
  -------         ENDPROC       _UART1_INIT
  -------         PROC          TEST
  -------         DO            
  D:0007H         SYMBOL        i
  -------         ENDDO         
  C:6C7AH         LINE#         39
  C:6C7AH         LINE#         40
  C:6C7AH         LINE#         41
  C:6C7CH         LINE#         42
  C:6C7FH         LINE#         43
  C:6C88H         LINE#         44
  C:6C88H         LINE#         45
  C:6C88H         LINE#         46
  C:6C93H         LINE#         47
  C:6C95H         LINE#         48
  C:6C95H         LINE#         49
  C:6C95H         LINE#         50
  C:6C95H         LINE#         51
  C:6C98H         LINE#         52
  C:6CD5H         LINE#         53
  C:6CDAH         LINE#         54
  C:6CDAH         LINE#         55
  -------         ENDPROC       TEST
  -------         PROC          SETUP
  C:6DF6H         LINE#         57
  C:6DF6H         LINE#         58
  C:6DF6H         LINE#         60
  C:6E01H         LINE#         61
  C:6E04H         LINE#         62
  C:6E07H         LINE#         63
  C:6E0AH         LINE#         64
  C:6E16H         LINE#         65
  C:6E20H         LINE#         66
  C:6E23H         LINE#         67
  C:6E26H         LINE#         68
  C:6E29H         LINE#         74
  C:6E30H         LINE#         75
BL51 BANKED LINKER/LOCATER V6.00                                                      08/07/2017  18:56:55  PAGE 21


  C:6E33H         LINE#         76
  C:6E36H         LINE#         77
  C:6E3BH         LINE#         78
  C:6E40H         LINE#         79
  C:6E45H         LINE#         80
  C:6E4AH         LINE#         81
  -------         ENDPROC       SETUP
  -------         ENDMOD        SETUP

  -------         MODULE        MODE
  C:0000H         SYMBOL        _ICE_DUMMY_
  D:0080H         PUBLIC        P0
  D:0090H         PUBLIC        P1
  D:00A0H         PUBLIC        P2
  D:00B0H         PUBLIC        P3
  D:00C0H         PUBLIC        P4
  D:00C8H         PUBLIC        P5
  D:00E8H         PUBLIC        P6
  D:00F8H         PUBLIC        P7
  D:00A8H         PUBLIC        IE
  D:00B8H         PUBLIC        IP
  D:00D8H         PUBLIC        CCON
  D:0098H         PUBLIC        SCON
  D:0088H         PUBLIC        TCON
  D:00F0H         PUBLIC        B
  D:00E0H         PUBLIC        ACC
  C:85D3H         PUBLIC        mode1
  C:85D4H         PUBLIC        mode2
  C:85D5H         PUBLIC        mode3
  C:85D6H         PUBLIC        mode4
  C:85D7H         PUBLIC        modeLauncher
  D:00D0H         PUBLIC        PSW
  -------         PROC          MODE1
  C:85D3H         LINE#         2
  C:85D3H         LINE#         3
  C:85D3H         LINE#         5
  -------         ENDPROC       MODE1
  -------         PROC          MODE2
  C:85D4H         LINE#         7
  C:85D4H         LINE#         8
  C:85D4H         LINE#         10
  -------         ENDPROC       MODE2
  -------         PROC          MODE3
  C:85D5H         LINE#         13
  C:85D5H         LINE#         14
  C:85D5H         LINE#         16
  -------         ENDPROC       MODE3
  -------         PROC          MODE4
  C:85D6H         LINE#         18
  C:85D6H         LINE#         19
  C:85D6H         LINE#         21
  -------         ENDPROC       MODE4
  -------         PROC          MODELAUNCHER
  C:85D7H         LINE#         22
  C:85D7H         LINE#         23
  C:85D7H         LINE#         25
  -------         ENDPROC       MODELAUNCHER
BL51 BANKED LINKER/LOCATER V6.00                                                      08/07/2017  18:56:55  PAGE 22


  -------         ENDMOD        MODE

  -------         MODULE        FILTER
  C:0000H         SYMBOL        _ICE_DUMMY_
  D:0080H         PUBLIC        P0
  D:0090H         PUBLIC        P1
  D:00A0H         PUBLIC        P2
  D:00B0H         PUBLIC        P3
  D:00C0H         PUBLIC        P4
  D:00C8H         PUBLIC        P5
  D:00E8H         PUBLIC        P6
  D:00F8H         PUBLIC        P7
  C:42BFH         PUBLIC        _filter
  D:00A8H         PUBLIC        IE
  D:00B8H         PUBLIC        IP
  C:6516H         PUBLIC        _shudderingFilter
  D:00D8H         PUBLIC        CCON
  D:0098H         PUBLIC        SCON
  D:0088H         PUBLIC        TCON
  C:5E29H         PUBLIC        _movingAverageFilter
  D:00F0H         PUBLIC        B
  C:4E15H         PUBLIC        _KalmanFilter
  D:00E0H         PUBLIC        ACC
  C:6C17H         PUBLIC        _limitingFilter
  D:00D0H         PUBLIC        PSW
  -------         PROC          _FILTER
  X:0448H         SYMBOL        ary
  X:044BH         SYMBOL        num
  X:044CH         SYMBOL        MaxValue
  X:0450H         SYMBOL        MinValue
  -------         DO            
  X:0454H         SYMBOL        angleDataloopTemp2
  X:0455H         SYMBOL        finalData
  X:0459H         SYMBOL        maxValue
  X:045DH         SYMBOL        minValue
  -------         ENDDO         
  C:42BFH         LINE#         15
  C:42CDH         LINE#         16
  C:42CDH         LINE#         18
  C:42D7H         LINE#         19
  C:42EBH         LINE#         20
  C:42FFH         LINE#         21
  C:4314H         LINE#         22
  C:4314H         LINE#         23
  C:4342H         LINE#         24
  C:4342H         LINE#         25
  C:4363H         LINE#         26
  C:4363H         LINE#         27
  C:4393H         LINE#         28
  C:4393H         LINE#         29
  C:43B4H         LINE#         30
  C:43B4H         LINE#         31
  C:43E6H         LINE#         32
  C:43EFH         LINE#         33
  C:443DH         LINE#         34
  C:447BH         LINE#         35
  C:4489H         LINE#         36
BL51 BANKED LINKER/LOCATER V6.00                                                      08/07/2017  18:56:55  PAGE 23


  -------         ENDPROC       _FILTER
  -------         PROC          _KALMANFILTER
  X:03C3H         SYMBOL        ResrcData
  X:03C7H         SYMBOL        ProcessNiose_Q
  X:03CBH         SYMBOL        MeasureNoise_R
  X:03CFH         SYMBOL        InitialPrediction
  -------         DO            
  X:03D3H         SYMBOL        R
  X:03D7H         SYMBOL        Q
  X:0473H         SYMBOL        x_last
  X:03DBH         SYMBOL        x_mid
  X:03DFH         SYMBOL        x_now
  X:0477H         SYMBOL        p_last
  X:03E3H         SYMBOL        p_mid
  D:0004H         SYMBOL        p_now
  X:03E7H         SYMBOL        kg
  -------         ENDDO         
  C:4E15H         LINE#         38
  C:4E1BH         LINE#         39
  C:4E1BH         LINE#         40
  C:4E2FH         LINE#         41
  C:4E43H         LINE#         45
  C:4E57H         LINE#         54
  C:4E6BH         LINE#         55
  C:4E90H         LINE#         56
  C:4ECEH         LINE#         57
  C:4F15H         LINE#         59
  C:4F3EH         LINE#         61
  C:4F44H         LINE#         62
  C:4F58H         LINE#         64
  C:4F66H         LINE#         65
  -------         ENDPROC       _KALMANFILTER
  -------         PROC          _LIMITINGFILTER
  X:0448H         SYMBOL        value
  X:044CH         SYMBOL        A
  -------         DO            
  X:047BH         SYMBOL        lastValue
  -------         ENDDO         
  C:6C17H         LINE#         84
  C:6C1DH         LINE#         85
  C:6C1DH         LINE#         87
  C:6C52H         LINE#         88
  C:6C52H         LINE#         89
  C:6C57H         LINE#         90
  C:6C57H         LINE#         92
  C:6C57H         LINE#         94
  C:6C6BH         LINE#         95
  C:6C79H         LINE#         97
  C:6C79H         LINE#         98
  -------         ENDPROC       _LIMITINGFILTER
  -------         PROC          _MOVINGAVERAGEFILTER
  X:0448H         SYMBOL        value
  -------         DO            
  X:047FH         SYMBOL        filter_buf
  X:044CH         SYMBOL        i
  X:044DH         SYMBOL        filter_sum
  -------         ENDDO         
BL51 BANKED LINKER/LOCATER V6.00                                                      08/07/2017  18:56:55  PAGE 24


  C:5E29H         LINE#         116
  C:5E2FH         LINE#         117
  C:5E2FH         LINE#         121
  C:5E39H         LINE#         122
  C:5E4DH         LINE#         123
  C:5E5CH         LINE#         124
  C:5E88H         LINE#         125
  C:5EBCH         LINE#         126
  C:5EC4H         LINE#         127
  C:5EDCH         LINE#         128
  -------         ENDPROC       _MOVINGAVERAGEFILTER
  -------         PROC          _SHUDDERINGFILTER
  D:0004H         SYMBOL        value
  X:044CH         SYMBOL        filter_n
  -------         DO            
  X:0613H         SYMBOL        i
  X:0615H         SYMBOL        lastValue
  X:044DH         SYMBOL        newValue
  -------         ENDDO         
  C:6516H         LINE#         154
  C:6516H         LINE#         155
  C:6516H         LINE#         160
  C:6521H         LINE#         161
  C:6551H         LINE#         162
  C:6551H         LINE#         163
  C:655FH         LINE#         164
  C:6572H         LINE#         165
  C:6576H         LINE#         166
  C:6588H         LINE#         167
  C:6588H         LINE#         168
  C:658AH         LINE#         170
  C:658AH         LINE#         171
  C:6591H         LINE#         172
  C:6591H         LINE#         173
  C:659FH         LINE#         175
  -------         ENDPROC       _SHUDDERINGFILTER
  -------         ENDMOD        FILTER

  -------         MODULE        PID
  C:0000H         SYMBOL        _ICE_DUMMY_
  D:0080H         PUBLIC        P0
  D:0090H         PUBLIC        P1
  D:00A0H         PUBLIC        P2
  C:7B9AH         PUBLIC        _setKi
  D:00B0H         PUBLIC        P3
  C:7FC2H         PUBLIC        _getErrLast
  C:7C1EH         PUBLIC        _setMaxError
  D:00C0H         PUBLIC        P4
  D:00C8H         PUBLIC        P5
  D:00E8H         PUBLIC        P6
  D:00F8H         PUBLIC        P7
  C:7B58H         PUBLIC        _setParameterUpperLimit
  C:7BBBH         PUBLIC        _setKp
  C:723AH         PUBLIC        _PosClassPID
  D:00A8H         PUBLIC        IE
  C:82BBH         PUBLIC        _openPID
  C:3F0FH         PUBLIC        _Position_PID
BL51 BANKED LINKER/LOCATER V6.00                                                      08/07/2017  18:56:55  PAGE 25


  D:00B8H         PUBLIC        IP
  D:00D8H         PUBLIC        CCON
  C:26EBH         PUBLIC        _Anti_Windup_PID
  D:0098H         PUBLIC        SCON
  D:0088H         PUBLIC        TCON
  C:464EH         PUBLIC        _Incremental_PID
  C:4F67H         PUBLIC        _PID_config
  C:3CC9H         PUBLIC        _Integral_Separa_PID
  C:7B37H         PUBLIC        _setParameterInferiorLimit
  D:00F0H         PUBLIC        B
  D:00E0H         PUBLIC        ACC
  C:7B79H         PUBLIC        _setActualParameter
  C:802AH         PUBLIC        _getOutput
  C:230AH         PUBLIC        _Trapezoidal_Integral_PID
  X:06BCH         SYMBOL        g_pid_n_info
  C:7F8EH         PUBLIC        _getParameter
  C:7FA8H         PUBLIC        _getErr
  C:8010H         PUBLIC        _getKd
  C:812EH         PUBLIC        _IncClassPID
  C:7BFDH         PUBLIC        _setParameter
  C:7FF6H         PUBLIC        _getKi
  C:834BH         PUBLIC        _closePID
  D:00D0H         PUBLIC        PSW
  C:8044H         PUBLIC        _getIntegral
  C:7FDCH         PUBLIC        _getKp
  C:7BDCH         PUBLIC        _setKd
  -------         PROC          _PID_CONFIG
  D:0003H         SYMBOL        PID_N
  X:09B0H         SYMBOL        kp
  X:09B4H         SYMBOL        ki
  X:09B8H         SYMBOL        kd
  C:4F67H         LINE#         53
  C:4F69H         LINE#         54
  C:4F69H         LINE#         55
  C:4F7EH         LINE#         56
  C:4F93H         LINE#         57
  C:4FA8H         LINE#         58
  C:4FBDH         LINE#         59
  C:4FD2H         LINE#         60
  C:4FF1H         LINE#         61
  C:5010H         LINE#         62
  C:502FH         LINE#         63
  C:5059H         LINE#         64
  C:5083H         LINE#         65
  -------         ENDPROC       _PID_CONFIG
  -------         PROC          _OPENPID
  D:0007H         SYMBOL        PID_N
  C:82BBH         LINE#         76
  C:82BBH         LINE#         77
  C:82BBH         LINE#         78
  C:82CCH         LINE#         80
  -------         ENDPROC       _OPENPID
  -------         PROC          _CLOSEPID
  D:0007H         SYMBOL        PID_N
  C:834BH         LINE#         90
  C:834BH         LINE#         91
  C:834BH         LINE#         92
BL51 BANKED LINKER/LOCATER V6.00                                                      08/07/2017  18:56:55  PAGE 26


  C:835BH         LINE#         95
  -------         ENDPROC       _CLOSEPID
  -------         PROC          _POSITION_PID
  X:0A95H         SYMBOL        PID_N
  C:3F0FH         LINE#         105
  C:3F14H         LINE#         106
  C:3F14H         LINE#         107
  C:3F27H         LINE#         108
  C:3F27H         LINE#         109
  C:3F75H         LINE#         110
  C:3FB8H         LINE#         111
  C:40BDH         LINE#         114
  C:40E7H         LINE#         115
  C:40E9H         LINE#         116
  C:40E9H         LINE#         117
  C:40EAH         LINE#         118
  -------         ENDPROC       _POSITION_PID
  -------         PROC          _INTEGRAL_SEPARA_PID
  X:0A77H         SYMBOL        PID_N
  -------         DO            
  X:0A78H         SYMBOL        multiple
  -------         ENDDO         
  C:3CC9H         LINE#         128
  C:3CCEH         LINE#         129
  C:3CCEH         LINE#         131
  C:3D19H         LINE#         132
  C:3D2DH         LINE#         133
  C:3D2DH         LINE#         134
  C:3D66H         LINE#         135
  C:3D66H         LINE#         136
  C:3D6DH         LINE#         137
  C:3D6FH         LINE#         139
  C:3D6FH         LINE#         140
  C:3D77H         LINE#         141
  C:3DBDH         LINE#         142
  C:3DBDH         LINE#         144
  C:3EE1H         LINE#         147
  C:3F0BH         LINE#         148
  C:3F0DH         LINE#         149
  C:3F0DH         LINE#         150
  C:3F0EH         LINE#         151
  -------         ENDPROC       _INTEGRAL_SEPARA_PID
  -------         PROC          _ANTI_WINDUP_PID
  X:0A7AH         SYMBOL        PID_N
  -------         DO            
  X:0A7BH         SYMBOL        multiple
  -------         ENDDO         
  C:26EBH         LINE#         161
  C:26F0H         LINE#         162
  C:26F0H         LINE#         164
  C:273BH         LINE#         165
  C:274FH         LINE#         166
  C:274FH         LINE#         167
  C:278BH         LINE#         168
  C:278BH         LINE#         169
  C:27D6H         LINE#         170
  C:27D6H         LINE#         171
BL51 BANKED LINKER/LOCATER V6.00                                                      08/07/2017  18:56:55  PAGE 27


  C:27D6H         LINE#         172
  C:27D9H         LINE#         174
  C:27D9H         LINE#         175
  C:27E1H         LINE#         176
  C:280CH         LINE#         177
  C:280CH         LINE#         178
  C:280CH         LINE#         179
  C:280CH         LINE#         180
  C:280CH         LINE#         181
  C:280FH         LINE#         182
  C:284FH         LINE#         183
  C:284FH         LINE#         184
  C:289AH         LINE#         185
  C:289AH         LINE#         186
  C:289AH         LINE#         187
  C:289CH         LINE#         189
  C:289CH         LINE#         190
  C:28A4H         LINE#         191
  C:28CDH         LINE#         192
  C:28CDH         LINE#         193
  C:28CDH         LINE#         194
  C:28CDH         LINE#         195
  C:28CDH         LINE#         196
  C:28CFH         LINE#         198
  C:28CFH         LINE#         199
  C:291AH         LINE#         200
  C:291AH         LINE#         201
  C:2921H         LINE#         202
  C:2923H         LINE#         204
  C:2923H         LINE#         205
  C:292BH         LINE#         206
  C:2971H         LINE#         207
  C:2971H         LINE#         208
  C:2971H         LINE#         210
  C:2A95H         LINE#         213
  C:2ABFH         LINE#         214
  C:2AC1H         LINE#         215
  C:2AC1H         LINE#         216
  C:2AC2H         LINE#         217
  -------         ENDPROC       _ANTI_WINDUP_PID
  -------         PROC          _TRAPEZOIDAL_INTEGRAL_PID
  X:0A7DH         SYMBOL        PID_N
  -------         DO            
  X:0A7EH         SYMBOL        multiple
  -------         ENDDO         
  C:230AH         LINE#         227
  C:230FH         LINE#         228
  C:230FH         LINE#         230
  C:235AH         LINE#         231
  C:236EH         LINE#         232
  C:236EH         LINE#         233
  C:23AAH         LINE#         234
  C:23AAH         LINE#         235
  C:23F5H         LINE#         236
  C:23F5H         LINE#         237
  C:23F5H         LINE#         238
  C:23F8H         LINE#         240
BL51 BANKED LINKER/LOCATER V6.00                                                      08/07/2017  18:56:55  PAGE 28


  C:23F8H         LINE#         241
  C:2400H         LINE#         242
  C:242BH         LINE#         243
  C:242BH         LINE#         244
  C:242BH         LINE#         245
  C:242BH         LINE#         246
  C:242BH         LINE#         247
  C:242EH         LINE#         248
  C:246EH         LINE#         249
  C:246EH         LINE#         250
  C:24B9H         LINE#         251
  C:24B9H         LINE#         252
  C:24B9H         LINE#         253
  C:24BBH         LINE#         255
  C:24BBH         LINE#         256
  C:24C3H         LINE#         257
  C:24ECH         LINE#         258
  C:24ECH         LINE#         259
  C:24ECH         LINE#         260
  C:24ECH         LINE#         261
  C:24ECH         LINE#         262
  C:24EEH         LINE#         264
  C:24EEH         LINE#         265
  C:2539H         LINE#         266
  C:2539H         LINE#         267
  C:2540H         LINE#         268
  C:2542H         LINE#         270
  C:2542H         LINE#         271
  C:254AH         LINE#         272
  C:2590H         LINE#         273
  C:2590H         LINE#         274
  C:2590H         LINE#         276
  C:26BDH         LINE#         279
  C:26E7H         LINE#         280
  C:26E9H         LINE#         281
  C:26E9H         LINE#         282
  C:26EAH         LINE#         283
  -------         ENDPROC       _TRAPEZOIDAL_INTEGRAL_PID
  -------         PROC          _INCREMENTAL_PID
  X:0A96H         SYMBOL        PID_N
  C:464EH         LINE#         293
  C:4653H         LINE#         294
  C:4653H         LINE#         295
  C:4666H         LINE#         296
  C:4666H         LINE#         297
  C:46B4H         LINE#         298
  C:4796H         LINE#         301
  C:47C0H         LINE#         302
  C:47EAH         LINE#         303
  C:47ECH         LINE#         304
  C:47ECH         LINE#         305
  C:47EDH         LINE#         306
  -------         ENDPROC       _INCREMENTAL_PID
  -------         PROC          _SETPARAMETERINFERIORLIMIT
  D:0003H         SYMBOL        PID_N
  X:0A30H         SYMBOL        value
  C:7B37H         LINE#         317
BL51 BANKED LINKER/LOCATER V6.00                                                      08/07/2017  18:56:55  PAGE 29


  C:7B39H         LINE#         318
  C:7B39H         LINE#         319
  -------         ENDPROC       _SETPARAMETERINFERIORLIMIT
  -------         PROC          _SETPARAMETERUPPERLIMIT
  D:0003H         SYMBOL        PID_N
  X:0A35H         SYMBOL        value
  C:7B58H         LINE#         331
  C:7B5AH         LINE#         332
  C:7B5AH         LINE#         333
  -------         ENDPROC       _SETPARAMETERUPPERLIMIT
  -------         PROC          _SETACTUALPARAMETER
  D:0003H         SYMBOL        PID_N
  X:0A3AH         SYMBOL        value
  C:7B79H         LINE#         346
  C:7B7BH         LINE#         347
  C:7B7BH         LINE#         348
  -------         ENDPROC       _SETACTUALPARAMETER
  -------         PROC          _SETKI
  D:0003H         SYMBOL        PID_N
  X:0A3FH         SYMBOL        value
  C:7B9AH         LINE#         361
  C:7B9CH         LINE#         362
  C:7B9CH         LINE#         363
  -------         ENDPROC       _SETKI
  -------         PROC          _SETKP
  D:0003H         SYMBOL        PID_N
  X:0A44H         SYMBOL        value
  C:7BBBH         LINE#         375
  C:7BBDH         LINE#         376
  C:7BBDH         LINE#         377
  -------         ENDPROC       _SETKP
  -------         PROC          _SETKD
  D:0003H         SYMBOL        PID_N
  X:0A49H         SYMBOL        value
  C:7BDCH         LINE#         389
  C:7BDEH         LINE#         390
  C:7BDEH         LINE#         391
  -------         ENDPROC       _SETKD
  -------         PROC          _SETPARAMETER
  D:0003H         SYMBOL        PID_N
  X:0A4EH         SYMBOL        value
  C:7BFDH         LINE#         403
  C:7BFFH         LINE#         404
  C:7BFFH         LINE#         405
  -------         ENDPROC       _SETPARAMETER
  -------         PROC          _GETPARAMETER
  D:0007H         SYMBOL        PID_N
  C:7F8EH         LINE#         417
  C:7F8EH         LINE#         418
  C:7F8EH         LINE#         419
  C:7FA7H         LINE#         420
  -------         ENDPROC       _GETPARAMETER
  -------         PROC          _GETERR
  D:0007H         SYMBOL        PID_N
  C:7FA8H         LINE#         430
  C:7FA8H         LINE#         431
  C:7FA8H         LINE#         432
BL51 BANKED LINKER/LOCATER V6.00                                                      08/07/2017  18:56:55  PAGE 30


  C:7FC1H         LINE#         433
  -------         ENDPROC       _GETERR
  -------         PROC          _GETERRLAST
  D:0007H         SYMBOL        PID_N
  C:7FC2H         LINE#         443
  C:7FC2H         LINE#         444
  C:7FC2H         LINE#         445
  C:7FDBH         LINE#         446
  -------         ENDPROC       _GETERRLAST
  -------         PROC          _GETKP
  D:0007H         SYMBOL        PID_N
  C:7FDCH         LINE#         456
  C:7FDCH         LINE#         457
  C:7FDCH         LINE#         458
  C:7FF5H         LINE#         459
  -------         ENDPROC       _GETKP
  -------         PROC          _GETKI
  D:0007H         SYMBOL        PID_N
  C:7FF6H         LINE#         469
  C:7FF6H         LINE#         470
  C:7FF6H         LINE#         471
  C:800FH         LINE#         472
  -------         ENDPROC       _GETKI
  -------         PROC          _GETKD
  D:0007H         SYMBOL        PID_N
  C:8010H         LINE#         482
  C:8010H         LINE#         483
  C:8010H         LINE#         484
  C:8029H         LINE#         485
  -------         ENDPROC       _GETKD
  -------         PROC          _GETOUTPUT
  D:0007H         SYMBOL        PID_N
  C:802AH         LINE#         495
  C:802AH         LINE#         496
  C:802AH         LINE#         497
  C:8043H         LINE#         498
  -------         ENDPROC       _GETOUTPUT
  -------         PROC          _GETINTEGRAL
  D:0007H         SYMBOL        PID_N
  C:8044H         LINE#         508
  C:8044H         LINE#         509
  C:8044H         LINE#         510
  C:805DH         LINE#         511
  -------         ENDPROC       _GETINTEGRAL
  -------         PROC          _SETMAXERROR
  D:0003H         SYMBOL        PID_N
  X:0A53H         SYMBOL        err_max
  C:7C1EH         LINE#         521
  C:7C20H         LINE#         522
  C:7C20H         LINE#         523
  -------         ENDPROC       _SETMAXERROR
  -------         PROC          _POSCLASSPID
  X:0A97H         SYMBOL        PID_N
  D:0005H         SYMBOL        PID_MODE
  C:723AH         LINE#         535
  C:723FH         LINE#         536
  C:723FH         LINE#         537
BL51 BANKED LINKER/LOCATER V6.00                                                      08/07/2017  18:56:55  PAGE 31


  C:724FH         LINE#         538
  C:724FH         LINE#         539
  C:725EH         LINE#         540
  C:725EH         LINE#         541
  C:725EH         LINE#         542
  C:7266H         LINE#         543
  C:7266H         LINE#         544
  C:7266H         LINE#         545
  C:726EH         LINE#         546
  C:726EH         LINE#         547
  C:726EH         LINE#         548
  C:7276H         LINE#         549
  C:7276H         LINE#         550
  C:7276H         LINE#         551
  C:727EH         LINE#         552
  C:727EH         LINE#         553
  C:727EH         LINE#         554
  C:727EH         LINE#         555
  -------         ENDPROC       _POSCLASSPID
  -------         PROC          _INCCLASSPID
  D:0007H         SYMBOL        PID_N
  D:0005H         SYMBOL        PID_MODE
  C:812EH         LINE#         566
  C:812EH         LINE#         567
  C:812EH         LINE#         568
  C:813FH         LINE#         569
  C:813FH         LINE#         570
  C:8143H         LINE#         571
  C:8143H         LINE#         572
  C:8143H         LINE#         573
  C:8146H         LINE#         574
  C:8146H         LINE#         575
  C:8146H         LINE#         576
  C:8146H         LINE#         577
  -------         ENDPROC       _INCCLASSPID
  -------         ENDMOD        PID

  -------         MODULE        DATASCOPE_DP
  C:0000H         SYMBOL        _ICE_DUMMY_
  D:0080H         PUBLIC        P0
  D:0090H         PUBLIC        P1
  D:00A0H         PUBLIC        P2
  D:00B0H         PUBLIC        P3
  D:00C0H         PUBLIC        P4
  D:00C8H         PUBLIC        P5
  D:00E8H         PUBLIC        P6
  D:00F8H         PUBLIC        P7
  X:0845H         PUBLIC        DataScope_OutPut_Buffer
  D:00A8H         PUBLIC        IE
  D:00B8H         PUBLIC        IP
  D:00D8H         PUBLIC        CCON
  C:77B7H         PUBLIC        _sendScopeData
  D:0098H         PUBLIC        SCON
  D:0088H         PUBLIC        TCON
  D:00F0H         PUBLIC        B
  C:603AH         PUBLIC        _Float2Byte
  D:00E0H         PUBLIC        ACC
BL51 BANKED LINKER/LOCATER V6.00                                                      08/07/2017  18:56:55  PAGE 32


  C:60E4H         PUBLIC        _DataScope_Data_Generate
  C:5463H         PUBLIC        _DataScope_Get_Channel_Data
  D:00D0H         PUBLIC        PSW
  -------         PROC          _FLOAT2BYTE
  D:0001H         SYMBOL        target
  X:0450H         SYMBOL        buf
  X:0453H         SYMBOL        beg
  -------         DO            
  X:0454H         SYMBOL        point
  -------         ENDDO         
  C:603AH         LINE#         26
  C:603AH         LINE#         27
  C:603AH         LINE#         29
  C:6045H         LINE#         30
  C:6063H         LINE#         31
  C:608FH         LINE#         32
  C:60BBH         LINE#         33
  -------         ENDPROC       _FLOAT2BYTE
  -------         PROC          _SENDSCOPEDATA
  X:0448H         SYMBOL        channe_num
  -------         DO            
  X:0449H         SYMBOL        a
  -------         ENDDO         
  C:77B7H         LINE#         43
  C:77BCH         LINE#         44
  C:77BCH         LINE#         48
  C:77D0H         LINE#         49
  C:77D0H         LINE#         50
  C:77DFH         LINE#         51
  C:77E7H         LINE#         53
  -------         ENDPROC       _SENDSCOPEDATA
  -------         PROC          _DATASCOPE_GET_CHANNEL_DATA
  X:0448H         SYMBOL        Data
  X:044CH         SYMBOL        Channel
  C:5463H         LINE#         59
  C:5469H         LINE#         60
  C:5469H         LINE#         61
  C:547CH         LINE#         62
  C:547CH         LINE#         64
  C:547CH         LINE#         66
  C:547CH         LINE#         67
  C:54B2H         LINE#         68
  C:54B2H         LINE#         69
  C:54B2H         LINE#         70
  C:54C5H         LINE#         71
  C:54C8H         LINE#         72
  C:54C8H         LINE#         73
  C:54DCH         LINE#         74
  C:54DFH         LINE#         75
  C:54DFH         LINE#         76
  C:54F3H         LINE#         77
  C:54F6H         LINE#         78
  C:54F6H         LINE#         79
  C:550AH         LINE#         80
  C:550DH         LINE#         81
  C:550DH         LINE#         82
  C:5521H         LINE#         83
BL51 BANKED LINKER/LOCATER V6.00                                                      08/07/2017  18:56:55  PAGE 33


  C:5523H         LINE#         84
  C:5523H         LINE#         85
  C:5537H         LINE#         86
  C:5539H         LINE#         87
  C:5539H         LINE#         88
  C:554DH         LINE#         89
  C:554FH         LINE#         90
  C:554FH         LINE#         91
  C:5563H         LINE#         92
  C:5565H         LINE#         93
  C:5565H         LINE#         94
  C:5579H         LINE#         95
  C:557BH         LINE#         96
  C:557BH         LINE#         97
  C:5596H         LINE#         98
  C:5596H         LINE#         99
  C:5596H         LINE#         100
  C:5596H         LINE#         101
  -------         ENDPROC       _DATASCOPE_GET_CHANNEL_DATA
  -------         PROC          _DATASCOPE_DATA_GENERATE
  D:0007H         SYMBOL        Channel_Number
  C:60E4H         LINE#         106
  C:60E4H         LINE#         107
  C:60E4H         LINE#         108
  C:60EDH         LINE#         109
  C:60EDH         LINE#         110
  C:60F0H         LINE#         111
  C:60F0H         LINE#         113
  C:60F0H         LINE#         114
  C:60F6H         LINE#         115
  C:612CH         LINE#         116
  C:612CH         LINE#         117
  C:612CH         LINE#         118
  C:6132H         LINE#         119
  C:6135H         LINE#         120
  C:6135H         LINE#         121
  C:6135H         LINE#         122
  C:613BH         LINE#         123
  C:613EH         LINE#         124
  C:613EH         LINE#         125
  C:613EH         LINE#         126
  C:6144H         LINE#         127
  C:6147H         LINE#         128
  C:6147H         LINE#         129
  C:6147H         LINE#         130
  C:614DH         LINE#         131
  C:6150H         LINE#         132
  C:6150H         LINE#         133
  C:6150H         LINE#         134
  C:6156H         LINE#         135
  C:6159H         LINE#         136
  C:6159H         LINE#         137
  C:6159H         LINE#         138
  C:615FH         LINE#         139
  C:6162H         LINE#         140
  C:6162H         LINE#         141
  C:6162H         LINE#         142
BL51 BANKED LINKER/LOCATER V6.00                                                      08/07/2017  18:56:55  PAGE 34


  C:6168H         LINE#         143
  C:616BH         LINE#         144
  C:616BH         LINE#         145
  C:616BH         LINE#         146
  C:6171H         LINE#         147
  C:6174H         LINE#         148
  C:6174H         LINE#         149
  C:6174H         LINE#         150
  C:617AH         LINE#         151
  C:617DH         LINE#         152
  C:617DH         LINE#         153
  C:617DH         LINE#         154
  C:6183H         LINE#         155
  C:6186H         LINE#         156
  C:6186H         LINE#         157
  C:6186H         LINE#         158
  C:6186H         LINE#         159
  C:6188H         LINE#         160
  -------         ENDPROC       _DATASCOPE_DATA_GENERATE
  -------         ENDMOD        DATASCOPE_DP

  -------         MODULE        BUTTON
  C:0000H         SYMBOL        _ICE_DUMMY_
  D:0080H         PUBLIC        P0
  D:0090H         PUBLIC        P1
  D:00A0H         PUBLIC        P2
  D:00B0H         PUBLIC        P3
  D:00C0H         PUBLIC        P4
  D:00C8H         PUBLIC        P5
  D:00E8H         PUBLIC        P6
  D:00F8H         PUBLIC        P7
  D:00A8H         PUBLIC        IE
  D:00B8H         PUBLIC        IP
  D:00D8H         PUBLIC        CCON
  C:75DDH         PUBLIC        buttonScan
  D:0098H         PUBLIC        SCON
  D:0088H         PUBLIC        TCON
  D:00F0H         PUBLIC        B
  X:0973H         SYMBOL        g_Button
  C:7F58H         PUBLIC        _getButtonState
  D:00E0H         PUBLIC        ACC
  C:8179H         PUBLIC        Button_config
  D:00D0H         PUBLIC        PSW
  -------         PROC          BUTTON_CONFIG
  -------         DO            
  X:0290H         SYMBOL        GPIO_InitStructure
  -------         ENDDO         
  C:8179H         LINE#         24
  C:8179H         LINE#         25
  C:8179H         LINE#         27
  C:817EH         LINE#         28
  C:8182H         LINE#         29
  C:818DH         LINE#         30
  -------         ENDPROC       BUTTON_CONFIG
  -------         PROC          _GETBUTTONSTATE
  D:0007H         SYMBOL        BUTTON_data
  -------         DO            
BL51 BANKED LINKER/LOCATER V6.00                                                      08/07/2017  18:56:55  PAGE 35


  D:0006H         SYMBOL        ButtonState
  -------         ENDDO         
  C:7F58H         LINE#         40
  C:7F58H         LINE#         41
  C:7F58H         LINE#         43
  C:7F64H         LINE#         44
  C:7F70H         LINE#         45
  C:7F72H         LINE#         46
  -------         ENDPROC       _GETBUTTONSTATE
  -------         PROC          BUTTONSCAN
  -------         DO            
  X:0320H         SYMBOL        i
  X:0321H         SYMBOL        num
  -------         ENDDO         
  C:75DDH         LINE#         57
  C:75DDH         LINE#         58
  C:75DDH         LINE#         60
  C:75E5H         LINE#         61
  C:75EAH         LINE#         62
  C:75EAH         LINE#         63
  C:75F7H         LINE#         64
  C:75FDH         LINE#         65
  C:75FDH         LINE#         66
  C:7605H         LINE#         67
  C:7605H         LINE#         69
  C:7605H         LINE#         70
  C:7614H         LINE#         71
  C:7614H         LINE#         72
  C:7614H         LINE#         73
  -------         ENDPROC       BUTTONSCAN
  -------         ENDMOD        BUTTON

  -------         MODULE        LCD5510_V2
  C:0000H         SYMBOL        _ICE_DUMMY_
  D:0080H         PUBLIC        P0
  D:0090H         PUBLIC        P1
  D:00A0H         PUBLIC        P2
  D:00B0H         PUBLIC        P3
  D:00C0H         PUBLIC        P4
  D:00C8H         PUBLIC        P5
  D:00E8H         PUBLIC        P6
  D:00F8H         PUBLIC        P7
  D:00A8H         PUBLIC        IE
  B:00C8H.4       PUBLIC        LCD_CLK
  B:00C8H.3       PUBLIC        LCD_DIN
  C:3819H         PUBLIC        Font_code
  C:72C3H         PUBLIC        LCD5510_Init
  D:00B8H         PUBLIC        IP
  C:81E7H         PUBLIC        _LCD_pos_byte
  C:7C3FH         PUBLIC        LCD_clr_scr
  D:00D8H         PUBLIC        CCON
  B:00C8H.0       PUBLIC        LCD_RST
  C:824AH         PUBLIC        _LCD_clr_row
  D:0098H         PUBLIC        SCON
  D:0088H         PUBLIC        TCON
  B:00C8H.2       PUBLIC        LCD_DC
  C:69A0H         PUBLIC        _LCD_printNum_F
BL51 BANKED LINKER/LOCATER V6.00                                                      08/07/2017  18:56:55  PAGE 36


  C:6B4DH         PUBLIC        _LCD_printNum_I
  D:00F0H         PUBLIC        B
  C:6EAFH         PUBLIC        _LCD_printsl
  D:00E0H         PUBLIC        ACC
  C:740BH         PUBLIC        _LCD_printc
  B:00C8H.1       PUBLIC        LCD_CS
  C:74B9H         PUBLIC        _LCD_prints
  C:7CC3H         PUBLIC        _LCD_write_byte
  D:00D0H         PUBLIC        PSW
  -------         PROC          _LCD_WRITE_BYTE
  D:0007H         SYMBOL        wbyte
  D:0005H         SYMBOL        dat_cmd
  -------         DO            
  D:0006H         SYMBOL        i
  -------         ENDDO         
  C:7CC3H         LINE#         111
  C:7CC3H         LINE#         112
  C:7CC3H         LINE#         115
  C:7CC5H         LINE#         116
  C:7CCAH         LINE#         118
  C:7CCCH         LINE#         119
  C:7CCCH         LINE#         120
  C:7CD4H         LINE#         121
  C:7CD6H         LINE#         123
  C:7CD8H         LINE#         124
  C:7CDCH         LINE#         125
  C:7CDEH         LINE#         126
  C:7CE0H         LINE#         128
  C:7CE2H         LINE#         129
  -------         ENDPROC       _LCD_WRITE_BYTE
  -------         PROC          LCD_CLR_SCR
  -------         DO            
  D:0002H         SYMBOL        i
  -------         ENDDO         
  C:7C3FH         LINE#         164
  C:7C3FH         LINE#         165
  C:7C3FH         LINE#         168
  C:7C46H         LINE#         169
  C:7C4BH         LINE#         171
  C:7C5FH         LINE#         172
  -------         ENDPROC       LCD_CLR_SCR
  -------         PROC          _LCD_CLR_ROW
  D:0007H         SYMBOL        num
  -------         DO            
  D:0004H         SYMBOL        i
  -------         ENDDO         
  C:824AH         LINE#         178
  C:824AH         LINE#         179
  C:824AH         LINE#         182
  C:8251H         LINE#         183
  C:825CH         LINE#         184
  -------         ENDPROC       _LCD_CLR_ROW
  -------         PROC          _LCD_POS_BYTE
  D:0007H         SYMBOL        x
  D:0004H         SYMBOL        y
  C:81E7H         LINE#         192
  C:81E9H         LINE#         193
BL51 BANKED LINKER/LOCATER V6.00                                                      08/07/2017  18:56:55  PAGE 37


  C:81E9H         LINE#         194
  C:81EDH         LINE#         195
  C:81F1H         LINE#         196
  C:81F6H         LINE#         197
  -------         ENDPROC       _LCD_POS_BYTE
  -------         PROC          L?0033
  -------         ENDPROC       L?0033
  -------         PROC          _LCD_PRINTC
  D:0007H         SYMBOL        x
  D:0005H         SYMBOL        y
  D:0003H         SYMBOL        c_dat
  -------         DO            
  D:0004H         SYMBOL        i
  -------         ENDDO         
  C:740BH         LINE#         205
  C:740BH         LINE#         206
  C:740BH         LINE#         209
  C:740FH         LINE#         210
  C:7415H         LINE#         212
  C:7418H         LINE#         213
  C:7440H         LINE#         214
  -------         ENDPROC       _LCD_PRINTC
  -------         PROC          _LCD_PRINTS
  X:0A57H         SYMBOL        x
  X:0A58H         SYMBOL        y
  X:0A59H         SYMBOL        s_dat
  C:74B9H         LINE#         221
  C:74CAH         LINE#         222
  C:74CAH         LINE#         223
  C:74F3H         LINE#         224
  -------         ENDPROC       _LCD_PRINTS
  -------         PROC          L?0032
  -------         ENDPROC       L?0032
  -------         PROC          _LCD_PRINTSL
  X:032AH         SYMBOL        x
  X:032BH         SYMBOL        y
  X:032CH         SYMBOL        s_dat
  C:6EAFH         LINE#         231
  C:6EC0H         LINE#         232
  C:6EC0H         LINE#         233
  C:6ED1H         LINE#         234
  C:6ED1H         LINE#         235
  C:6ED7H         LINE#         236
  C:6EE1H         LINE#         237
  C:6EEEH         LINE#         238
  C:6EF7H         LINE#         239
  C:6EF9H         LINE#         240
  -------         ENDPROC       _LCD_PRINTSL
  -------         PROC          _LCD_PRINTNUM_I
  X:02C0H         SYMBOL        x
  X:02C1H         SYMBOL        y
  X:02C2H         SYMBOL        num
  X:02C4H         SYMBOL        numLength
  -------         DO            
  X:02C5H         SYMBOL        str
  -------         ENDDO         
  C:6B4DH         LINE#         241
BL51 BANKED LINKER/LOCATER V6.00                                                      08/07/2017  18:56:55  PAGE 38


  C:6B5BH         LINE#         242
  C:6B5BH         LINE#         243
  C:6B77H         LINE#         245
  C:6B97H         LINE#         246
  C:6BA4H         LINE#         247
  -------         ENDPROC       _LCD_PRINTNUM_I
  -------         PROC          _LCD_PRINTNUM_F
  X:09BCH         SYMBOL        x
  X:09BDH         SYMBOL        y
  X:09BEH         SYMBOL        num
  X:09C2H         SYMBOL        numLength
  X:09C3H         SYMBOL        accuracy
  -------         DO            
  X:09C4H         SYMBOL        str
  -------         ENDDO         
  C:69A0H         LINE#         249
  C:69A8H         LINE#         250
  C:69A8H         LINE#         251
  C:69D0H         LINE#         253
  C:69F5H         LINE#         254
  C:6A02H         LINE#         255
  -------         ENDPROC       _LCD_PRINTNUM_F
  -------         PROC          LCD5510_INIT
  -------         DO            
  X:0290H         SYMBOL        GPIO_InitStructure
  -------         ENDDO         
  C:72C3H         LINE#         278
  C:72C3H         LINE#         279
  C:72C3H         LINE#         281
  C:72C8H         LINE#         282
  C:72CBH         LINE#         283
  C:72D5H         LINE#         284
  C:72D9H         LINE#         287
  C:72E0H         LINE#         288
  C:72E5H         LINE#         289
  C:72EAH         LINE#         290
  C:72EFH         LINE#         292
  C:72F4H         LINE#         293
  C:72F9H         LINE#         294
  C:72FEH         LINE#         295
  C:7303H         LINE#         296
  -------         ENDPROC       LCD5510_INIT
  -------         ENDMOD        LCD5510_V2

  -------         MODULE        LED
  C:0000H         SYMBOL        _ICE_DUMMY_
  D:0080H         PUBLIC        P0
  D:0090H         PUBLIC        P1
  D:00A0H         PUBLIC        P2
  D:00B0H         PUBLIC        P3
  D:00C0H         PUBLIC        P4
  D:00C8H         PUBLIC        P5
  B:0022H.7       SYMBOL        Board_LED_State
  D:00E8H         PUBLIC        P6
  D:00F8H         PUBLIC        P7
  D:00A8H         PUBLIC        IE
  C:7B15H         PUBLIC        _blink
BL51 BANKED LINKER/LOCATER V6.00                                                      08/07/2017  18:56:55  PAGE 39


  C:78FCH         PUBLIC        Board_LED_Init
  D:00B8H         PUBLIC        IP
  C:85B6H         PUBLIC        close_Board_LED
  D:00D8H         PUBLIC        CCON
  D:0098H         PUBLIC        SCON
  D:0088H         PUBLIC        TCON
  C:85B1H         PUBLIC        open_Board_LED
  B:00C8H.5       PUBLIC        P55
  D:00F0H         PUBLIC        B
  D:00E0H         PUBLIC        ACC
  C:85C4H         PUBLIC        getBoard_LED_State
  C:857BH         PUBLIC        _Board_LED_PWM
  D:00D0H         PUBLIC        PSW
  -------         PROC          BOARD_LED_INIT
  -------         DO            
  X:0290H         SYMBOL        GPIO_InitStructure
  -------         ENDDO         
  C:78FCH         LINE#         6
  C:78FCH         LINE#         7
  C:78FCH         LINE#         9
  C:7902H         LINE#         10
  C:7907H         LINE#         11
  C:7912H         LINE#         12
  C:7915H         LINE#         13
  C:791AH         LINE#         14
  C:791DH         LINE#         15
  C:7922H         LINE#         16
  C:7923H         LINE#         17
  -------         ENDPROC       BOARD_LED_INIT
  -------         PROC          OPEN_BOARD_LED
  C:85B1H         LINE#         18
  C:85B1H         LINE#         19
  C:85B1H         LINE#         20
  C:85B3H         LINE#         21
  C:85B5H         LINE#         22
  -------         ENDPROC       OPEN_BOARD_LED
  -------         PROC          CLOSE_BOARD_LED
  C:85B6H         LINE#         23
  C:85B6H         LINE#         24
  C:85B6H         LINE#         25
  C:85B8H         LINE#         26
  C:85BAH         LINE#         28
  -------         ENDPROC       CLOSE_BOARD_LED
  -------         PROC          _BLINK
  X:0290H         SYMBOL        time
  C:7B15H         LINE#         29
  C:7B1AH         LINE#         30
  C:7B1AH         LINE#         31
  C:7B24H         LINE#         32
  C:7B24H         LINE#         33
  C:7B27H         LINE#         34
  C:7B2CH         LINE#         35
  C:7B2FH         LINE#         36
  C:7B34H         LINE#         38
  C:7B36H         LINE#         39
  -------         ENDPROC       _BLINK
  -------         PROC          GETBOARD_LED_STATE
BL51 BANKED LINKER/LOCATER V6.00                                                      08/07/2017  18:56:55  PAGE 40


  C:85C4H         LINE#         40
  C:85C4H         LINE#         41
  C:85C4H         LINE#         42
  C:85C6H         LINE#         43
  -------         ENDPROC       GETBOARD_LED_STATE
  -------         PROC          _BOARD_LED_PWM
  X:0A98H         SYMBOL        luminance
  C:857BH         LINE#         44
  C:8580H         LINE#         45
  C:8580H         LINE#         46
  C:8580H         LINE#         47
  C:8580H         LINE#         50
  C:8580H         LINE#         52
  -------         ENDPROC       _BOARD_LED_PWM
  -------         ENDMOD        LED

  -------         MODULE        MOTOR
  C:0000H         SYMBOL        _ICE_DUMMY_
  D:0080H         PUBLIC        P0
  D:0090H         PUBLIC        P1
  D:00A0H         PUBLIC        P2
  D:00B0H         PUBLIC        P3
  D:00C0H         PUBLIC        P4
  D:00C8H         PUBLIC        P5
  D:00E8H         PUBLIC        P6
  D:00F8H         PUBLIC        P7
  D:00BAH         PUBLIC        P_SW2
  D:00A8H         PUBLIC        IE
  C:7DFCH         PUBLIC        _open_DC_Motor
  D:00B8H         PUBLIC        IP
  D:00D8H         PUBLIC        CCON
  B:00A0H.2       PUBLIC        P22
  D:0098H         PUBLIC        SCON
  B:00A0H.3       PUBLIC        P23
  D:0088H         PUBLIC        TCON
  C:63F8H         PUBLIC        _setDC_MotorSpeed
  D:00F0H         PUBLIC        B
  X:0A6BH         SYMBOL        g_DC_Motor
  C:8417H         PUBLIC        _getDC_MotorState
  D:00E0H         PUBLIC        ACC
  C:6A10H         PUBLIC        DC_MOTOR_config
  C:7E74H         PUBLIC        _close_DC_Motor
  D:00D0H         PUBLIC        PSW
  -------         PROC          _SETDC_MOTORSPEED
  X:0A5CH         SYMBOL        motor
  X:0A5DH         SYMBOL        speed
  C:63F8H         LINE#         36
  C:63FDH         LINE#         37
  C:63FDH         LINE#         39
  C:6418H         LINE#         40
  C:6418H         LINE#         41
  C:6422H         LINE#         42
  C:6422H         LINE#         43
  C:643DH         LINE#         44
  C:643DH         LINE#         46
  C:6447H         LINE#         47
  C:6447H         LINE#         50
BL51 BANKED LINKER/LOCATER V6.00                                                      08/07/2017  18:56:55  PAGE 41


  C:6467H         LINE#         51
  C:6489H         LINE#         52
  -------         ENDPROC       _SETDC_MOTORSPEED
  -------         PROC          _OPEN_DC_MOTOR
  X:0A99H         SYMBOL        motor
  C:7DFCH         LINE#         53
  C:7E01H         LINE#         54
  C:7E01H         LINE#         55
  C:7E07H         LINE#         56
  C:7E19H         LINE#         57
  -------         ENDPROC       _OPEN_DC_MOTOR
  -------         PROC          _CLOSE_DC_MOTOR
  X:0A9AH         SYMBOL        motor
  C:7E74H         LINE#         58
  C:7E79H         LINE#         59
  C:7E79H         LINE#         60
  C:7E7FH         LINE#         61
  C:7E90H         LINE#         65
  -------         ENDPROC       _CLOSE_DC_MOTOR
  -------         PROC          _GETDC_MOTORSTATE
  D:0007H         SYMBOL        motor
  C:8417H         LINE#         66
  C:8417H         LINE#         67
  C:8417H         LINE#         68
  C:8426H         LINE#         70
  -------         ENDPROC       _GETDC_MOTORSTATE
  -------         PROC          DC_MOTOR_CONFIG
  -------         DO            
  X:0961H         SYMBOL        GPIO_InitStructure
  X:0963H         SYMBOL        PWM_InitStructure
  -------         ENDDO         
  C:6A10H         LINE#         78
  C:6A10H         LINE#         79
  C:6A10H         LINE#         83
  C:6A15H         LINE#         86
  C:6A19H         LINE#         87
  C:6A24H         LINE#         91
  C:6A2AH         LINE#         92
  C:6A35H         LINE#         93
  C:6A37H         LINE#         94
  C:6A39H         LINE#         97
  C:6A3CH         LINE#         98
  C:6A41H         LINE#         99
  C:6A43H         LINE#         100
  C:6A45H         LINE#         101
  C:6A48H         LINE#         102
  C:6A4BH         LINE#         103
  C:6A4DH         LINE#         104
  C:6A4FH         LINE#         105
  C:6A51H         LINE#         106
  C:6A53H         LINE#         107
  C:6A55H         LINE#         108
  C:6A57H         LINE#         109
  C:6A59H         LINE#         110
  C:6A5BH         LINE#         111
  C:6A5DH         LINE#         112
  C:6A5FH         LINE#         113
BL51 BANKED LINKER/LOCATER V6.00                                                      08/07/2017  18:56:55  PAGE 42


  C:6A61H         LINE#         114
  C:6A6CH         LINE#         115
  C:6A77H         LINE#         117
  C:6A7AH         LINE#         120
  -------         ENDPROC       DC_MOTOR_CONFIG
  -------         ENDMOD        MOTOR

  -------         MODULE        SERVO
  C:0000H         SYMBOL        _ICE_DUMMY_
  D:0080H         PUBLIC        P0
  D:0090H         PUBLIC        P1
  D:00A0H         PUBLIC        P2
  D:00B0H         PUBLIC        P3
  D:00C0H         PUBLIC        P4
  D:00C8H         PUBLIC        P5
  D:00E8H         PUBLIC        P6
  D:00F8H         PUBLIC        P7
  D:00BAH         PUBLIC        P_SW2
  D:00A8H         PUBLIC        IE
  C:7CE3H         PUBLIC        _open_STR
  C:5597H         PUBLIC        _set_STR_angle
  D:00B8H         PUBLIC        IP
  D:00D8H         PUBLIC        CCON
  C:40EBH         PUBLIC        _Init_Str_Motor
  D:0098H         PUBLIC        SCON
  D:0088H         PUBLIC        TCON
  B:00B0H.7       PUBLIC        P37
  D:00F0H         PUBLIC        B
  D:00E0H         PUBLIC        ACC
  C:805EH         PUBLIC        _read_STR_angle
  X:0791H         SYMBOL        str_motor
  C:7D42H         PUBLIC        _close_STR
  D:00D0H         PUBLIC        PSW
  -------         PROC          _INIT_STR_MOTOR
  X:086FH         SYMBOL        MOTOR
  X:0870H         SYMBOL        pl
  X:0874H         SYMBOL        ph
  X:0878H         SYMBOL        ma
  X:087CH         SYMBOL        n
  -------         DO            
  X:087EH         SYMBOL        GPIO_InitStructure
  X:0880H         SYMBOL        PWM_InitStructure
  -------         ENDDO         
  C:40EBH         LINE#         41
  C:40F0H         LINE#         42
  C:40F0H         LINE#         45
  C:40F5H         LINE#         46
  C:40F9H         LINE#         47
  C:4104H         LINE#         52
  C:4106H         LINE#         54
  C:4109H         LINE#         55
  C:410EH         LINE#         56
  C:4110H         LINE#         57
  C:4112H         LINE#         58
  C:4115H         LINE#         59
  C:4118H         LINE#         60
  C:411AH         LINE#         61
BL51 BANKED LINKER/LOCATER V6.00                                                      08/07/2017  18:56:55  PAGE 43


  C:411CH         LINE#         62
  C:411EH         LINE#         63
  C:4120H         LINE#         64
  C:4122H         LINE#         65
  C:4126H         LINE#         66
  C:4129H         LINE#         67
  C:412BH         LINE#         68
  C:412DH         LINE#         69
  C:412FH         LINE#         70
  C:4131H         LINE#         71
  C:413FH         LINE#         73
  C:4142H         LINE#         74
  C:414CH         LINE#         75
  C:4158H         LINE#         76
  C:417BH         LINE#         77
  C:419AH         LINE#         78
  C:41B9H         LINE#         79
  C:41D4H         LINE#         80
  C:4256H         LINE#         81
  C:42A9H         LINE#         82
  C:42BEH         LINE#         83
  -------         ENDPROC       _INIT_STR_MOTOR
  -------         PROC          _SET_STR_ANGLE
  X:09DBH         SYMBOL        MOTOR
  X:09DCH         SYMBOL        angle
  -------         DO            
  X:09E0H         SYMBOL        str_duty
  -------         ENDDO         
  C:5597H         LINE#         94
  C:559CH         LINE#         95
  C:559CH         LINE#         97
  C:55BDH         LINE#         98
  C:563AH         LINE#         108
  C:563AH         LINE#         109
  C:5663H         LINE#         110
  C:567FH         LINE#         111
  C:567FH         LINE#         112
  -------         ENDPROC       _SET_STR_ANGLE
  -------         PROC          _READ_STR_ANGLE
  D:0007H         SYMBOL        MOTOR
  C:805EH         LINE#         123
  C:805EH         LINE#         124
  C:805EH         LINE#         125
  C:8077H         LINE#         126
  -------         ENDPROC       _READ_STR_ANGLE
  -------         PROC          _OPEN_STR
  X:0A9BH         SYMBOL        MOTOR
  C:7CE3H         LINE#         127
  C:7CE8H         LINE#         128
  C:7CE8H         LINE#         129
  C:7CEBH         LINE#         130
  C:7D01H         LINE#         131
  C:7D02H         LINE#         132
  -------         ENDPROC       _OPEN_STR
  -------         PROC          _CLOSE_STR
  X:0A9CH         SYMBOL        MOTOR
  C:7D42H         LINE#         133
BL51 BANKED LINKER/LOCATER V6.00                                                      08/07/2017  18:56:55  PAGE 44


  C:7D47H         LINE#         134
  C:7D47H         LINE#         135
  C:7D4AH         LINE#         136
  C:7D5FH         LINE#         137
  C:7D60H         LINE#         138
  -------         ENDPROC       _CLOSE_STR
  -------         ENDMOD        SERVO

  -------         MODULE        STEP_MOTOR
  C:0000H         SYMBOL        _ICE_DUMMY_
  D:0080H         PUBLIC        P0
  D:0090H         PUBLIC        P1
  D:00A0H         PUBLIC        P2
  D:00B0H         PUBLIC        P3
  D:00C0H         PUBLIC        P4
  D:00C8H         PUBLIC        P5
  D:00E8H         PUBLIC        P6
  C:8446H         PUBLIC        _setStepMotorState
  D:00F8H         PUBLIC        P7
  C:6BB2H         PUBLIC        _setStepMotorWithAngle
  D:00A8H         PUBLIC        IE
  B:00A0H.6       PUBLIC        StepMotor_1_LockControl
  B:00A0H.4       PUBLIC        StepMotor_2_LockControl
  D:00B8H         PUBLIC        IP
  X:08B0H         SYMBOL        g_stepMotor
  D:00D8H         PUBLIC        CCON
  C:7E91H         PUBLIC        _close_StepMotor
  C:75A4H         PUBLIC        _setStepMotorWithRound
  C:7A5FH         PUBLIC        _setStepMotorWithPulse
  D:0098H         PUBLIC        SCON
  D:0088H         PUBLIC        TCON
  C:7F73H         PUBLIC        _setStepMotorDiversion
  D:00F0H         PUBLIC        B
  B:00A0H.7       PUBLIC        StepMotor_1_DiversionControl
  B:00A0H.5       PUBLIC        StepMotor_2_DiversionControl
  D:00E0H         PUBLIC        ACC
  C:825DH         PUBLIC        _open_StepMotor
  C:622CH         PUBLIC        _stepMotor_Init
  C:5BEAH         PUBLIC        _setStepMotorWithDistance
  C:7EE8H         PUBLIC        _freeStepMotor
  C:7F04H         PUBLIC        _lockStepMotor
  C:835CH         PUBLIC        _getStepMotorState
  D:00D0H         PUBLIC        PSW
  -------         PROC          _SETSTEPMOTORWITHPULSE
  D:0007H         SYMBOL        motor
  X:09F5H         SYMBOL        pulse
  X:09F9H         SYMBOL        speed
  C:7A5FH         LINE#         28
  C:7A5FH         LINE#         29
  C:7A5FH         LINE#         30
  C:7A82H         LINE#         31
  C:7A83H         LINE#         32
  -------         ENDPROC       _SETSTEPMOTORWITHPULSE
  -------         PROC          _SETSTEPMOTORWITHDISTANCE
  X:09FBH         SYMBOL        motor
  X:09FCH         SYMBOL        distance
  X:0A00H         SYMBOL        speed
BL51 BANKED LINKER/LOCATER V6.00                                                      08/07/2017  18:56:55  PAGE 45


  C:5BEAH         LINE#         43
  C:5BEFH         LINE#         44
  C:5BEFH         LINE#         47
  C:5CAFH         LINE#         49
  C:5CB0H         LINE#         51
  -------         ENDPROC       _SETSTEPMOTORWITHDISTANCE
  -------         PROC          _SETSTEPMOTORWITHANGLE
  X:0A02H         SYMBOL        motor
  X:0A03H         SYMBOL        angle
  X:0A07H         SYMBOL        speed
  C:6BB2H         LINE#         62
  C:6BB7H         LINE#         63
  C:6BB7H         LINE#         65
  C:6C15H         LINE#         66
  C:6C16H         LINE#         67
  -------         ENDPROC       _SETSTEPMOTORWITHANGLE
  -------         PROC          _SETSTEPMOTORWITHROUND
  D:0007H         SYMBOL        motor
  D:0004H         SYMBOL        round
  X:0A89H         SYMBOL        speed
  C:75A4H         LINE#         78
  C:75ACH         LINE#         79
  C:75ACH         LINE#         80
  C:75DBH         LINE#         81
  C:75DCH         LINE#         82
  -------         ENDPROC       _SETSTEPMOTORWITHROUND
  -------         PROC          _SETSTEPMOTORSTATE
  D:0007H         SYMBOL        motor
  D:0005H         SYMBOL        state
  C:8446H         LINE#         83
  C:8446H         LINE#         84
  C:8446H         LINE#         85
  C:8449H         LINE#         86
  C:8449H         LINE#         87
  C:844EH         LINE#         88
  C:844FH         LINE#         90
  C:844FH         LINE#         91
  C:8454H         LINE#         92
  C:8454H         LINE#         93
  -------         ENDPROC       _SETSTEPMOTORSTATE
  -------         PROC          _GETSTEPMOTORSTATE
  D:0007H         SYMBOL        motor
  C:835CH         LINE#         102
  C:835CH         LINE#         103
  C:835CH         LINE#         104
  C:836CH         LINE#         105
  -------         ENDPROC       _GETSTEPMOTORSTATE
  -------         PROC          _SETSTEPMOTORDIVERSION
  D:0007H         SYMBOL        motor
  B:0023H.0       SYMBOL        diversion
  C:7F73H         LINE#         107
  C:7F73H         LINE#         108
  C:7F73H         LINE#         110
  C:7F76H         LINE#         111
  C:7F76H         LINE#         112
  C:7F79H         LINE#         113
  C:7F79H         LINE#         114
BL51 BANKED LINKER/LOCATER V6.00                                                      08/07/2017  18:56:55  PAGE 46


  C:7F7BH         LINE#         115
  C:7F7DH         LINE#         117
  C:7F7DH         LINE#         118
  C:7F7FH         LINE#         119
  C:7F7FH         LINE#         120
  C:7F7FH         LINE#         121
  C:7F83H         LINE#         122
  C:7F83H         LINE#         123
  C:7F86H         LINE#         124
  C:7F86H         LINE#         125
  C:7F88H         LINE#         126
  C:7F8AH         LINE#         128
  C:7F8AH         LINE#         129
  C:7F8CH         LINE#         130
  C:7F8CH         LINE#         131
  C:7F8CH         LINE#         134
  C:7F8DH         LINE#         135
  -------         ENDPROC       _SETSTEPMOTORDIVERSION
  -------         PROC          _CLOSE_STEPMOTOR
  X:0A9DH         SYMBOL        motor
  C:7E91H         LINE#         144
  C:7E96H         LINE#         145
  C:7E96H         LINE#         146
  C:7E99H         LINE#         147
  C:7EADH         LINE#         149
  -------         ENDPROC       _CLOSE_STEPMOTOR
  -------         PROC          _OPEN_STEPMOTOR
  D:0007H         SYMBOL        motor
  C:825DH         LINE#         158
  C:825DH         LINE#         159
  C:825DH         LINE#         160
  C:826DH         LINE#         161
  -------         ENDPROC       _OPEN_STEPMOTOR
  -------         PROC          _FREESTEPMOTOR
  D:0007H         SYMBOL        motor
  C:7EE8H         LINE#         171
  C:7EE8H         LINE#         172
  C:7EE8H         LINE#         173
  C:7EEBH         LINE#         174
  C:7EEBH         LINE#         175
  C:7EEDH         LINE#         176
  C:7EEFH         LINE#         178
  C:7EEFH         LINE#         179
  C:7EF1H         LINE#         180
  C:7EF1H         LINE#         181
  C:7F02H         LINE#         182
  C:7F03H         LINE#         183
  -------         ENDPROC       _FREESTEPMOTOR
  -------         PROC          _LOCKSTEPMOTOR
  D:0007H         SYMBOL        motor
  C:7F04H         LINE#         192
  C:7F04H         LINE#         193
  C:7F04H         LINE#         194
  C:7F07H         LINE#         195
  C:7F07H         LINE#         196
  C:7F09H         LINE#         197
  C:7F0BH         LINE#         199
BL51 BANKED LINKER/LOCATER V6.00                                                      08/07/2017  18:56:55  PAGE 47


  C:7F0BH         LINE#         200
  C:7F0DH         LINE#         201
  C:7F0DH         LINE#         202
  C:7F1EH         LINE#         204
  C:7F1FH         LINE#         205
  -------         ENDPROC       _LOCKSTEPMOTOR
  -------         PROC          _STEPMOTOR_INIT
  X:0993H         SYMBOL        motor
  X:0994H         SYMBOL        div
  X:0998H         SYMBOL        driverDiv
  X:0999H         SYMBOL        maxPeriod
  X:099BH         SYMBOL        bearingDia
  -------         DO            
  X:099FH         SYMBOL        GPIO_InitStructure
  -------         ENDDO         
  C:622CH         LINE#         217
  C:6231H         LINE#         218
  C:6231H         LINE#         224
  C:6236H         LINE#         225
  C:623AH         LINE#         226
  C:6245H         LINE#         227
  C:6268H         LINE#         228
  C:627DH         LINE#         229
  C:6298H         LINE#         230
  C:62B7H         LINE#         231
  C:62C8H         LINE#         232
  -------         ENDPROC       _STEPMOTOR_INIT
  -------         ENDMOD        STEP_MOTOR

  -------         MODULE        ANGLE
  C:0000H         SYMBOL        _ICE_DUMMY_
  D:0080H         PUBLIC        P0
  D:0090H         PUBLIC        P1
  D:00A0H         PUBLIC        P2
  D:00B0H         PUBLIC        P3
  D:00C0H         PUBLIC        P4
  D:00C8H         PUBLIC        P5
  D:00E8H         PUBLIC        P6
  D:00F8H         PUBLIC        P7
  D:00A8H         PUBLIC        IE
  D:00B8H         PUBLIC        IP
  C:7F20H         PUBLIC        _ADC_config
  D:00D8H         PUBLIC        CCON
  C:6927H         PUBLIC        getAngle
  D:0098H         PUBLIC        SCON
  D:0088H         PUBLIC        TCON
  D:00F0H         PUBLIC        B
  D:00E0H         PUBLIC        ACC
  D:00D0H         PUBLIC        PSW
  -------         PROC          _ADC_CONFIG
  D:0007H         SYMBOL        pin
  D:0005H         SYMBOL        speed
  -------         DO            
  X:0290H         SYMBOL        ADC_InitStructure
  -------         ENDDO         
  C:7F20H         LINE#         26
  C:7F20H         LINE#         27
BL51 BANKED LINKER/LOCATER V6.00                                                      08/07/2017  18:56:55  PAGE 48


  C:7F20H         LINE#         29
  C:7F25H         LINE#         30
  C:7F28H         LINE#         31
  C:7F2CH         LINE#         32
  C:7F2FH         LINE#         33
  C:7F31H         LINE#         34
  C:7F33H         LINE#         35
  -------         ENDPROC       _ADC_CONFIG
  -------         PROC          GETANGLE
  B:0023H.1       SYMBOL        whichAngle
  -------         DO            
  X:0910H         SYMBOL        angleData
  X:0924H         SYMBOL        angleDataloopTemp1
  X:09E4H         SYMBOL        presentAngle
  X:09E8H         SYMBOL        lastAngle
  -------         ENDDO         
  C:6927H         LINE#         52
  C:6927H         LINE#         53
  C:6927H         LINE#         55
  C:692CH         LINE#         57
  C:692FH         LINE#         58
  C:692FH         LINE#         60
  C:6930H         LINE#         61
  C:6930H         LINE#         62
  C:6949H         LINE#         63
  C:6955H         LINE#         64
  C:697AH         LINE#         66
  C:698CH         LINE#         67
  C:6991H         LINE#         68
  C:6991H         LINE#         70
  C:6991H         LINE#         71
  C:699FH         LINE#         72
  C:699FH         LINE#         73
  -------         ENDPROC       GETANGLE
  -------         ENDMOD        ANGLE

  -------         MODULE        PHSENSOR
  C:0000H         SYMBOL        _ICE_DUMMY_
  D:0080H         PUBLIC        P0
  D:0090H         PUBLIC        P1
  D:00A0H         PUBLIC        P2
  D:00B0H         PUBLIC        P3
  D:00C0H         PUBLIC        P4
  D:00C8H         PUBLIC        P5
  D:00E8H         PUBLIC        P6
  D:00F8H         PUBLIC        P7
  D:00A8H         PUBLIC        IE
  D:00B8H         PUBLIC        IP
  D:00D8H         PUBLIC        CCON
  D:0098H         PUBLIC        SCON
  D:0088H         PUBLIC        TCON
  D:00F0H         PUBLIC        B
  D:00E0H         PUBLIC        ACC
  D:00D0H         PUBLIC        PSW
  -------         ENDMOD        PHSENSOR

  -------         MODULE        LIQUIDOMETER
BL51 BANKED LINKER/LOCATER V6.00                                                      08/07/2017  18:56:55  PAGE 49


  C:0000H         SYMBOL        _ICE_DUMMY_
  D:0080H         PUBLIC        P0
  D:0090H         PUBLIC        P1
  D:00A0H         PUBLIC        P2
  D:00B0H         PUBLIC        P3
  D:00C0H         PUBLIC        P4
  D:00C8H         PUBLIC        P5
  D:00E8H         PUBLIC        P6
  D:00F8H         PUBLIC        P7
  D:00A8H         PUBLIC        IE
  D:00B8H         PUBLIC        IP
  D:00D8H         PUBLIC        CCON
  D:0098H         PUBLIC        SCON
  D:0088H         PUBLIC        TCON
  D:00F0H         PUBLIC        B
  D:00E0H         PUBLIC        ACC
  D:00D0H         PUBLIC        PSW
  -------         ENDMOD        LIQUIDOMETER

  -------         MODULE        SPEAKER
  C:0000H         SYMBOL        _ICE_DUMMY_
  D:0080H         PUBLIC        P0
  D:0090H         PUBLIC        P1
  D:00A0H         PUBLIC        P2
  D:00B0H         PUBLIC        P3
  D:00C0H         PUBLIC        P4
  D:00C8H         PUBLIC        P5
  C:84FEH         PUBLIC        _setSpeakerPeriod
  D:00E8H         PUBLIC        P6
  D:00F8H         PUBLIC        P7
  D:00A8H         PUBLIC        IE
  C:7C60H         PUBLIC        buzzSucceed
  C:7C81H         PUBLIC        buzzFailed
  D:00B8H         PUBLIC        IP
  D:00D8H         PUBLIC        CCON
  C:8507H         PUBLIC        _setLength
  D:0098H         PUBLIC        SCON
  D:0088H         PUBLIC        TCON
  D:00F0H         PUBLIC        B
  C:7AA9H         PUBLIC        Speaker_Init
  D:00E0H         PUBLIC        ACC
  C:8587H         PUBLIC        _close_Speaker
  C:5CB9H         PUBLIC        _buzz
  C:8581H         PUBLIC        _open_Speaker
  C:84CBH         PUBLIC        buzzWait
  D:00D0H         PUBLIC        PSW
  -------         PROC          _SETSPEAKERPERIOD
  X:0A8BH         SYMBOL        value
  C:84FEH         LINE#         2
  C:8506H         LINE#         3
  C:8506H         LINE#         5
  -------         ENDPROC       _SETSPEAKERPERIOD
  -------         PROC          _SETLENGTH
  X:0A8DH         SYMBOL        value
  C:8507H         LINE#         6
  C:850FH         LINE#         7
  C:850FH         LINE#         9
BL51 BANKED LINKER/LOCATER V6.00                                                      08/07/2017  18:56:55  PAGE 50


  -------         ENDPROC       _SETLENGTH
  -------         PROC          _OPEN_SPEAKER
  X:0A9EH         SYMBOL        value
  C:8581H         LINE#         10
  C:8586H         LINE#         11
  C:8586H         LINE#         13
  -------         ENDPROC       _OPEN_SPEAKER
  -------         PROC          _CLOSE_SPEAKER
  X:0A9FH         SYMBOL        value
  C:8587H         LINE#         14
  C:858CH         LINE#         15
  C:858CH         LINE#         17
  -------         ENDPROC       _CLOSE_SPEAKER
  C:5CB3H         SYMBOL        L?0016
  -------         PROC          L?0015
  -------         ENDPROC       L?0015
  C:5CB3H         SYMBOL        L?0016
  -------         PROC          _BUZZ
  X:0461H         SYMBOL        type
  X:0463H         SYMBOL        time
  -------         DO            
  X:0465H         SYMBOL        pulse
  X:0467H         SYMBOL        loopTime
  -------         ENDDO         
  C:5CB9H         LINE#         27
  C:5CCBH         LINE#         28
  C:5CCBH         LINE#         29
  C:5CF5H         LINE#         30
  C:5D09H         LINE#         31
  C:5D0EH         LINE#         32
  C:5D2CH         LINE#         33
  C:5D31H         LINE#         35
  C:5D41H         LINE#         36
  C:5D41H         LINE#         37
  C:5D43H         LINE#         39
  C:5D45H         LINE#         41
  C:5D45H         LINE#         42
  C:5D4FH         LINE#         43
  C:5D4FH         LINE#         44
  C:5D59H         LINE#         46
  C:5D5BH         LINE#         47
  C:5D72H         LINE#         49
  C:5D72H         LINE#         51
  -------         ENDPROC       _BUZZ
  -------         PROC          BUZZSUCCEED
  C:7C60H         LINE#         52
  C:7C60H         LINE#         53
  C:7C60H         LINE#         54
  C:7C6BH         LINE#         55
  C:7C76H         LINE#         56
  -------         ENDPROC       BUZZSUCCEED
  -------         PROC          BUZZWAIT
  C:84CBH         LINE#         58
  C:84CBH         LINE#         59
  C:84CBH         LINE#         60
  -------         ENDPROC       BUZZWAIT
  -------         PROC          BUZZFAILED
BL51 BANKED LINKER/LOCATER V6.00                                                      08/07/2017  18:56:55  PAGE 51


  C:7C81H         LINE#         63
  C:7C81H         LINE#         64
  C:7C81H         LINE#         65
  C:7C8CH         LINE#         66
  C:7C97H         LINE#         67
  -------         ENDPROC       BUZZFAILED
  -------         PROC          SPEAKER_INIT
  C:7AA9H         LINE#         70
  C:7AA9H         LINE#         71
  C:7AA9H         LINE#         72
  C:7AACH         LINE#         73
  C:7AB1H         LINE#         74
  C:7AB4H         LINE#         75
  C:7ABFH         LINE#         76
  C:7AC2H         LINE#         77
  -------         ENDPROC       SPEAKER_INIT
  -------         ENDMOD        SPEAKER

  -------         MODULE        FIXEDPULSER
  C:0000H         SYMBOL        _ICE_DUMMY_
  D:0080H         PUBLIC        P0
  D:0090H         PUBLIC        P1
  D:00A0H         PUBLIC        P2
  D:00B0H         PUBLIC        P3
  X:08CCH         SYMBOL        pulser1Tmp
  D:00C0H         PUBLIC        P4
  X:08CEH         SYMBOL        pulser2Tmp
  D:00C8H         PUBLIC        P5
  D:00E8H         PUBLIC        P6
  D:00F8H         PUBLIC        P7
  D:00A8H         PUBLIC        IE
  X:08D0H         SYMBOL        count1Tmp
  X:08D2H         SYMBOL        count2Tmp
  C:78A6H         PUBLIC        PulserInit
  C:7EAEH         PUBLIC        _closePulser
  D:00B8H         PUBLIC        IP
  D:00D8H         PUBLIC        CCON
  B:0022H.5       SYMBOL        timer2UseBit
  B:0022H.6       SYMBOL        timer3UseBit
  C:7E1AH         PUBLIC        _openPulser
  D:0098H         PUBLIC        SCON
  D:0088H         PUBLIC        TCON
  C:6831H         SYMBOL        Pulser_1Int
  C:68ACH         SYMBOL        Pulser_2Int
  D:00F0H         PUBLIC        B
  D:008EH         PUBLIC        AUXR
  C:82CDH         PUBLIC        _getPulserState
  D:00E0H         PUBLIC        ACC
  D:00D6H         PUBLIC        TH2
  D:00D4H         PUBLIC        TH3
  X:08D4H         SYMBOL        tmp
  D:00D7H         PUBLIC        TL2
  D:00D5H         PUBLIC        TL3
  C:57A7H         PUBLIC        _setPulse
  D:00D1H         PUBLIC        T4T3M
  X:08D6H         SYMBOL        g_pulser
  D:008FH         PUBLIC        INT_CLKO
BL51 BANKED LINKER/LOCATER V6.00                                                      08/07/2017  18:56:55  PAGE 52


  D:00D0H         PUBLIC        PSW
  -------         PROC          _SETPULSE
  D:0003H         SYMBOL        pulser_num
  X:0469H         SYMBOL        Hz
  X:046BH         SYMBOL        count
  -------         DO            
  X:046FH         SYMBOL        timerTmp
  X:0471H         SYMBOL        TIM_Value
  -------         ENDDO         
  C:57A7H         LINE#         37
  C:57B1H         LINE#         38
  C:57B1H         LINE#         39
  C:57B8H         LINE#         41
  C:57D3H         LINE#         42
  C:57F2H         LINE#         43
  C:57F5H         LINE#         44
  C:57F5H         LINE#         45
  C:5805H         LINE#         46
  C:5805H         LINE#         49
  C:582CH         LINE#         50
  C:582EH         LINE#         51
  C:5831H         LINE#         52
  C:583CH         LINE#         53
  C:583EH         LINE#         55
  C:5840H         LINE#         57
  C:5840H         LINE#         58
  C:5842H         LINE#         60
  C:5842H         LINE#         61
  C:5844H         LINE#         63
  C:5844H         LINE#         64
  C:5854H         LINE#         65
  C:5854H         LINE#         66
  C:587BH         LINE#         67
  C:587DH         LINE#         68
  C:5880H         LINE#         69
  C:588BH         LINE#         70
  C:588DH         LINE#         72
  C:588FH         LINE#         74
  C:588FH         LINE#         75
  C:5891H         LINE#         76
  C:5891H         LINE#         77
  C:5891H         LINE#         79
  C:5892H         LINE#         80
  -------         ENDPROC       _SETPULSE
  -------         PROC          _OPENPULSER
  D:0007H         SYMBOL        pulser_num
  C:7E1AH         LINE#         81
  C:7E1AH         LINE#         82
  C:7E1AH         LINE#         84
  C:7E2BH         LINE#         86
  C:7E2EH         LINE#         87
  C:7E2EH         LINE#         88
  C:7E31H         LINE#         90
  C:7E33H         LINE#         92
  C:7E33H         LINE#         93
  C:7E36H         LINE#         94
  C:7E36H         LINE#         96
BL51 BANKED LINKER/LOCATER V6.00                                                      08/07/2017  18:56:55  PAGE 53


  C:7E37H         LINE#         97
  -------         ENDPROC       _OPENPULSER
  -------         PROC          _CLOSEPULSER
  D:0007H         SYMBOL        pulser_num
  C:7EAEH         LINE#         98
  C:7EAEH         LINE#         99
  C:7EAEH         LINE#         100
  C:7EB1H         LINE#         101
  C:7EB1H         LINE#         102
  C:7EB4H         LINE#         105
  C:7EB6H         LINE#         107
  C:7EB6H         LINE#         108
  C:7EB9H         LINE#         110
  C:7EB9H         LINE#         111
  C:7EC9H         LINE#         112
  C:7ECAH         LINE#         114
  -------         ENDPROC       _CLOSEPULSER
  -------         PROC          _GETPULSERSTATE
  D:0007H         SYMBOL        pulser_num
  C:82CDH         LINE#         115
  C:82CDH         LINE#         116
  C:82CDH         LINE#         118
  C:82DEH         LINE#         120
  -------         ENDPROC       _GETPULSERSTATE
  -------         PROC          PULSERINIT
  -------         DO            
  X:0290H         SYMBOL        GPIO_InitStructure
  -------         ENDDO         
  C:78A6H         LINE#         121
  C:78A6H         LINE#         122
  C:78A6H         LINE#         126
  C:78ABH         LINE#         127
  C:78AEH         LINE#         128
  C:78B8H         LINE#         129
  C:78BEH         LINE#         130
  C:78C9H         LINE#         131
  C:78CEH         LINE#         132
  C:78D2H         LINE#         141
  -------         ENDPROC       PULSERINIT
  -------         PROC          PULSER_1INT
  C:6831H         LINE#         183
  C:684EH         LINE#         185
  C:6885H         LINE#         186
  C:6885H         LINE#         187
  C:688AH         LINE#         188
  C:6891H         LINE#         189
  C:6891H         LINE#         191
  -------         ENDPROC       PULSER_1INT
  -------         PROC          PULSER_2INT
  C:68ACH         LINE#         195
  C:68C9H         LINE#         197
  C:6900H         LINE#         198
  C:6900H         LINE#         199
  C:6905H         LINE#         200
  C:690CH         LINE#         201
  C:690CH         LINE#         203
  -------         ENDPROC       PULSER_2INT
BL51 BANKED LINKER/LOCATER V6.00                                                      08/07/2017  18:56:55  PAGE 54


  -------         ENDMOD        FIXEDPULSER

  -------         MODULE        MT_1_L298N
  C:0000H         SYMBOL        _ICE_DUMMY_
  D:0080H         PUBLIC        P0
  D:0090H         PUBLIC        P1
  D:00A0H         PUBLIC        P2
  D:00B0H         PUBLIC        P3
  D:00C0H         PUBLIC        P4
  D:00C8H         PUBLIC        P5
  D:00E8H         PUBLIC        P6
  D:00F8H         PUBLIC        P7
  D:00A8H         PUBLIC        IE
  C:8522H         PUBLIC        setCarStop
  C:853DH         PUBLIC        setCarRightTurn
  D:00B8H         PUBLIC        IP
  C:8558H         PUBLIC        setCarLeftTurn
  D:00D8H         PUBLIC        CCON
  D:0098H         PUBLIC        SCON
  D:0088H         PUBLIC        TCON
  C:8510H         PUBLIC        setCarForward
  D:00F0H         PUBLIC        B
  C:852BH         PUBLIC        setCarRightForward
  D:00E0H         PUBLIC        ACC
  B:0080H.0       PUBLIC        IN1
  B:0080H.1       PUBLIC        IN2
  B:0080H.2       PUBLIC        IN3
  B:0080H.3       PUBLIC        IN4
  C:8546H         PUBLIC        setCarLeftForward
  C:8519H         PUBLIC        setCarBack
  C:8534H         PUBLIC        setCarRightBack
  C:854FH         PUBLIC        setCarLeftBack
  D:00D0H         PUBLIC        PSW
  -------         PROC          SETCARFORWARD
  C:8510H         LINE#         13
  C:8510H         LINE#         14
  C:8510H         LINE#         15
  C:8512H         LINE#         16
  C:8514H         LINE#         17
  C:8516H         LINE#         18
  C:8518H         LINE#         19
  -------         ENDPROC       SETCARFORWARD
  -------         PROC          SETCARBACK
  C:8519H         LINE#         21
  C:8519H         LINE#         22
  C:8519H         LINE#         23
  C:851BH         LINE#         24
  C:851DH         LINE#         25
  C:851FH         LINE#         26
  C:8521H         LINE#         27
  -------         ENDPROC       SETCARBACK
  -------         PROC          SETCARSTOP
  C:8522H         LINE#         29
  C:8522H         LINE#         30
  C:8522H         LINE#         31
  C:8524H         LINE#         32
  C:852AH         LINE#         35
BL51 BANKED LINKER/LOCATER V6.00                                                      08/07/2017  18:56:55  PAGE 55


  -------         ENDPROC       SETCARSTOP
  -------         PROC          SETCARRIGHTFORWARD
  C:852BH         LINE#         37
  C:852BH         LINE#         38
  C:852BH         LINE#         39
  C:852DH         LINE#         40
  C:852FH         LINE#         41
  C:8531H         LINE#         42
  C:8533H         LINE#         43
  -------         ENDPROC       SETCARRIGHTFORWARD
  -------         PROC          SETCARRIGHTBACK
  C:8534H         LINE#         45
  C:8534H         LINE#         46
  C:8534H         LINE#         47
  C:8536H         LINE#         48
  C:8538H         LINE#         49
  C:853AH         LINE#         50
  C:853CH         LINE#         51
  -------         ENDPROC       SETCARRIGHTBACK
  -------         PROC          SETCARRIGHTTURN
  C:853DH         LINE#         53
  C:853DH         LINE#         54
  C:853DH         LINE#         55
  C:853FH         LINE#         56
  C:8541H         LINE#         57
  C:8543H         LINE#         58
  C:8545H         LINE#         59
  -------         ENDPROC       SETCARRIGHTTURN
  -------         PROC          SETCARLEFTFORWARD
  C:8546H         LINE#         61
  C:8546H         LINE#         62
  C:8546H         LINE#         63
  C:8548H         LINE#         64
  C:854AH         LINE#         65
  C:854CH         LINE#         66
  C:854EH         LINE#         67
  -------         ENDPROC       SETCARLEFTFORWARD
  -------         PROC          SETCARLEFTBACK
  C:854FH         LINE#         69
  C:854FH         LINE#         70
  C:854FH         LINE#         71
  C:8551H         LINE#         72
  C:8553H         LINE#         73
  C:8555H         LINE#         74
  C:8557H         LINE#         75
  -------         ENDPROC       SETCARLEFTBACK
  -------         PROC          SETCARLEFTTURN
  C:8558H         LINE#         77
  C:8558H         LINE#         78
  C:8558H         LINE#         79
  C:855AH         LINE#         80
  C:855CH         LINE#         81
  C:855EH         LINE#         82
  C:8560H         LINE#         83
  -------         ENDPROC       SETCARLEFTTURN
  -------         ENDMOD        MT_1_L298N

BL51 BANKED LINKER/LOCATER V6.00                                                      08/07/2017  18:56:55  PAGE 56


  -------         MODULE        MPU9250_SBUF
  C:0000H         SYMBOL        _ICE_DUMMY_
  D:0080H         PUBLIC        P0
  D:0090H         PUBLIC        P1
  D:00A0H         PUBLIC        P2
  D:00B0H         PUBLIC        P3
  D:00C0H         PUBLIC        P4
  D:00C8H         PUBLIC        P5
  D:00E8H         PUBLIC        P6
  D:00F8H         PUBLIC        P7
  C:82DFH         PUBLIC        _EnableJY901
  D:00A8H         PUBLIC        IE
  C:82F1H         PUBLIC        _openJY901SbufMode
  D:00B8H         PUBLIC        IP
  C:708CH         PUBLIC        _getJY901Palstance
  D:00D8H         PUBLIC        CCON
  C:7615H         PUBLIC        _getJY901Magnetic
  D:0098H         PUBLIC        SCON
  D:0088H         PUBLIC        TCON
  D:00F0H         PUBLIC        B
  X:0626H         SYMBOL        MPU9250
  D:00E0H         PUBLIC        ACC
  C:7042H         PUBLIC        _getJY901Acceleration
  C:74F4H         PUBLIC        _InitJY901
  C:6365H         PUBLIC        _CharToLong
  C:19EDH         PUBLIC        _CopeSerialData
  C:7753H         PUBLIC        _getJY901Angle
  C:837EH         PUBLIC        _closeJY901SbufMode
  C:836DH         PUBLIC        _DisableJY901
  D:00D0H         PUBLIC        PSW
  -------         PROC          _INITJY901
  D:0007H         SYMBOL        JY901_N
  C:74F4H         LINE#         103
  C:74F4H         LINE#         104
  C:74F4H         LINE#         105
  C:7504H         LINE#         106
  C:7514H         LINE#         107
  C:7524H         LINE#         108
  -------         ENDPROC       _INITJY901
  -------         PROC          _ENABLEJY901
  D:0007H         SYMBOL        JY901_N
  C:82DFH         LINE#         120
  C:82DFH         LINE#         121
  C:82DFH         LINE#         122
  C:82F0H         LINE#         123
  -------         ENDPROC       _ENABLEJY901
  -------         PROC          _DISABLEJY901
  D:0007H         SYMBOL        JY901_N
  C:836DH         LINE#         133
  C:836DH         LINE#         134
  C:836DH         LINE#         135
  C:837DH         LINE#         136
  -------         ENDPROC       _DISABLEJY901
  -------         PROC          _OPENJY901SBUFMODE
  D:0007H         SYMBOL        JY901_N
  C:82F1H         LINE#         146
  C:82F1H         LINE#         147
BL51 BANKED LINKER/LOCATER V6.00                                                      08/07/2017  18:56:55  PAGE 57


  C:82F1H         LINE#         148
  C:8302H         LINE#         149
  -------         ENDPROC       _OPENJY901SBUFMODE
  -------         PROC          _CLOSEJY901SBUFMODE
  D:0007H         SYMBOL        JY901_N
  C:837EH         LINE#         159
  C:837EH         LINE#         160
  C:837EH         LINE#         161
  C:838EH         LINE#         162
  -------         ENDPROC       _CLOSEJY901SBUFMODE
  -------         PROC          _GETJY901ACCELERATION
  D:0007H         SYMBOL        JY901_N
  D:0005H         SYMBOL        axis
  C:7042H         LINE#         173
  C:7042H         LINE#         174
  C:7042H         LINE#         175
  C:7055H         LINE#         176
  C:7055H         LINE#         177
  C:7086H         LINE#         178
  C:7086H         LINE#         179
  C:708BH         LINE#         180
  -------         ENDPROC       _GETJY901ACCELERATION
  -------         PROC          _GETJY901PALSTANCE
  D:0007H         SYMBOL        JY901_N
  D:0005H         SYMBOL        axis
  C:708CH         LINE#         191
  C:708CH         LINE#         192
  C:708CH         LINE#         193
  C:709FH         LINE#         194
  C:709FH         LINE#         195
  C:70D0H         LINE#         196
  C:70D0H         LINE#         197
  C:70D5H         LINE#         198
  -------         ENDPROC       _GETJY901PALSTANCE
  -------         PROC          _GETJY901ANGLE
  D:0007H         SYMBOL        JY901_N
  D:0005H         SYMBOL        axis
  C:7753H         LINE#         209
  C:7753H         LINE#         210
  C:7753H         LINE#         212
  C:7753H         LINE#         213
  C:7784H         LINE#         214
  C:7784H         LINE#         216
  -------         ENDPROC       _GETJY901ANGLE
  -------         PROC          _GETJY901MAGNETIC
  D:0007H         SYMBOL        JY901_N
  D:0005H         SYMBOL        axis
  C:7615H         LINE#         227
  C:7615H         LINE#         228
  C:7615H         LINE#         229
  C:7627H         LINE#         230
  C:7627H         LINE#         231
  C:7645H         LINE#         232
  C:7645H         LINE#         233
  C:764AH         LINE#         234
  -------         ENDPROC       _GETJY901MAGNETIC
  -------         PROC          _CHARTOLONG
BL51 BANKED LINKER/LOCATER V6.00                                                      08/07/2017  18:56:55  PAGE 58


  X:0A17H         SYMBOL        Dest
  X:0A1AH         SYMBOL        Source
  C:6365H         LINE#         237
  C:6370H         LINE#         238
  C:6370H         LINE#         239
  C:638FH         LINE#         240
  C:63B3H         LINE#         241
  C:63D7H         LINE#         242
  -------         ENDPROC       _CHARTOLONG
  -------         PROC          _COPESERIALDATA
  X:0817H         SYMBOL        JY901_N
  -------         DO            
  X:0818H         SYMBOL        str_0
  X:0827H         SYMBOL        str_1
  X:0836H         SYMBOL        str_2
  X:0619H         SYMBOL        ucRxBuffer
  X:0625H         SYMBOL        ucRxCnt
  -------         ENDDO         
  C:19EDH         LINE#         245
  C:19F2H         LINE#         246
  C:19F2H         LINE#         250
  C:1A05H         LINE#         251
  C:1A05H         LINE#         252
  C:1A1DH         LINE#         253
  C:1A1DH         LINE#         254
  C:1A2DH         LINE#         255
  C:1A35H         LINE#         256
  C:1A35H         LINE#         257
  C:1A3AH         LINE#         258
  C:1A3FH         LINE#         262
  C:1A3FH         LINE#         264
  C:1A5BH         LINE#         266
  C:1A67H         LINE#         267
  C:1A67H         LINE#         271
  C:1A67H         LINE#         283
  C:1A67H         LINE#         285
  C:1A9EH         LINE#         286
  C:1A9EH         LINE#         287
  C:1A9EH         LINE#         288
  C:1AB7H         LINE#         289
  C:1ACCH         LINE#         290
  C:1AE1H         LINE#         291
  C:1AF6H         LINE#         292
  C:1B0BH         LINE#         293
  C:1B20H         LINE#         294
  C:1B3BH         LINE#         297
  C:1B3EH         LINE#         298
  C:1B3EH         LINE#         299
  C:1B61H         LINE#         300
  C:1B80H         LINE#         301
  C:1B9BH         LINE#         305
  C:1B9EH         LINE#         306
  C:1B9EH         LINE#         307
  C:1BC1H         LINE#         308
  C:1BE0H         LINE#         309
  C:1BFBH         LINE#         312
  C:1BFEH         LINE#         313
BL51 BANKED LINKER/LOCATER V6.00                                                      08/07/2017  18:56:55  PAGE 59


  C:1BFEH         LINE#         314
  C:1C21H         LINE#         315
  C:1C40H         LINE#         316
  C:1C63H         LINE#         317
  C:1C7BH         LINE#         326
  C:1C7EH         LINE#         327
  C:1C7EH         LINE#         328
  C:1CA1H         LINE#         329
  C:1CC0H         LINE#         330
  C:1CE3H         LINE#         331
  C:1CFBH         LINE#         334
  C:1CFDH         LINE#         335
  C:1CFDH         LINE#         336
  C:1D20H         LINE#         337
  C:1D3FH         LINE#         338
  C:1D62H         LINE#         339
  C:1D81H         LINE#         340
  C:1D84H         LINE#         341
  C:1D84H         LINE#         342
  C:1D8AH         LINE#         343
  C:1D8EH         LINE#         344
  C:1D92H         LINE#         345
  C:1D96H         LINE#         346
  C:1DBCH         LINE#         347
  C:1DC9H         LINE#         348
  C:1DCCH         LINE#         349
  C:1DCCH         LINE#         350
  C:1DF2H         LINE#         351
  C:1DFFH         LINE#         352
  C:1E01H         LINE#         353
  C:1E01H         LINE#         354
  C:1E24H         LINE#         355
  C:1E43H         LINE#         356
  C:1E69H         LINE#         357
  C:1E69H         LINE#         358
  C:1E69H         LINE#         359
  C:1E69H         LINE#         360
  C:1E6EH         LINE#         361
  C:1E72H         LINE#         362
  C:1E86H         LINE#         370
  C:1E86H         LINE#         371
  C:1E86H         LINE#         372
  -------         ENDPROC       _COPESERIALDATA
  -------         ENDMOD        MPU9250_SBUF

  -------         MODULE        RELAY
  C:0000H         SYMBOL        _ICE_DUMMY_
  D:0080H         PUBLIC        P0
  D:0090H         PUBLIC        P1
  D:00A0H         PUBLIC        P2
  D:00B0H         PUBLIC        P3
  D:00C0H         PUBLIC        P4
  D:00C8H         PUBLIC        P5
  D:00E8H         PUBLIC        P6
  D:00F8H         PUBLIC        P7
  D:00A8H         PUBLIC        IE
  C:8303H         PUBLIC        _openRelayModular
BL51 BANKED LINKER/LOCATER V6.00                                                      08/07/2017  18:56:55  PAGE 60


  D:00B8H         PUBLIC        IP
  D:00D8H         PUBLIC        CCON
  X:09C7H         SYMBOL        s_RelayModular
  D:0098H         PUBLIC        SCON
  D:0088H         PUBLIC        TCON
  D:00F0H         PUBLIC        B
  C:77E8H         PUBLIC        _closeRelayKey
  D:00E0H         PUBLIC        ACC
  B:00A0H.7       PUBLIC        IN1
  B:00A0H.6       PUBLIC        IN2
  B:00A0H.5       PUBLIC        IN3
  B:00A0H.4       PUBLIC        IN4
  C:7819H         PUBLIC        _openRelayKey
  C:752FH         PUBLIC        _closeRelayModular
  C:65A0H         SYMBOL        _RelayKeyChange
  C:81FBH         PUBLIC        Relay_Init
  D:00D0H         PUBLIC        PSW
  -------         PROC          RELAY_INIT
  -------         DO            
  X:0A8FH         SYMBOL        GPIO_InitStructure
  -------         ENDDO         
  C:81FBH         LINE#         25
  C:81FBH         LINE#         26
  C:81FBH         LINE#         28
  C:8200H         LINE#         29
  C:8204H         LINE#         30
  -------         ENDPROC       RELAY_INIT
  -------         PROC          _RELAYKEYCHANGE
  D:0007H         SYMBOL        RELAY_MODULAR_N
  D:0005H         SYMBOL        RELAY_N
  C:65A0H         LINE#         33
  C:65A0H         LINE#         34
  C:65A0H         LINE#         35
  C:65AEH         LINE#         36
  C:65AEH         LINE#         37
  C:65AEH         LINE#         38
  C:65CBH         LINE#         39
  C:65CCH         LINE#         40
  C:65CCH         LINE#         41
  C:65E9H         LINE#         42
  C:65EAH         LINE#         43
  C:65EAH         LINE#         44
  C:6607H         LINE#         45
  C:6608H         LINE#         46
  C:6608H         LINE#         47
  C:6625H         LINE#         48
  C:6625H         LINE#         49
  C:6625H         LINE#         50
  -------         ENDPROC       _RELAYKEYCHANGE
  -------         PROC          _OPENRELAYMODULAR
  D:0007H         SYMBOL        RELAY_MODULAR_N
  C:8303H         LINE#         51
  C:8303H         LINE#         52
  C:8303H         LINE#         53
  C:8314H         LINE#         54
  -------         ENDPROC       _OPENRELAYMODULAR
  -------         PROC          _CLOSERELAYMODULAR
BL51 BANKED LINKER/LOCATER V6.00                                                      08/07/2017  18:56:55  PAGE 61


  D:0006H         SYMBOL        RELAY_MODULAR_N
  -------         DO            
  D:0004H         SYMBOL        val
  -------         ENDDO         
  C:752FH         LINE#         56
  C:7531H         LINE#         57
  C:7531H         LINE#         59
  C:7541H         LINE#         60
  C:7542H         LINE#         61
  C:7542H         LINE#         62
  C:755DH         LINE#         63
  C:7564H         LINE#         64
  C:7569H         LINE#         65
  -------         ENDPROC       _CLOSERELAYMODULAR
  -------         PROC          _OPENRELAYKEY
  D:0007H         SYMBOL        RELAY_MODULAR_N
  D:0005H         SYMBOL        RELAY_N
  C:7819H         LINE#         67
  C:7819H         LINE#         68
  C:7819H         LINE#         69
  C:782BH         LINE#         70
  C:782BH         LINE#         71
  C:7845H         LINE#         72
  C:7848H         LINE#         73
  C:7848H         LINE#         74
  -------         ENDPROC       _OPENRELAYKEY
  -------         PROC          _CLOSERELAYKEY
  D:0007H         SYMBOL        RELAY_MODULAR_N
  D:0005H         SYMBOL        RELAY_N
  C:77E8H         LINE#         76
  C:77E8H         LINE#         77
  C:77E8H         LINE#         78
  C:77FAH         LINE#         79
  C:77FAH         LINE#         80
  C:7815H         LINE#         81
  C:7818H         LINE#         82
  C:7818H         LINE#         83
  -------         ENDPROC       _CLOSERELAYKEY
  -------         ENDMOD        RELAY

  -------         MODULE        TM1638
  C:0000H         SYMBOL        _ICE_DUMMY_
  D:000EH         PUBLIC        DisBuffer
  D:0080H         PUBLIC        P0
  D:0090H         PUBLIC        P1
  D:00A0H         PUBLIC        P2
  D:00B0H         PUBLIC        P3
  D:00C0H         PUBLIC        P4
  D:00C8H         PUBLIC        P5
  D:00E8H         PUBLIC        P6
  D:00F8H         PUBLIC        P7
  D:00A8H         PUBLIC        IE
  C:2E5DH         PUBLIC        _NixieLedLight
  D:00B8H         PUBLIC        IP
  C:7D61H         PUBLIC        _setTM1638COM
  D:00D8H         PUBLIC        CCON
  B:00C0H.1       PUBLIC        TM1638_CLK
BL51 BANKED LINKER/LOCATER V6.00                                                      08/07/2017  18:56:55  PAGE 62


  B:00C0H.0       PUBLIC        TM1638_DIO
  D:0098H         PUBLIC        SCON
  D:0088H         PUBLIC        TCON
  C:71ADH         PUBLIC        getTM1638Read
  C:7E38H         PUBLIC        tab
  B:00C0H.2       PUBLIC        TM1638_STB
  D:00F0H         PUBLIC        B
  C:7E4AH         SYMBOL        _?ix1000
  C:7E4EH         SYMBOL        _?ix1001
  D:00E0H         PUBLIC        ACC
  C:85BBH         PUBLIC        CloseTM1638Display
  C:7441H         PUBLIC        _setTM1638Write
  C:498DH         PUBLIC        _TM1638LedDisplay
  C:7849H         PUBLIC        Init_TM1638
  C:5328H         PUBLIC        getButtonNum
  D:00D0H         PUBLIC        PSW
  -------         PROC          _SETTM1638WRITE
  X:0467H         SYMBOL        DATA
  -------         DO            
  X:0468H         SYMBOL        i
  -------         ENDDO         
  C:7441H         LINE#         34
  C:7446H         LINE#         35
  C:7446H         LINE#         37
  C:7449H         LINE#         38
  C:7449H         LINE#         39
  C:744BH         LINE#         40
  C:7452H         LINE#         41
  C:745AH         LINE#         42
  C:745EH         LINE#         44
  C:7460H         LINE#         45
  C:7467H         LINE#         46
  C:7469H         LINE#         47
  C:7470H         LINE#         48
  C:747CH         LINE#         49
  -------         ENDPROC       _SETTM1638WRITE
  -------         PROC          GETTM1638READ
  -------         DO            
  X:0467H         SYMBOL        i
  X:0468H         SYMBOL        temp
  -------         ENDDO         
  C:71ADH         LINE#         59
  C:71ADH         LINE#         60
  C:71ADH         LINE#         62
  C:71B2H         LINE#         63
  C:71B4H         LINE#         64
  C:71B8H         LINE#         65
  C:71B8H         LINE#         66
  C:71BFH         LINE#         67
  C:71C1H         LINE#         68
  C:71C8H         LINE#         69
  C:71CBH         LINE#         70
  C:71D2H         LINE#         71
  C:71D4H         LINE#         72
  C:71DBH         LINE#         73
  C:71E7H         LINE#         74
  C:71EEH         LINE#         75
BL51 BANKED LINKER/LOCATER V6.00                                                      08/07/2017  18:56:55  PAGE 63


  C:71F3H         LINE#         76
  -------         ENDPROC       GETTM1638READ
  -------         PROC          _SETTM1638COM
  X:0293H         SYMBOL        cmd
  C:7D61H         LINE#         86
  C:7D66H         LINE#         87
  C:7D66H         LINE#         88
  C:7D68H         LINE#         89
  C:7D6FH         LINE#         90
  C:7D77H         LINE#         91
  C:7D79H         LINE#         92
  -------         ENDPROC       _SETTM1638COM
  -------         PROC          GETBUTTONNUM
  -------         DO            
  X:0461H         SYMBOL        c
  X:0465H         SYMBOL        i
  X:0466H         SYMBOL        key_value
  -------         ENDDO         
  C:5328H         LINE#         103
  C:5328H         LINE#         104
  C:5328H         LINE#         105
  C:5340H         LINE#         106
  C:5342H         LINE#         107
  C:5347H         LINE#         108
  C:534EH         LINE#         109
  C:5353H         LINE#         110
  C:5371H         LINE#         111
  C:5373H         LINE#         112
  C:5384H         LINE#         113
  C:5391H         LINE#         114
  C:53A2H         LINE#         115
  C:53AFH         LINE#         116
  C:53C0H         LINE#         117
  C:53CDH         LINE#         118
  C:53DEH         LINE#         119
  C:53EAH         LINE#         120
  C:53FAH         LINE#         121
  C:5406H         LINE#         122
  C:5416H         LINE#         123
  C:5422H         LINE#         124
  C:5432H         LINE#         125
  C:543EH         LINE#         126
  C:544EH         LINE#         127
  C:545AH         LINE#         128
  C:545DH         LINE#         130
  C:5462H         LINE#         131
  -------         ENDPROC       GETBUTTONNUM
  -------         PROC          INIT_TM1638
  -------         DO            
  X:0292H         SYMBOL        i
  -------         ENDDO         
  C:7849H         LINE#         141
  C:7849H         LINE#         142
  C:7849H         LINE#         144
  C:784EH         LINE#         145
  C:7853H         LINE#         146
  C:7858H         LINE#         147
BL51 BANKED LINKER/LOCATER V6.00                                                      08/07/2017  18:56:55  PAGE 64


  C:785AH         LINE#         148
  C:785FH         LINE#         149
  C:7864H         LINE#         150
  C:7875H         LINE#         151
  C:7877H         LINE#         152
  -------         ENDPROC       INIT_TM1638
  -------         PROC          _NIXIELEDLIGHT
  D:0007H         SYMBOL        ddata0
  D:0005H         SYMBOL        ddata1
  D:0003H         SYMBOL        ddata2
  X:0951H         SYMBOL        ddata3
  X:0952H         SYMBOL        ddata4
  X:0953H         SYMBOL        ddata5
  X:0954H         SYMBOL        ddata6
  X:0955H         SYMBOL        ddata7
  -------         DO            
  X:0956H         SYMBOL        writedata0
  X:0957H         SYMBOL        writedata1
  X:0958H         SYMBOL        writedata2
  X:0959H         SYMBOL        writedata3
  X:095AH         SYMBOL        writedata4
  X:095BH         SYMBOL        writedata5
  X:095CH         SYMBOL        writedata6
  X:095DH         SYMBOL        writedata7
  X:095EH         SYMBOL        data0
  X:095FH         SYMBOL        data1
  X:0960H         SYMBOL        data2
  D:0001H         SYMBOL        data3
  D:0002H         SYMBOL        data4
  D:0003H         SYMBOL        data5
  D:0004H         SYMBOL        data6
  D:0005H         SYMBOL        data7
  -------         ENDDO         
  C:2E5DH         LINE#         163
  C:2E5DH         LINE#         166
  C:2E5DH         LINE#         169
  C:2E65H         LINE#         170
  C:2E6DH         LINE#         171
  C:2E75H         LINE#         172
  C:2E7AH         LINE#         173
  C:2E7FH         LINE#         174
  C:2E7FH         LINE#         175
  C:2E83H         LINE#         176
  C:2E85H         LINE#         178
  C:2EE6H         LINE#         181
  C:2F43H         LINE#         184
  C:2F9FH         LINE#         187
  C:2FFCH         LINE#         190
  C:3059H         LINE#         193
  C:30B5H         LINE#         196
  C:3112H         LINE#         199
  C:3174H         LINE#         202
  C:3179H         LINE#         203
  C:317EH         LINE#         204
  C:3180H         LINE#         205
  C:3185H         LINE#         207
  C:318DH         LINE#         208
BL51 BANKED LINKER/LOCATER V6.00                                                      08/07/2017  18:56:55  PAGE 65


  C:3192H         LINE#         209
  C:319AH         LINE#         210
  C:319FH         LINE#         211
  C:31A7H         LINE#         212
  C:31ACH         LINE#         213
  C:31B4H         LINE#         214
  C:31B9H         LINE#         215
  C:31C1H         LINE#         216
  C:31C6H         LINE#         217
  C:31CEH         LINE#         218
  C:31D3H         LINE#         219
  C:31DBH         LINE#         220
  C:31E0H         LINE#         221
  C:31E8H         LINE#         222
  C:31EDH         LINE#         224
  C:31EFH         LINE#         227
  -------         ENDPROC       _NIXIELEDLIGHT
  -------         PROC          _TM1638LEDDISPLAY
  X:09A1H         SYMBOL        value
  -------         DO            
  X:09A5H         SYMBOL        LedValue
  X:09ADH         SYMBOL        i
  X:09AEH         SYMBOL        singleValue
  -------         ENDDO         
  C:498DH         LINE#         237
  C:4993H         LINE#         238
  C:4993H         LINE#         239
  C:49A6H         LINE#         240
  C:49DEH         LINE#         241
  C:49DEH         LINE#         242
  C:49E7H         LINE#         243
  C:49E7H         LINE#         244
  C:49ECH         LINE#         245
  C:49ECH         LINE#         246
  C:4A08H         LINE#         247
  C:4A25H         LINE#         248
  C:4A39H         LINE#         249
  C:4A46H         LINE#         250
  C:4A46H         LINE#         252
  C:4A46H         LINE#         253
  C:4A5DH         LINE#         254
  C:4A62H         LINE#         255
  C:4A62H         LINE#         256
  C:4A7BH         LINE#         257
  C:4A7BH         LINE#         258
  C:4A97H         LINE#         259
  C:4AB4H         LINE#         260
  C:4AC8H         LINE#         261
  C:4ACAH         LINE#         263
  C:4ACAH         LINE#         264
  C:4ADAH         LINE#         265
  C:4ADCH         LINE#         266
  C:4ADCH         LINE#         267
  C:4AEAH         LINE#         268
  C:4AEAH         LINE#         269
  C:4B24H         LINE#         270
  C:4B24H         LINE#         271
BL51 BANKED LINKER/LOCATER V6.00                                                      08/07/2017  18:56:55  PAGE 66


  -------         ENDPROC       _TM1638LEDDISPLAY
  -------         PROC          CLOSETM1638DISPLAY
  C:85BBH         LINE#         282
  C:85BBH         LINE#         283
  C:85BBH         LINE#         284
  -------         ENDPROC       CLOSETM1638DISPLAY
  -------         ENDMOD        TM1638

  -------         MODULE        ADS1115
  C:0000H         SYMBOL        _ICE_DUMMY_
  D:0080H         PUBLIC        P0
  D:0090H         PUBLIC        P1
  D:00A0H         PUBLIC        P2
  D:00B0H         PUBLIC        P3
  D:00C0H         PUBLIC        P4
  D:00C8H         PUBLIC        P5
  D:00E8H         PUBLIC        P6
  D:00F8H         PUBLIC        P7
  D:00A8H         PUBLIC        IE
  C:7720H         SYMBOL        readConversionRegister
  D:00B8H         PUBLIC        IP
  C:838FH         PUBLIC        _close_ADS1115
  D:00D8H         PUBLIC        CCON
  X:0983H         SYMBOL        ADCchannel
  D:0098H         PUBLIC        SCON
  C:81A7H         SYMBOL        changeRegister
  D:0088H         PUBLIC        TCON
  C:8315H         PUBLIC        _open_ADS1115
  C:7E56H         PUBLIC        _getADS1115ConvsionData
  D:00F0H         PUBLIC        B
  D:00E0H         PUBLIC        ACC
  C:70D6H         SYMBOL        _writeConfigRegister
  C:8078H         PUBLIC        _ADS1115_Config
  D:00D0H         PUBLIC        PSW
  -------         PROC          _WRITECONFIGREGISTER
  X:02FAH         SYMBOL        channel
  C:70D6H         LINE#         36
  C:70DBH         LINE#         37
  C:70DBH         LINE#         38
  C:70DEH         LINE#         39
  C:70E3H         LINE#         40
  C:70E6H         LINE#         42
  C:70EBH         LINE#         43
  C:70EEH         LINE#         45
  C:70FFH         LINE#         46
  C:70FFH         LINE#         47
  C:70FFH         LINE#         48
  C:70FFH         LINE#         49
  C:7101H         LINE#         50
  C:7101H         LINE#         51
  C:7103H         LINE#         52
  C:7103H         LINE#         53
  C:7103H         LINE#         54
  C:7105H         LINE#         55
  C:7105H         LINE#         56
  C:7107H         LINE#         57
  C:7107H         LINE#         58
BL51 BANKED LINKER/LOCATER V6.00                                                      08/07/2017  18:56:55  PAGE 67


  C:7107H         LINE#         59
  C:7109H         LINE#         60
  C:7109H         LINE#         61
  C:710BH         LINE#         62
  C:710BH         LINE#         63
  C:710BH         LINE#         64
  C:7110H         LINE#         65
  C:7110H         LINE#         66
  C:7110H         LINE#         68
  C:7110H         LINE#         69
  C:7113H         LINE#         71
  C:7118H         LINE#         72
  C:711BH         LINE#         74
  -------         ENDPROC       _WRITECONFIGREGISTER
  -------         PROC          CHANGEREGISTER
  C:81A7H         LINE#         84
  C:81A7H         LINE#         85
  C:81A7H         LINE#         86
  C:81AAH         LINE#         87
  C:81AFH         LINE#         88
  C:81B2H         LINE#         90
  C:81B7H         LINE#         91
  C:81BAH         LINE#         93
  -------         ENDPROC       CHANGEREGISTER
  -------         PROC          READCONVERSIONREGISTER
  -------         DO            
  X:02FAH         SYMBOL        str
  D:0006H         SYMBOL        result
  X:0304H         SYMBOL        resultH
  X:0305H         SYMBOL        resultL
  -------         ENDDO         
  C:7720H         LINE#         102
  C:7720H         LINE#         103
  C:7720H         LINE#         106
  C:7727H         LINE#         107
  C:772AH         LINE#         108
  C:772FH         LINE#         109
  C:7732H         LINE#         110
  C:773AH         LINE#         111
  C:773DH         LINE#         112
  C:7745H         LINE#         113
  C:7748H         LINE#         114
  C:7752H         LINE#         115
  C:7752H         LINE#         116
  -------         ENDPROC       READCONVERSIONREGISTER
  -------         PROC          _ADS1115_CONFIG
  X:0290H         SYMBOL        speed
  X:0291H         SYMBOL        mode
  -------         DO            
  X:0292H         SYMBOL        IIC_GPIO_Init
  -------         ENDDO         
  C:8078H         LINE#         128
  C:8080H         LINE#         129
  C:8080H         LINE#         131
  C:8083H         LINE#         132
  C:8087H         LINE#         133
  -------         ENDPROC       _ADS1115_CONFIG
BL51 BANKED LINKER/LOCATER V6.00                                                      08/07/2017  18:56:55  PAGE 68


  -------         PROC          _GETADS1115CONVSIONDATA
  D:0007H         SYMBOL        channel
  -------         DO            
  X:02F8H         SYMBOL        Data
  -------         ENDDO         
  C:7E56H         LINE#         144
  C:7E56H         LINE#         145
  C:7E56H         LINE#         148
  C:7E67H         LINE#         149
  C:7E67H         LINE#         150
  C:7E6AH         LINE#         151
  C:7E6AH         LINE#         152
  C:7E6DH         LINE#         153
  C:7E70H         LINE#         154
  C:7E73H         LINE#         155
  -------         ENDPROC       _GETADS1115CONVSIONDATA
  -------         PROC          _OPEN_ADS1115
  D:0007H         SYMBOL        channel
  C:8315H         LINE#         156
  C:8315H         LINE#         157
  C:8315H         LINE#         158
  C:8326H         LINE#         159
  -------         ENDPROC       _OPEN_ADS1115
  -------         PROC          _CLOSE_ADS1115
  D:0007H         SYMBOL        channel
  C:838FH         LINE#         160
  C:838FH         LINE#         161
  C:838FH         LINE#         162
  C:839FH         LINE#         163
  -------         ENDPROC       _CLOSE_ADS1115
  -------         ENDMOD        ADS1115

  -------         MODULE        74HC595
  C:0000H         SYMBOL        _ICE_DUMMY_
  D:0080H         PUBLIC        P0
  D:0090H         PUBLIC        P1
  D:00A0H         PUBLIC        P2
  D:00B0H         PUBLIC        P3
  D:00C0H         PUBLIC        P4
  D:00C8H         PUBLIC        P5
  D:00E8H         PUBLIC        P6
  D:00F8H         PUBLIC        P7
  D:00A8H         PUBLIC        IE
  D:00B8H         PUBLIC        IP
  D:00D8H         PUBLIC        CCON
  C:8147H         PUBLIC        _HC595_Init
  D:0098H         PUBLIC        SCON
  D:0088H         PUBLIC        TCON
  C:83A0H         PUBLIC        _HC595SendData
  D:00F0H         PUBLIC        B
  D:00E0H         PUBLIC        ACC
  D:00D0H         PUBLIC        PSW
  -------         PROC          _HC595_INIT
  D:0006H         SYMBOL        pin1
  X:0A6FH         SYMBOL        pin2
  -------         DO            
  X:0A71H         SYMBOL        HC595_Pin
BL51 BANKED LINKER/LOCATER V6.00                                                      08/07/2017  18:56:55  PAGE 69


  -------         ENDDO         
  C:8147H         LINE#         15
  C:814FH         LINE#         16
  C:814FH         LINE#         18
  C:8152H         LINE#         19
  C:8155H         LINE#         20
  -------         ENDPROC       _HC595_INIT
  -------         PROC          _HC595SENDDATA
  X:0AA0H         SYMBOL        SendVal
  -------         DO            
  D:0007H         SYMBOL        i
  -------         ENDDO         
  C:83A0H         LINE#         23
  C:83A5H         LINE#         24
  C:83A5H         LINE#         26
  C:83A7H         LINE#         27
  C:83A7H         LINE#         28
  C:83A7H         LINE#         29
  C:83A7H         LINE#         31
  C:83A7H         LINE#         33
  C:83A7H         LINE#         35
  C:83A7H         LINE#         37
  C:83A9H         LINE#         39
  C:83AEH         LINE#         41
  C:83B0H         LINE#         43
  -------         ENDPROC       _HC595SENDDATA
  -------         ENDMOD        74HC595

  -------         MODULE        HC_SR04
  C:0000H         SYMBOL        _ICE_DUMMY_
  C:7CA2H         PUBLIC        _setDistance
  D:0080H         PUBLIC        P0
  D:0090H         PUBLIC        P1
  D:00A0H         PUBLIC        P2
  D:00B0H         PUBLIC        P3
  D:00C0H         PUBLIC        P4
  D:00C8H         PUBLIC        P5
  D:00E8H         PUBLIC        P6
  D:00F8H         PUBLIC        P7
  C:8327H         PUBLIC        _open_HC_SR04
  C:71F4H         PUBLIC        HC_SR04_init
  D:00A8H         PUBLIC        IE
  C:8092H         PUBLIC        _getdistance
  D:00B8H         PUBLIC        IP
  B:00B0H.2       PUBLIC        INT0
  C:83C2H         PUBLIC        _getHC_SR04_State
  D:00D8H         PUBLIC        CCON
  C:6AE4H         SYMBOL        Ext_INT0
  D:0098H         PUBLIC        SCON
  B:00B0H.2       PUBLIC        P32
  D:0088H         PUBLIC        TCON
  B:00B0H.3       PUBLIC        P33
  C:7D80H         PUBLIC        _updateDistance
  D:00F0H         PUBLIC        B
  C:8223H         PUBLIC        _getTimerValue
  D:00E0H         PUBLIC        ACC
  B:00A8H.0       PUBLIC        EX0
BL51 BANKED LINKER/LOCATER V6.00                                                      08/07/2017  18:56:55  PAGE 70


  D:00D2H         PUBLIC        TH4
  C:820FH         PUBLIC        _setTimerValue
  D:00D3H         PUBLIC        TL4
  X:0894H         PUBLIC        str
  X:08A8H         SYMBOL        extiBit
  D:00D1H         PUBLIC        T4T3M
  C:83B1H         PUBLIC        _close_HC_SR04
  X:08A9H         SYMBOL        hc_sr04
  D:00D0H         PUBLIC        PSW
  -------         PROC          HC_SR04_INIT
  -------         DO            
  X:0290H         SYMBOL        hc_sr04_GPIO
  X:0292H         SYMBOL        hc_sr04_EXTI
  -------         ENDDO         
  C:71F4H         LINE#         29
  C:71F4H         LINE#         30
  C:71F4H         LINE#         33
  C:71F9H         LINE#         34
  C:71FDH         LINE#         35
  C:7208H         LINE#         36
  C:720EH         LINE#         37
  C:7212H         LINE#         38
  C:721DH         LINE#         39
  C:7223H         LINE#         40
  C:7228H         LINE#         41
  C:722BH         LINE#         42
  C:7235H         LINE#         43
  C:7237H         LINE#         44
  C:7239H         LINE#         46
  -------         ENDPROC       HC_SR04_INIT
  -------         PROC          _OPEN_HC_SR04
  D:0007H         SYMBOL        num
  C:8327H         LINE#         58
  C:8327H         LINE#         59
  C:8327H         LINE#         61
  C:8338H         LINE#         64
  -------         ENDPROC       _OPEN_HC_SR04
  -------         PROC          _CLOSE_HC_SR04
  D:0007H         SYMBOL        num
  C:83B1H         LINE#         65
  C:83B1H         LINE#         66
  C:83B1H         LINE#         67
  C:83C1H         LINE#         68
  -------         ENDPROC       _CLOSE_HC_SR04
  -------         PROC          _GETHC_SR04_STATE
  D:0007H         SYMBOL        num
  C:83C2H         LINE#         69
  C:83C2H         LINE#         70
  C:83C2H         LINE#         71
  C:83D2H         LINE#         73
  -------         ENDPROC       _GETHC_SR04_STATE
  -------         PROC          _SETTIMERVALUE
  D:0007H         SYMBOL        num
  D:0004H         SYMBOL        value
  C:820FH         LINE#         74
  C:820FH         LINE#         75
  C:820FH         LINE#         76
BL51 BANKED LINKER/LOCATER V6.00                                                      08/07/2017  18:56:55  PAGE 71


  C:8222H         LINE#         77
  -------         ENDPROC       _SETTIMERVALUE
  -------         PROC          _SETDISTANCE
  D:0003H         SYMBOL        num
  X:03C4H         SYMBOL        value
  C:7CA2H         LINE#         78
  C:7CA4H         LINE#         79
  C:7CA4H         LINE#         80
  -------         ENDPROC       _SETDISTANCE
  -------         PROC          _GETTIMERVALUE
  D:0007H         SYMBOL        num
  C:8223H         LINE#         90
  C:8223H         LINE#         91
  C:8223H         LINE#         92
  C:8236H         LINE#         94
  -------         ENDPROC       _GETTIMERVALUE
  -------         PROC          _UPDATEDISTANCE
  D:0007H         SYMBOL        num
  -------         DO            
  X:0890H         SYMBOL        time
  -------         ENDDO         
  C:7D80H         LINE#         103
  C:7D80H         LINE#         104
  C:7D80H         LINE#         106
  C:7D91H         LINE#         107
  C:7D91H         LINE#         109
  C:7D91H         LINE#         110
  C:7D93H         LINE#         112
  C:7D95H         LINE#         113
  C:7D9CH         LINE#         114
  C:7D9EH         LINE#         136
  -------         ENDPROC       _UPDATEDISTANCE
  -------         PROC          _GETDISTANCE
  D:0007H         SYMBOL        num
  C:8092H         LINE#         145
  C:8092H         LINE#         146
  C:8092H         LINE#         192
  C:80ABH         LINE#         193
  -------         ENDPROC       _GETDISTANCE
  -------         PROC          EXT_INT0
  C:6AE4H         LINE#         195
  C:6AF7H         LINE#         203
  C:6AFAH         LINE#         204
  C:6AFAH         LINE#         205
  C:6AFDH         LINE#         206
  C:6B02H         LINE#         211
  C:6B04H         LINE#         212
  C:6B07H         LINE#         213
  C:6B07H         LINE#         215
  C:6B0AH         LINE#         216
  C:6B14H         LINE#         217
  C:6B26H         LINE#         224
  C:6B29H         LINE#         225
  C:6B2CH         LINE#         226
  C:6B32H         LINE#         228
  C:6B34H         LINE#         230
  C:6B34H         LINE#         231
BL51 BANKED LINKER/LOCATER V6.00                                                      08/07/2017  18:56:55  PAGE 72


  C:6B39H         LINE#         232
  C:6B3CH         LINE#         237
  C:6B3CH         LINE#         240
  -------         ENDPROC       EXT_INT0
  -------         ENDMOD        HC_SR04

  -------         MODULE        NRF24L01
  C:0000H         SYMBOL        _ICE_DUMMY_
  D:0080H         PUBLIC        P0
  D:0090H         PUBLIC        P1
  D:00A0H         PUBLIC        P2
  D:00B0H         PUBLIC        P3
  D:00C0H         PUBLIC        P4
  D:00C8H         PUBLIC        P5
  D:00E8H         PUBLIC        P6
  D:00F8H         PUBLIC        P7
  B:0090H.5       PUBLIC        CE
  D:00A8H         PUBLIC        IE
  X:09D1H         PUBLIC        RX_ADDRESS
  X:09D6H         PUBLIC        TX_ADDRESS
  D:00B8H         PUBLIC        IP
  C:6FA0H         PUBLIC        _nRF24L01_RxPacket
  D:00D8H         PUBLIC        CCON
  C:756AH         PUBLIC        _nRF24L01_TxPacket
  D:0098H         PUBLIC        SCON
  D:0088H         PUBLIC        TCON
  D:00F0H         PUBLIC        B
  D:00E0H         PUBLIC        ACC
  C:7785H         PUBLIC        _ChoiceHalfDuplexMode
  B:0090H.1       PUBLIC        SCK
  B:0090H.4       PUBLIC        CSN
  C:56ADH         PUBLIC        _NRF24L01_Init
  D:00D0H         PUBLIC        PSW
  -------         PROC          _NRF24L01_INIT
  X:0AA1H         SYMBOL        mode
  C:56ADH         LINE#         94
  C:56B2H         LINE#         95
  C:56B2H         LINE#         96
  C:56B4H         LINE#         97
  C:56B4H         LINE#         98
  C:56B6H         LINE#         99
  C:56B8H         LINE#         100
  C:56BAH         LINE#         102
  C:56CBH         LINE#         103
  C:56D2H         LINE#         104
  C:56D9H         LINE#         105
  C:56E0H         LINE#         106
  C:56E7H         LINE#         107
  C:56EEH         LINE#         108
  C:56F0H         LINE#         109
  C:56F0H         LINE#         110
  C:56F2H         LINE#         111
  C:56FAH         LINE#         112
  C:56FAH         LINE#         113
  C:56FCH         LINE#         114
  C:56FEH         LINE#         115
  C:5700H         LINE#         116
BL51 BANKED LINKER/LOCATER V6.00                                                      08/07/2017  18:56:55  PAGE 73


  C:5711H         LINE#         117
  C:5722H         LINE#         118
  C:5729H         LINE#         119
  C:5730H         LINE#         121
  C:5737H         LINE#         122
  C:573EH         LINE#         123
  C:5745H         LINE#         124
  C:574CH         LINE#         125
  C:5753H         LINE#         126
  C:575BH         LINE#         127
  C:575BH         LINE#         128
  C:575DH         LINE#         129
  C:575FH         LINE#         130
  C:5761H         LINE#         131
  C:5772H         LINE#         132
  C:5783H         LINE#         133
  C:578AH         LINE#         134
  C:5791H         LINE#         136
  C:5798H         LINE#         137
  C:579FH         LINE#         138
  C:57A6H         LINE#         139
  C:57A6H         LINE#         140
  -------         ENDPROC       _NRF24L01_INIT
  -------         PROC          _CHOICEHALFDUPLEXMODE
  X:0AA2H         SYMBOL        mode
  C:7785H         LINE#         142
  C:778AH         LINE#         143
  C:778AH         LINE#         144
  C:7791H         LINE#         145
  C:7797H         LINE#         146
  C:7797H         LINE#         147
  C:7799H         LINE#         148
  C:779BH         LINE#         149
  C:779BH         LINE#         150
  C:779BH         LINE#         151
  C:779DH         LINE#         152
  C:77A4H         LINE#         153
  C:77A4H         LINE#         154
  C:77A6H         LINE#         155
  C:77ADH         LINE#         156
  C:77AFH         LINE#         157
  C:77B6H         LINE#         158
  C:77B6H         LINE#         159
  -------         ENDPROC       _CHOICEHALFDUPLEXMODE
  -------         PROC          _NRF24L01_RXPACKET
  X:0A73H         SYMBOL        rx_buf
  -------         DO            
  X:0A76H         SYMBOL        RxOk
  -------         ENDDO         
  C:6FA0H         LINE#         164
  C:6FABH         LINE#         165
  C:6FABH         LINE#         166
  C:6FAEH         LINE#         167
  C:6FB6H         LINE#         168
  C:6FBBH         LINE#         169
  C:6FBBH         LINE#         170
  C:6FBDH         LINE#         171
BL51 BANKED LINKER/LOCATER V6.00                                                      08/07/2017  18:56:55  PAGE 74


  C:6FD3H         LINE#         172
  C:6FD9H         LINE#         173
  C:6FD9H         LINE#         174
  C:6FE3H         LINE#         175
  C:6FE5H         LINE#         176
  C:6FECH         LINE#         177
  C:6FF1H         LINE#         178
  -------         ENDPROC       _NRF24L01_RXPACKET
  -------         PROC          _NRF24L01_TXPACKET
  X:0A80H         SYMBOL        tx_buf
  C:756AH         LINE#         184
  C:7575H         LINE#         185
  C:7575H         LINE#         186
  C:757CH         LINE#         187
  C:7583H         LINE#         188
  C:7585H         LINE#         189
  C:759BH         LINE#         190
  C:759DH         LINE#         191
  -------         ENDPROC       _NRF24L01_TXPACKET
  -------         ENDMOD        NRF24L01

  -------         MODULE        ADC
  C:0000H         SYMBOL        _ICE_DUMMY_
  D:0080H         PUBLIC        P0
  D:0090H         PUBLIC        P1
  C:6EFAH         PUBLIC        _ADC_Inilize
  D:00A0H         PUBLIC        P2
  D:00B0H         PUBLIC        P3
  D:00C0H         PUBLIC        P4
  D:00C8H         PUBLIC        P5
  D:00E8H         PUBLIC        P6
  D:00F8H         PUBLIC        P7
  B:00A8H.5       PUBLIC        EADC
  D:00A8H         PUBLIC        IE
  D:00BDH         PUBLIC        ADC_RES
  B:00B8H.5       PUBLIC        PADC
  D:00B8H         PUBLIC        IP
  C:84B3H         PUBLIC        _ADC_PowerControl
  D:00D8H         PUBLIC        CCON
  D:00BCH         PUBLIC        ADC_CONTR
  D:0098H         PUBLIC        SCON
  D:0088H         PUBLIC        TCON
  D:00F0H         PUBLIC        B
  D:00E0H         PUBLIC        ACC
  D:009DH         PUBLIC        P1ASF
  D:00BEH         PUBLIC        ADC_RESL
  D:0097H         PUBLIC        PCON2
  C:6D3DH         PUBLIC        _Get_ADC10bitResult
  C:85C0H         PUBLIC        ADC_int
  D:00D0H         PUBLIC        PSW
  -------         PROC          _ADC_INILIZE
  D:0001H         SYMBOL        ADCx
  C:6EFAH         LINE#         22
  C:6EFAH         LINE#         23
  C:6EFAH         LINE#         24
  C:6EFFH         LINE#         25
  C:6F0DH         LINE#         26
BL51 BANKED LINKER/LOCATER V6.00                                                      08/07/2017  18:56:55  PAGE 75


  C:6F16H         LINE#         27
  C:6F16H         LINE#         28
  C:6F19H         LINE#         29
  C:6F1BH         LINE#         31
  C:6F1BH         LINE#         32
  C:6F1EH         LINE#         33
  C:6F1EH         LINE#         34
  C:6F27H         LINE#         35
  C:6F27H         LINE#         36
  C:6F2AH         LINE#         37
  C:6F2CH         LINE#         39
  C:6F2CH         LINE#         40
  C:6F2FH         LINE#         41
  C:6F2FH         LINE#         42
  C:6F38H         LINE#         43
  C:6F38H         LINE#         44
  C:6F3AH         LINE#         45
  C:6F3CH         LINE#         47
  C:6F3CH         LINE#         48
  C:6F3EH         LINE#         49
  C:6F3EH         LINE#         50
  C:6F47H         LINE#         51
  C:6F47H         LINE#         52
  C:6F49H         LINE#         53
  C:6F4AH         LINE#         55
  C:6F4AH         LINE#         56
  C:6F4CH         LINE#         57
  C:6F4CH         LINE#         58
  -------         ENDPROC       _ADC_INILIZE
  -------         PROC          _ADC_POWERCONTROL
  D:0007H         SYMBOL        pwr
  C:84B3H         LINE#         66
  C:84B3H         LINE#         67
  C:84B3H         LINE#         68
  C:84B7H         LINE#         69
  C:84B7H         LINE#         70
  C:84BAH         LINE#         71
  C:84BBH         LINE#         73
  C:84BBH         LINE#         74
  C:84BEH         LINE#         75
  C:84BEH         LINE#         76
  -------         ENDPROC       _ADC_POWERCONTROL
  -------         PROC          _GET_ADC10BITRESULT
  D:0007H         SYMBOL        channel
  -------         DO            
  D:0004H         SYMBOL        adc
  D:0003H         SYMBOL        i
  -------         ENDDO         
  C:6D3DH         LINE#         84
  C:6D3DH         LINE#         85
  C:6D3DH         LINE#         88
  C:6D43H         LINE#         89
  C:6D43H         LINE#         90
  C:6D45H         LINE#         91
  C:6D45H         LINE#         92
  C:6D48H         LINE#         93
  C:6D4AH         LINE#         94
BL51 BANKED LINKER/LOCATER V6.00                                                      08/07/2017  18:56:55  PAGE 76


  C:6D53H         LINE#         95
  C:6D57H         LINE#         96
  C:6D59H         LINE#         97
  C:6D59H         LINE#         98
  C:6D5EH         LINE#         99
  C:6D5EH         LINE#         100
  C:6D61H         LINE#         101
  C:6D66H         LINE#         102
  C:6D66H         LINE#         103
  C:6D6AH         LINE#         104
  C:6D6DH         LINE#         105
  C:6D6FH         LINE#         107
  C:6D6FH         LINE#         108
  C:6D75H         LINE#         109
  C:6D8CH         LINE#         110
  C:6D8CH         LINE#         111
  C:6D91H         LINE#         112
  C:6D91H         LINE#         113
  C:6D96H         LINE#         114
  C:6D9AH         LINE#         115
  -------         ENDPROC       _GET_ADC10BITRESULT
  -------         PROC          ADC_INT
  C:85C0H         LINE#         123
  C:85C0H         LINE#         125
  C:85C3H         LINE#         126
  -------         ENDPROC       ADC_INT
  -------         ENDMOD        ADC

  -------         MODULE        DELAY
  C:0000H         SYMBOL        _ICE_DUMMY_
  D:0080H         PUBLIC        P0
  D:0090H         PUBLIC        P1
  D:00A0H         PUBLIC        P2
  D:00B0H         PUBLIC        P3
  D:00C0H         PUBLIC        P4
  D:00C8H         PUBLIC        P5
  D:00E8H         PUBLIC        P6
  D:00F8H         PUBLIC        P7
  D:00A8H         PUBLIC        IE
  D:00B8H         PUBLIC        IP
  D:00D8H         PUBLIC        CCON
  D:0098H         PUBLIC        SCON
  D:0088H         PUBLIC        TCON
  D:00F0H         PUBLIC        B
  D:00E0H         PUBLIC        ACC
  C:8427H         PUBLIC        _delay_ms
  C:7878H         PUBLIC        _delay_us
  D:00D0H         PUBLIC        PSW
  -------         PROC          _DELAY_MS
  D:0007H         SYMBOL        ms
  -------         DO            
  D:0004H         SYMBOL        i
  -------         ENDDO         
  C:8427H         LINE#         26
  C:8427H         LINE#         27
  C:8427H         LINE#         30
  C:8427H         LINE#         31
BL51 BANKED LINKER/LOCATER V6.00                                                      08/07/2017  18:56:55  PAGE 77


  C:842BH         LINE#         32
  C:8434H         LINE#         33
  C:8434H         LINE#         35
  C:8434H         LINE#         36
  C:8434H         LINE#         37
  C:8436H         LINE#         38
  -------         ENDPROC       _DELAY_MS
  -------         PROC          _DELAY_US
  D:0006H         SYMBOL        us
  -------         DO            
  D:0006H         SYMBOL        j
  -------         ENDDO         
  C:7878H         LINE#         39
  C:7878H         LINE#         40
  C:7878H         LINE#         42
  C:7899H         LINE#         43
  C:7899H         LINE#         44
  C:789DH         LINE#         45
  C:789DH         LINE#         46
  C:789EH         LINE#         47
  C:78A5H         LINE#         48
  -------         ENDPROC       _DELAY_US
  -------         ENDMOD        DELAY

  -------         MODULE        STC15_EEPROM
  C:0000H         SYMBOL        _ICE_DUMMY_
  D:0080H         PUBLIC        P0
  D:0090H         PUBLIC        P1
  D:00A0H         PUBLIC        P2
  D:00B0H         PUBLIC        P3
  C:8455H         PUBLIC        DisableEEPROM
  D:00C0H         PUBLIC        P4
  D:00C8H         PUBLIC        P5
  D:00C6H         PUBLIC        ISP_TRIG
  B:00A8H.7       PUBLIC        EA
  D:00E8H         PUBLIC        P6
  D:00F8H         PUBLIC        P7
  D:00A8H         PUBLIC        IE
  C:7D03H         PUBLIC        _EEPROM_SectorErase
  C:7386H         PUBLIC        _EEPROM_read_n
  D:00B8H         PUBLIC        IP
  D:00C5H         PUBLIC        ISP_CMD
  D:00D8H         PUBLIC        CCON
  C:73C5H         PUBLIC        _EEPROM_write_n
  D:00C3H         PUBLIC        ISP_ADDRH
  D:0098H         PUBLIC        SCON
  D:0088H         PUBLIC        TCON
  D:00C4H         PUBLIC        ISP_ADDRL
  D:00F0H         PUBLIC        B
  D:00E0H         PUBLIC        ACC
  D:00C7H         PUBLIC        ISP_CONTR
  D:00C2H         PUBLIC        ISP_DATA
  D:00D0H         PUBLIC        PSW
  -------         PROC          DISABLEEEPROM
  C:8455H         LINE#         30
  C:8455H         LINE#         31
  C:8455H         LINE#         32
BL51 BANKED LINKER/LOCATER V6.00                                                      08/07/2017  18:56:55  PAGE 78


  C:8458H         LINE#         33
  C:845AH         LINE#         34
  C:845CH         LINE#         35
  C:845FH         LINE#         36
  C:8462H         LINE#         37
  -------         ENDPROC       DISABLEEEPROM
  -------         PROC          _EEPROM_READ_N
  D:0004H         SYMBOL        EE_address
  D:0001H         SYMBOL        DataAddress
  X:0A0EH         SYMBOL        number
  C:7386H         LINE#         49
  C:738AH         LINE#         50
  C:738AH         LINE#         51
  C:738CH         LINE#         52
  C:738FH         LINE#         53
  C:7392H         LINE#         55
  C:7392H         LINE#         56
  C:7395H         LINE#         57
  C:7399H         LINE#         58
  C:739FH         LINE#         61
  C:73A0H         LINE#         62
  C:73A5H         LINE#         63
  C:73AAH         LINE#         64
  C:73B1H         LINE#         65
  C:73BFH         LINE#         67
  C:73C2H         LINE#         68
  C:73C4H         LINE#         69
  -------         ENDPROC       _EEPROM_READ_N
  -------         PROC          _EEPROM_SECTORERASE
  D:0004H         SYMBOL        EE_address
  C:7D03H         LINE#         80
  C:7D07H         LINE#         81
  C:7D07H         LINE#         82
  C:7D09H         LINE#         85
  C:7D0CH         LINE#         86
  C:7D10H         LINE#         87
  C:7D13H         LINE#         88
  C:7D16H         LINE#         89
  C:7D1CH         LINE#         90
  C:7D1DH         LINE#         91
  C:7D20H         LINE#         92
  C:7D22H         LINE#         93
  -------         ENDPROC       _EEPROM_SECTORERASE
  -------         PROC          _EEPROM_WRITE_N
  D:0004H         SYMBOL        EE_address
  D:0001H         SYMBOL        DataAddress
  X:0A15H         SYMBOL        number
  C:73C5H         LINE#         104
  C:73C9H         LINE#         105
  C:73C9H         LINE#         106
  C:73CBH         LINE#         108
  C:73CEH         LINE#         109
  C:73D1H         LINE#         111
  C:73D1H         LINE#         112
  C:73D4H         LINE#         113
  C:73D8H         LINE#         114
  C:73DDH         LINE#         115
BL51 BANKED LINKER/LOCATER V6.00                                                      08/07/2017  18:56:55  PAGE 79


  C:73E3H         LINE#         116
  C:73E4H         LINE#         117
  C:73E9H         LINE#         118
  C:73F0H         LINE#         119
  C:73FEH         LINE#         121
  C:7401H         LINE#         122
  C:7403H         LINE#         123
  -------         ENDPROC       _EEPROM_WRITE_N
  -------         ENDMOD        STC15_EEPROM

  -------         MODULE        STC15_EXTI
  C:0000H         SYMBOL        _ICE_DUMMY_
  D:0080H         PUBLIC        P0
  D:0090H         PUBLIC        P1
  D:00A0H         PUBLIC        P2
  D:00B0H         PUBLIC        P3
  D:00C0H         PUBLIC        P4
  D:00C8H         PUBLIC        P5
  D:00E8H         PUBLIC        P6
  D:00F8H         PUBLIC        P7
  D:00A8H         PUBLIC        IE
  D:00B8H         PUBLIC        IP
  D:00D8H         PUBLIC        CCON
  C:85D8H         PUBLIC        Ext_INT1
  C:85D9H         PUBLIC        Ext_INT2
  C:85DAH         PUBLIC        Ext_INT3
  C:85DBH         PUBLIC        Ext_INT4
  D:0098H         PUBLIC        SCON
  D:0088H         PUBLIC        TCON
  D:00F0H         PUBLIC        B
  D:00E0H         PUBLIC        ACC
  B:00A8H.0       PUBLIC        EX0
  B:0088H.0       PUBLIC        IT0
  B:00A8H.2       PUBLIC        EX1
  B:0088H.2       PUBLIC        IT1
  B:00B8H.0       PUBLIC        PX0
  B:00B8H.2       PUBLIC        PX1
  C:5D73H         PUBLIC        _Ext_Inilize
  D:008FH         PUBLIC        INT_CLKO
  D:00D0H         PUBLIC        PSW
  -------         PROC          EXT_INT1
  C:85D8H         LINE#         29
  C:85D8H         LINE#         32
  -------         ENDPROC       EXT_INT1
  -------         PROC          EXT_INT2
  C:85D9H         LINE#         35
  C:85D9H         LINE#         38
  -------         ENDPROC       EXT_INT2
  -------         PROC          EXT_INT3
  C:85DAH         LINE#         41
  C:85DAH         LINE#         44
  -------         ENDPROC       EXT_INT3
  -------         PROC          EXT_INT4
  C:85DBH         LINE#         47
  C:85DBH         LINE#         50
  -------         ENDPROC       EXT_INT4
  -------         PROC          _EXT_INILIZE
BL51 BANKED LINKER/LOCATER V6.00                                                      08/07/2017  18:56:55  PAGE 80


  D:0007H         SYMBOL        EXT
  D:0001H         SYMBOL        INTx
  C:5D73H         LINE#         60
  C:5D73H         LINE#         61
  C:5D73H         LINE#         62
  C:5D7CH         LINE#         64
  C:5D7FH         LINE#         65
  C:5D7FH         LINE#         66
  C:5D8CH         LINE#         67
  C:5D8EH         LINE#         68
  C:5D9BH         LINE#         69
  C:5D9DH         LINE#         70
  C:5DA7H         LINE#         71
  C:5DA9H         LINE#         72
  C:5DACH         LINE#         73
  C:5DACH         LINE#         75
  C:5DB1H         LINE#         76
  C:5DB1H         LINE#         77
  C:5DBEH         LINE#         78
  C:5DC0H         LINE#         79
  C:5DCDH         LINE#         80
  C:5DCFH         LINE#         81
  C:5DD9H         LINE#         82
  C:5DDBH         LINE#         83
  C:5DDEH         LINE#         84
  C:5DDEH         LINE#         86
  C:5DE2H         LINE#         87
  C:5DE2H         LINE#         88
  C:5DF0H         LINE#         89
  C:5DF3H         LINE#         90
  C:5DF6H         LINE#         91
  C:5DF6H         LINE#         93
  C:5DFAH         LINE#         94
  C:5DFAH         LINE#         95
  C:5E08H         LINE#         96
  C:5E0BH         LINE#         97
  C:5E0EH         LINE#         98
  C:5E0EH         LINE#         100
  C:5E12H         LINE#         101
  C:5E12H         LINE#         102
  C:5E20H         LINE#         103
  C:5E23H         LINE#         104
  C:5E26H         LINE#         105
  C:5E26H         LINE#         106
  C:5E28H         LINE#         107
  -------         ENDPROC       _EXT_INILIZE
  -------         ENDMOD        STC15_EXTI

  -------         MODULE        GPIO
  C:0000H         SYMBOL        _ICE_DUMMY_
  D:0093H         PUBLIC        P0M1
  D:0092H         PUBLIC        P1M0
  D:0096H         PUBLIC        P2M0
  D:0091H         PUBLIC        P1M1
  D:0080H         PUBLIC        P0
  D:00B2H         PUBLIC        P3M0
  D:0095H         PUBLIC        P2M1
BL51 BANKED LINKER/LOCATER V6.00                                                      08/07/2017  18:56:55  PAGE 81


  D:0090H         PUBLIC        P1
  D:00B4H         PUBLIC        P4M0
  D:00B1H         PUBLIC        P3M1
  D:00A0H         PUBLIC        P2
  D:00CAH         PUBLIC        P5M0
  D:00B3H         PUBLIC        P4M1
  D:00B0H         PUBLIC        P3
  D:00C9H         PUBLIC        P5M1
  D:00C0H         PUBLIC        P4
  D:00C8H         PUBLIC        P5
  D:00E8H         PUBLIC        P6
  D:00F8H         PUBLIC        P7
  D:00A8H         PUBLIC        IE
  D:00B8H         PUBLIC        IP
  D:00D8H         PUBLIC        CCON
  D:0098H         PUBLIC        SCON
  D:0088H         PUBLIC        TCON
  D:00F0H         PUBLIC        B
  D:00E0H         PUBLIC        ACC
  C:448AH         PUBLIC        _GPIO_Inilize
  D:00D0H         PUBLIC        PSW
  C:85C7H         PUBLIC        _setPinState
  D:0094H         PUBLIC        P0M0
  -------         PROC          _SETPINSTATE
  D:0007H         SYMBOL        Pin
  B:0023H.2       SYMBOL        State
  C:85C7H         LINE#         18
  C:85C7H         LINE#         19
  C:85C7H         LINE#         20
  C:85C9H         LINE#         23
  -------         ENDPROC       _SETPINSTATE
  -------         PROC          _GPIO_INILIZE
  D:0007H         SYMBOL        GPIO
  D:0001H         SYMBOL        GPIOx
  C:448AH         LINE#         31
  C:448AH         LINE#         32
  C:448AH         LINE#         33
  C:4490H         LINE#         34
  C:4490H         LINE#         35
  C:4493H         LINE#         36
  C:4493H         LINE#         37
  C:449CH         LINE#         38
  C:449CH         LINE#         39
  C:449FH         LINE#         40
  C:449FH         LINE#         41
  C:44A2H         LINE#         42
  C:44A2H         LINE#         43
  C:44A5H         LINE#         44
  C:44A5H         LINE#         45
  C:44B0H         LINE#         46
  C:44B0H         LINE#         47
  C:44B6H         LINE#         48
  C:44B6H         LINE#         49
  C:44C1H         LINE#         50
  C:44C1H         LINE#         51
  C:44C8H         LINE#         52
  C:44C8H         LINE#         53
BL51 BANKED LINKER/LOCATER V6.00                                                      08/07/2017  18:56:55  PAGE 82


  C:44D2H         LINE#         54
  C:44D2H         LINE#         55
  C:44D6H         LINE#         56
  C:44D6H         LINE#         57
  C:44E3H         LINE#         58
  C:44E3H         LINE#         59
  C:44E3H         LINE#         60
  C:44E8H         LINE#         61
  C:44E8H         LINE#         62
  C:44EEH         LINE#         63
  C:44EEH         LINE#         64
  C:44F9H         LINE#         65
  C:44F9H         LINE#         66
  C:44FDH         LINE#         67
  C:44FDH         LINE#         68
  C:4508H         LINE#         69
  C:4508H         LINE#         70
  C:450EH         LINE#         71
  C:450EH         LINE#         72
  C:4518H         LINE#         73
  C:4518H         LINE#         74
  C:451EH         LINE#         75
  C:451EH         LINE#         76
  C:452BH         LINE#         77
  C:452BH         LINE#         78
  C:452BH         LINE#         79
  C:4530H         LINE#         80
  C:4530H         LINE#         81
  C:4536H         LINE#         82
  C:4536H         LINE#         83
  C:4541H         LINE#         84
  C:4541H         LINE#         85
  C:4545H         LINE#         86
  C:4545H         LINE#         87
  C:4550H         LINE#         88
  C:4550H         LINE#         89
  C:4556H         LINE#         90
  C:4556H         LINE#         91
  C:4560H         LINE#         92
  C:4560H         LINE#         93
  C:4566H         LINE#         94
  C:4566H         LINE#         95
  C:4573H         LINE#         96
  C:4573H         LINE#         97
  C:4573H         LINE#         98
  C:4578H         LINE#         99
  C:4578H         LINE#         100
  C:457EH         LINE#         101
  C:457EH         LINE#         102
  C:4589H         LINE#         103
  C:4589H         LINE#         104
  C:458DH         LINE#         105
  C:458DH         LINE#         106
  C:4598H         LINE#         107
  C:4598H         LINE#         108
  C:459EH         LINE#         109
  C:459EH         LINE#         110
BL51 BANKED LINKER/LOCATER V6.00                                                      08/07/2017  18:56:55  PAGE 83


  C:45A8H         LINE#         111
  C:45A8H         LINE#         112
  C:45AEH         LINE#         113
  C:45AEH         LINE#         114
  C:45BBH         LINE#         115
  C:45BBH         LINE#         116
  C:45BBH         LINE#         117
  C:45C0H         LINE#         118
  C:45C0H         LINE#         119
  C:45C6H         LINE#         120
  C:45C6H         LINE#         121
  C:45D1H         LINE#         122
  C:45D1H         LINE#         123
  C:45D5H         LINE#         124
  C:45D5H         LINE#         125
  C:45E0H         LINE#         126
  C:45E0H         LINE#         127
  C:45E6H         LINE#         128
  C:45E6H         LINE#         129
  C:45F0H         LINE#         130
  C:45F0H         LINE#         131
  C:45F6H         LINE#         132
  C:45F6H         LINE#         133
  C:4603H         LINE#         134
  C:4603H         LINE#         135
  C:4603H         LINE#         136
  C:4608H         LINE#         137
  C:4608H         LINE#         138
  C:460EH         LINE#         139
  C:460EH         LINE#         140
  C:4619H         LINE#         141
  C:4619H         LINE#         142
  C:461DH         LINE#         143
  C:461DH         LINE#         144
  C:4628H         LINE#         145
  C:4628H         LINE#         146
  C:462EH         LINE#         147
  C:462EH         LINE#         148
  C:4638H         LINE#         149
  C:4638H         LINE#         150
  C:463EH         LINE#         151
  C:463EH         LINE#         152
  C:464BH         LINE#         153
  C:464BH         LINE#         154
  C:464BH         LINE#         155
  C:464DH         LINE#         156
  -------         ENDPROC       _GPIO_INILIZE
  -------         ENDMOD        GPIO

  -------         MODULE        STC15_IIC
  C:0000H         SYMBOL        _ICE_DUMMY_
  D:0080H         PUBLIC        P0
  D:0090H         PUBLIC        P1
  D:00A0H         PUBLIC        P2
  D:00B0H         PUBLIC        P3
  D:00C0H         PUBLIC        P4
  D:00C8H         PUBLIC        P5
BL51 BANKED LINKER/LOCATER V6.00                                                      08/07/2017  18:56:55  PAGE 84


  D:00E8H         PUBLIC        P6
  D:00F8H         PUBLIC        P7
  D:00A8H         PUBLIC        IE
  D:00B8H         PUBLIC        IP
  D:00D8H         PUBLIC        CCON
  C:6F4DH         PUBLIC        _IIC_RdDatFromAdd
  D:0098H         PUBLIC        SCON
  C:84E0H         PUBLIC        IIC_Nack
  D:0088H         PUBLIC        TCON
  D:00F0H         PUBLIC        B
  C:847FH         PUBLIC        IIC_Ack
  C:84D6H         PUBLIC        IIC_Start
  D:00E0H         PUBLIC        ACC
  C:7A39H         PUBLIC        _InputOneByte
  C:7ACDH         PUBLIC        OutputOneByte
  C:846AH         PUBLIC        Delay5US
  B:00B0H.5       PUBLIC        SDA
  C:858DH         PUBLIC        IIC_Stop
  B:00B0H.4       PUBLIC        SCL
  C:8160H         PUBLIC        _IIC_WrDevAddAndDatAdd
  C:764BH         PUBLIC        _IIC_WrDatToAdd
  D:00D0H         PUBLIC        PSW
  C:79C8H         PUBLIC        IIC_RdAck
  C:8465H         SYMBOL        L?0032
  -------         PROC          L?0031
  -------         ENDPROC       L?0031
  C:8465H         SYMBOL        L?0032
  -------         PROC          DELAY5US
  -------         DO            
  D:0007H         SYMBOL        i
  -------         ENDDO         
  C:846AH         LINE#         21
  C:846AH         LINE#         22
  C:846AH         LINE#         26
  C:846BH         LINE#         27
  C:846CH         LINE#         28
  C:846EH         LINE#         29
  C:8470H         LINE#         30
  -------         ENDPROC       DELAY5US
  -------         PROC          IIC_START
  C:84D6H         LINE#         37
  C:84D6H         LINE#         38
  C:84D6H         LINE#         39
  C:84D8H         LINE#         40
  C:84D8H         LINE#         41
  C:84D8H         LINE#         42
  C:84DBH         LINE#         43
  C:84DDH         LINE#         44
  -------         ENDPROC       IIC_START
  -------         PROC          IIC_STOP
  C:858DH         LINE#         52
  C:858DH         LINE#         53
  C:858DH         LINE#         54
  C:858DH         LINE#         55
  C:858DH         LINE#         56
  C:858DH         LINE#         57
  C:8590H         LINE#         58
BL51 BANKED LINKER/LOCATER V6.00                                                      08/07/2017  18:56:55  PAGE 85


  C:8592H         LINE#         59
  -------         ENDPROC       IIC_STOP
  -------         PROC          IIC_ACK
  C:847FH         LINE#         66
  C:847FH         LINE#         67
  C:847FH         LINE#         68
  C:8481H         LINE#         69
  C:8481H         LINE#         70
  C:8481H         LINE#         71
  C:8481H         LINE#         72
  C:8484H         LINE#         73
  C:8486H         LINE#         74
  C:8489H         LINE#         75
  C:848BH         LINE#         76
  -------         ENDPROC       IIC_ACK
  -------         PROC          L?0033
  -------         ENDPROC       L?0033
  -------         PROC          IIC_RDACK
  -------         DO            
  B:0022H.1       SYMBOL        AckFlag
  D:0006H         SYMBOL        uiVal
  -------         ENDDO         
  C:79C8H         LINE#         83
  C:79C8H         LINE#         84
  C:79C8H         LINE#         86
  C:79CAH         LINE#         87
  C:79CCH         LINE#         88
  C:79CFH         LINE#         89
  C:79D1H         LINE#         90
  C:79D3H         LINE#         91
  C:79D6H         LINE#         92
  C:79DFH         LINE#         93
  C:79DFH         LINE#         94
  C:79E0H         LINE#         95
  C:79E4H         LINE#         96
  C:79E6H         LINE#         97
  C:79E8H         LINE#         98
  C:79EAH         LINE#         99
  -------         ENDPROC       IIC_RDACK
  -------         PROC          IIC_NACK
  C:84E0H         LINE#         106
  C:84E0H         LINE#         107
  C:84E0H         LINE#         108
  C:84E2H         LINE#         109
  C:84E4H         LINE#         110
  C:84E4H         LINE#         111
  C:84E4H         LINE#         112
  C:84E7H         LINE#         113
  C:84E9H         LINE#         114
  -------         ENDPROC       IIC_NACK
  -------         PROC          OUTPUTONEBYTE
  -------         DO            
  X:0306H         SYMBOL        str
  D:0005H         SYMBOL        i
  D:0006H         SYMBOL        Data
  -------         ENDDO         
  C:7ACDH         LINE#         121
BL51 BANKED LINKER/LOCATER V6.00                                                      08/07/2017  18:56:55  PAGE 86


  C:7ACDH         LINE#         122
  C:7ACDH         LINE#         142
  C:7ACFH         LINE#         143
  C:7AD0H         LINE#         144
  C:7AD0H         LINE#         145
  C:7AD2H         LINE#         146
  C:7AD5H         LINE#         147
  C:7AD9H         LINE#         148
  C:7ADCH         LINE#         149
  C:7ADFH         LINE#         150
  C:7ADFH         LINE#         151
  C:7AE2H         LINE#         152
  C:7AE4H         LINE#         154
  C:7AE4H         LINE#         155
  C:7AE4H         LINE#         156
  C:7AE4H         LINE#         158
  C:7AE6H         LINE#         159
  C:7AE9H         LINE#         160
  C:7AEEH         LINE#         162
  C:7AF0H         LINE#         163
  -------         ENDPROC       OUTPUTONEBYTE
  -------         PROC          _INPUTONEBYTE
  D:0006H         SYMBOL        uByteVal
  -------         DO            
  D:0005H         SYMBOL        iCount
  -------         ENDDO         
  C:7A39H         LINE#         170
  C:7A3BH         LINE#         171
  C:7A3BH         LINE#         173
  C:7A3DH         LINE#         174
  C:7A3DH         LINE#         175
  C:7A3FH         LINE#         176
  C:7A42H         LINE#         177
  C:7A50H         LINE#         178
  C:7A50H         LINE#         179
  C:7A50H         LINE#         180
  C:7A53H         LINE#         181
  C:7A57H         LINE#         182
  C:7A5CH         LINE#         183
  C:7A5EH         LINE#         184
  -------         ENDPROC       _INPUTONEBYTE
  -------         PROC          _IIC_WRDEVADDANDDATADD
  D:0006H         SYMBOL        uDevAdd
  D:0004H         SYMBOL        uDatAdd
  C:8160H         LINE#         191
  C:8164H         LINE#         192
  C:8164H         LINE#         193
  C:8167H         LINE#         194
  C:816CH         LINE#         195
  C:816FH         LINE#         196
  C:8174H         LINE#         197
  C:8177H         LINE#         198
  C:8178H         LINE#         199
  -------         ENDPROC       _IIC_WRDEVADDANDDATADD
  -------         PROC          _IIC_WRDATTOADD
  D:0007H         SYMBOL        uDevID
  D:0005H         SYMBOL        uStaAddVal
BL51 BANKED LINKER/LOCATER V6.00                                                      08/07/2017  18:56:55  PAGE 87


  X:0A1FH         SYMBOL        p
  X:0A22H         SYMBOL        ucLenVal
  -------         DO            
  D:0004H         SYMBOL        iCount
  -------         ENDDO         
  C:764BH         LINE#         207
  C:7656H         LINE#         208
  C:7656H         LINE#         210
  C:7659H         LINE#         212
  C:7665H         LINE#         213
  C:7665H         LINE#         214
  C:7678H         LINE#         215
  C:767BH         LINE#         216
  C:767EH         LINE#         217
  -------         ENDPROC       _IIC_WRDATTOADD
  -------         PROC          _IIC_RDDATFROMADD
  X:0A23H         SYMBOL        uDevID
  D:0005H         SYMBOL        uStaAddVal
  X:0A25H         SYMBOL        p
  X:0A28H         SYMBOL        uiLenVal
  -------         DO            
  D:0004H         SYMBOL        iCount
  -------         ENDDO         
  C:6F4DH         LINE#         226
  C:6F5DH         LINE#         227
  C:6F5DH         LINE#         229
  C:6F60H         LINE#         230
  C:6F63H         LINE#         231
  C:6F66H         LINE#         233
  C:6F69H         LINE#         234
  C:6F75H         LINE#         235
  C:6F75H         LINE#         236
  C:6F8CH         LINE#         237
  C:6F94H         LINE#         238
  C:6F94H         LINE#         239
  C:6F97H         LINE#         240
  C:6F97H         LINE#         241
  C:6F9AH         LINE#         242
  C:6F9DH         LINE#         243
  -------         ENDPROC       _IIC_RDDATFROMADD
  -------         ENDMOD        STC15_IIC

  -------         MODULE        PCA
  C:0000H         SYMBOL        _ICE_DUMMY_
  B:00D8H.2       PUBLIC        CCF2
  D:0080H         PUBLIC        P0
  D:0090H         PUBLIC        P1
  D:00A0H         PUBLIC        P2
  D:00B0H         PUBLIC        P3
  D:00C0H         PUBLIC        P4
  D:00C8H         PUBLIC        P5
  D:00E8H         PUBLIC        P6
  D:00F8H         PUBLIC        P7
  D:00F9H         PUBLIC        CH
  X:0925H         PUBLIC        PCA0_mode
  X:0926H         PUBLIC        PCA1_mode
  D:00A8H         PUBLIC        IE
BL51 BANKED LINKER/LOCATER V6.00                                                      08/07/2017  18:56:55  PAGE 88


  X:0927H         PUBLIC        PCA2_mode
  D:00E9H         PUBLIC        CL
  D:00FAH         PUBLIC        CCAP0H
  D:00FBH         PUBLIC        CCAP1H
  D:00FCH         PUBLIC        CCAP2H
  B:00D8H.6       PUBLIC        CR
  D:00EAH         PUBLIC        CCAP0L
  D:00EBH         PUBLIC        CCAP1L
  D:00DAH         PUBLIC        CCAPM0
  D:00ECH         PUBLIC        CCAP2L
  D:00DBH         PUBLIC        CCAPM1
  D:00DCH         PUBLIC        CCAPM2
  D:00B8H         PUBLIC        IP
  D:00D9H         PUBLIC        CMOD
  D:00D8H         PUBLIC        CCON
  B:00B8H.7       PUBLIC        PPCA
  C:5F8CH         PUBLIC        _PWMn_Update
  B:0022H.2       PUBLIC        B_Capture0
  B:0022H.3       PUBLIC        B_Capture1
  B:0022H.4       PUBLIC        B_Capture2
  D:0098H         PUBLIC        SCON
  D:0088H         PUBLIC        TCON
  B:00A0H.5       PUBLIC        P25
  B:00A0H.6       PUBLIC        P26
  B:00A0H.7       PUBLIC        P27
  D:00F0H         PUBLIC        B
  D:00E0H         PUBLIC        ACC
  C:51EBH         PUBLIC        _pwmOutPut
  C:47EEH         PUBLIC        _PCA_Init
  X:0928H         PUBLIC        PWM0_low
  X:092AH         PUBLIC        PWM1_low
  D:00F2H         PUBLIC        PCA_PWM0
  X:092CH         PUBLIC        PWM2_low
  D:00F3H         PUBLIC        PCA_PWM1
  D:00F4H         PUBLIC        PCA_PWM2
  X:092EH         PUBLIC        PCA_Timer0
  X:0930H         PUBLIC        PCA_Timer1
  X:0932H         PUBLIC        PCA_Timer2
  D:00A2H         PUBLIC        AUXR1
  C:6189H         PUBLIC        PCA_Handler
  D:00D0H         PUBLIC        PSW
  X:0934H         PUBLIC        CCAP0_tmp
  X:0936H         PUBLIC        CCAP1_tmp
  B:00D8H.0       PUBLIC        CCF0
  X:0938H         PUBLIC        CCAP2_tmp
  B:00D8H.1       PUBLIC        CCF1
  -------         PROC          _PWMN_UPDATE
  D:0007H         SYMBOL        PCA_id
  D:0004H         SYMBOL        high
  C:5F8CH         LINE#         34
  C:5F8CH         LINE#         35
  C:5F8CH         LINE#         36
  C:5F8FH         LINE#         37
  C:5F8FH         LINE#         38
  C:5F98H         LINE#         39
  C:5F98H         LINE#         40
  C:5F9CH         LINE#         41
BL51 BANKED LINKER/LOCATER V6.00                                                      08/07/2017  18:56:55  PAGE 89


  C:5F9CH         LINE#         42
  C:5FA5H         LINE#         43
  C:5FA5H         LINE#         44
  C:5FA9H         LINE#         45
  C:5FA9H         LINE#         46
  C:5FABH         LINE#         47
  C:5FB3H         LINE#         48
  C:5FC1H         LINE#         49
  C:5FC1H         LINE#         50
  C:5FC3H         LINE#         51
  C:5FC8H         LINE#         52
  C:5FC8H         LINE#         53
  C:5FD1H         LINE#         54
  C:5FD1H         LINE#         55
  C:5FD5H         LINE#         56
  C:5FD5H         LINE#         57
  C:5FDEH         LINE#         58
  C:5FDEH         LINE#         59
  C:5FE2H         LINE#         60
  C:5FE2H         LINE#         61
  C:5FE4H         LINE#         62
  C:5FECH         LINE#         63
  C:5FFAH         LINE#         64
  C:5FFAH         LINE#         65
  C:5FFCH         LINE#         66
  C:6001H         LINE#         67
  C:6001H         LINE#         68
  C:600AH         LINE#         69
  C:600AH         LINE#         70
  C:600EH         LINE#         71
  C:600EH         LINE#         72
  C:6017H         LINE#         73
  C:6017H         LINE#         74
  C:601BH         LINE#         75
  C:601BH         LINE#         76
  C:601DH         LINE#         77
  C:6025H         LINE#         78
  C:6037H         LINE#         79
  C:6039H         LINE#         80
  C:6039H         LINE#         81
  -------         ENDPROC       _PWMN_UPDATE
  -------         PROC          _PCA_INIT
  D:0005H         SYMBOL        PCA_id
  X:0A83H         SYMBOL        PCAx
  C:47EEH         LINE#         106
  C:47FBH         LINE#         107
  C:47FBH         LINE#         108
  C:4804H         LINE#         109
  C:4804H         LINE#         111
  C:4804H         LINE#         112
  C:4809H         LINE#         113
  C:4809H         LINE#         114
  C:480BH         LINE#         115
  C:480DH         LINE#         116
  C:480FH         LINE#         117
  C:4825H         LINE#         118
  C:4833H         LINE#         119
BL51 BANKED LINKER/LOCATER V6.00                                                      08/07/2017  18:56:55  PAGE 90


  C:4843H         LINE#         120
  C:484CH         LINE#         121
  C:484CH         LINE#         122
  C:484EH         LINE#         123
  C:4850H         LINE#         125
  C:4850H         LINE#         126
  C:4852H         LINE#         127
  C:4852H         LINE#         128
  C:4855H         LINE#         130
  C:4855H         LINE#         131
  C:486DH         LINE#         132
  C:4883H         LINE#         133
  C:4883H         LINE#         134
  C:4892H         LINE#         135
  C:4892H         LINE#         136
  C:4895H         LINE#         137
  C:4895H         LINE#         138
  C:48B1H         LINE#         139
  C:48BFH         LINE#         140
  C:48D0H         LINE#         141
  C:48D2H         LINE#         142
  C:48D7H         LINE#         143
  C:48DFH         LINE#         144
  C:48E1H         LINE#         145
  C:48E4H         LINE#         146
  C:48E4H         LINE#         147
  C:48E9H         LINE#         148
  C:48E9H         LINE#         149
  C:4905H         LINE#         150
  C:4913H         LINE#         151
  C:4924H         LINE#         152
  C:4926H         LINE#         153
  C:492BH         LINE#         154
  C:4933H         LINE#         155
  C:4935H         LINE#         156
  C:4938H         LINE#         157
  C:4938H         LINE#         158
  C:493DH         LINE#         159
  C:493DH         LINE#         160
  C:4959H         LINE#         161
  C:4967H         LINE#         162
  C:4978H         LINE#         163
  C:497AH         LINE#         164
  C:497FH         LINE#         165
  C:4987H         LINE#         166
  C:4989H         LINE#         167
  C:498CH         LINE#         168
  C:498CH         LINE#         169
  -------         ENDPROC       _PCA_INIT
  -------         PROC          _PWMOUTPUT
  X:0A86H         SYMBOL        PCA_id
  X:0A87H         SYMBOL        T
  D:0002H         SYMBOL        duty
  C:51EBH         LINE#         170
  C:51F8H         LINE#         171
  C:51F8H         LINE#         172
  C:51FAH         LINE#         173
BL51 BANKED LINKER/LOCATER V6.00                                                      08/07/2017  18:56:55  PAGE 91


  C:51FAH         LINE#         174
  C:5203H         LINE#         175
  C:5203H         LINE#         176
  C:5207H         LINE#         177
  C:5207H         LINE#         178
  C:5210H         LINE#         179
  C:5210H         LINE#         180
  C:5214H         LINE#         181
  C:5214H         LINE#         182
  C:5216H         LINE#         183
  C:5234H         LINE#         184
  C:5255H         LINE#         185
  C:5255H         LINE#         186
  C:5258H         LINE#         187
  C:5260H         LINE#         188
  C:5260H         LINE#         189
  C:5269H         LINE#         190
  C:5269H         LINE#         191
  C:526DH         LINE#         192
  C:526DH         LINE#         193
  C:5276H         LINE#         194
  C:5276H         LINE#         195
  C:527AH         LINE#         196
  C:527AH         LINE#         197
  C:527CH         LINE#         198
  C:529AH         LINE#         199
  C:52BBH         LINE#         200
  C:52BBH         LINE#         201
  C:52BDH         LINE#         202
  C:52C5H         LINE#         203
  C:52C5H         LINE#         204
  C:52CEH         LINE#         205
  C:52CEH         LINE#         206
  C:52D2H         LINE#         207
  C:52D2H         LINE#         208
  C:52DBH         LINE#         209
  C:52DBH         LINE#         210
  C:52DFH         LINE#         211
  C:52DFH         LINE#         212
  C:52E1H         LINE#         213
  C:52FFH         LINE#         214
  C:5325H         LINE#         215
  C:5327H         LINE#         216
  C:5327H         LINE#         217
  -------         ENDPROC       _PWMOUTPUT
  -------         PROC          PCA_HANDLER
  C:6189H         LINE#         225
  C:6198H         LINE#         227
  C:619BH         LINE#         228
  C:619BH         LINE#         229
  C:619DH         LINE#         230
  C:61A0H         LINE#         231
  C:61A0H         LINE#         232
  C:61A3H         LINE#         233
  C:61A5H         LINE#         235
  C:61A5H         LINE#         236
  C:61B9H         LINE#         237
BL51 BANKED LINKER/LOCATER V6.00                                                      08/07/2017  18:56:55  PAGE 92


  C:61B9H         LINE#         238
  C:61C2H         LINE#         239
  C:61C5H         LINE#         240
  C:61C5H         LINE#         241
  C:61C8H         LINE#         242
  C:61C8H         LINE#         243
  C:61CAH         LINE#         244
  C:61CDH         LINE#         245
  C:61CDH         LINE#         246
  C:61D0H         LINE#         247
  C:61D2H         LINE#         249
  C:61D2H         LINE#         250
  C:61E6H         LINE#         251
  C:61E6H         LINE#         252
  C:61EFH         LINE#         253
  C:61F2H         LINE#         254
  C:61F2H         LINE#         255
  C:61F5H         LINE#         256
  C:61F5H         LINE#         257
  C:61F7H         LINE#         258
  C:61FAH         LINE#         259
  C:61FAH         LINE#         260
  C:61FDH         LINE#         261
  C:61FFH         LINE#         263
  C:61FFH         LINE#         264
  C:6213H         LINE#         265
  C:6213H         LINE#         266
  C:621CH         LINE#         267
  C:621FH         LINE#         268
  C:621FH         LINE#         274
  -------         ENDPROC       PCA_HANDLER
  -------         ENDMOD        PCA

  -------         MODULE        STC15_PWM
  C:0000H         SYMBOL        _ICE_DUMMY_
  C:80ACH         PUBLIC        _get_PWM_period
  D:0080H         PUBLIC        P0
  C:62CBH         SYMBOL        _PWM_SET_T12_PERIOD
  D:0090H         PUBLIC        P1
  D:00A0H         PUBLIC        P2
  D:00B0H         PUBLIC        P3
  D:00C0H         PUBLIC        P4
  D:00C8H         PUBLIC        P5
  D:00E8H         PUBLIC        P6
  D:00F8H         PUBLIC        P7
  C:83D3H         PUBLIC        _setPWM_DIV
  C:6CDCH         PUBLIC        _set_PWM_period
  D:00F5H         PUBLIC        PWMCR
  D:00BAH         PUBLIC        P_SW2
  D:00A8H         PUBLIC        IE
  D:00F7H         PUBLIC        PWMFDCR
  D:00B8H         PUBLIC        IP
  C:7A84H         PUBLIC        _close_PWM_N
  D:00D8H         PUBLIC        CCON
  C:84F4H         PUBLIC        close_PWM_ALL
  C:2AC3H         PUBLIC        _PWM_Inilize
  X:07DBH         SYMBOL        PWM_N_INFO
BL51 BANKED LINKER/LOCATER V6.00                                                      08/07/2017  18:56:55  PAGE 93


  D:0098H         PUBLIC        SCON
  D:0088H         PUBLIC        TCON
  C:7924H         PUBLIC        _open_PWM_N
  D:00F0H         PUBLIC        B
  C:84EAH         PUBLIC        open_PWM_ALL
  D:00F1H         PUBLIC        PWMCFG
  D:00E0H         PUBLIC        ACC
  C:8339H         PUBLIC        _get_PWM_N_state
  C:5893H         PUBLIC        _set_PWM_duty
  C:7D9FH         SYMBOL        _PWM_SET_PERIOD
  C:6E4FH         PUBLIC        _PWM_Init
  C:80C6H         PUBLIC        _get_PWM_N_duty
  D:00D0H         PUBLIC        PSW
  C:83E4H         PUBLIC        _getPWM_DIV
  -------         PROC          _SET_PWM_PERIOD
  D:0003H         SYMBOL        PWM_N
  X:0A91H         SYMBOL        Hz
  C:6CDCH         LINE#         52
  C:6CE6H         LINE#         53
  C:6CE6H         LINE#         54
  C:6D02H         LINE#         55
  C:6D05H         LINE#         56
  C:6D08H         LINE#         57
  C:6D39H         LINE#         60
  C:6D3CH         LINE#         63
  -------         ENDPROC       _SET_PWM_PERIOD
  -------         PROC          _GET_PWM_PERIOD
  D:0007H         SYMBOL        PWM_N
  C:80ACH         LINE#         73
  C:80ACH         LINE#         74
  C:80ACH         LINE#         75
  C:80C5H         LINE#         76
  -------         ENDPROC       _GET_PWM_PERIOD
  -------         PROC          _SET_PWM_DUTY
  X:0A61H         SYMBOL        PWM_N
  X:0A62H         SYMBOL        duty
  C:5893H         LINE#         90
  C:5898H         LINE#         91
  C:5898H         LINE#         92
  C:58B3H         LINE#         93
  C:58B3H         LINE#         94
  C:58BDH         LINE#         95
  C:58BDH         LINE#         96
  C:58D8H         LINE#         97
  C:58D8H         LINE#         98
  C:58E2H         LINE#         99
  C:58E2H         LINE#         100
  C:5905H         LINE#         101
  C:5908H         LINE#         102
  C:5973H         LINE#         105
  C:5976H         LINE#         106
  -------         ENDPROC       _SET_PWM_DUTY
  -------         PROC          _GET_PWM_N_DUTY
  D:0007H         SYMBOL        PWM_N
  C:80C6H         LINE#         115
  C:80C6H         LINE#         116
  C:80C6H         LINE#         117
BL51 BANKED LINKER/LOCATER V6.00                                                      08/07/2017  18:56:55  PAGE 94


  C:80DFH         LINE#         118
  -------         ENDPROC       _GET_PWM_N_DUTY
  -------         PROC          _SETPWM_DIV
  D:0007H         SYMBOL        PWM_N
  D:0005H         SYMBOL        DIV
  C:83D3H         LINE#         129
  C:83D3H         LINE#         130
  C:83D3H         LINE#         131
  C:83E3H         LINE#         132
  -------         ENDPROC       _SETPWM_DIV
  -------         PROC          _GETPWM_DIV
  D:0007H         SYMBOL        PWM_N
  C:83E4H         LINE#         141
  C:83E4H         LINE#         142
  C:83E4H         LINE#         143
  C:83F4H         LINE#         144
  -------         ENDPROC       _GETPWM_DIV
  -------         PROC          OPEN_PWM_ALL
  C:84EAH         LINE#         153
  C:84EAH         LINE#         154
  C:84EAH         LINE#         155
  C:84EDH         LINE#         156
  C:84F0H         LINE#         157
  C:84F3H         LINE#         158
  -------         ENDPROC       OPEN_PWM_ALL
  -------         PROC          CLOSE_PWM_ALL
  C:84F4H         LINE#         167
  C:84F4H         LINE#         168
  C:84F4H         LINE#         169
  C:84F7H         LINE#         170
  C:84FAH         LINE#         171
  C:84FDH         LINE#         173
  -------         ENDPROC       CLOSE_PWM_ALL
  -------         PROC          _OPEN_PWM_N
  D:0007H         SYMBOL        PWM_N
  C:7924H         LINE#         182
  C:7924H         LINE#         183
  C:7924H         LINE#         184
  C:7927H         LINE#         185
  C:7934H         LINE#         186
  C:7945H         LINE#         187
  C:7948H         LINE#         188
  C:794BH         LINE#         191
  -------         ENDPROC       _OPEN_PWM_N
  -------         PROC          _CLOSE_PWM_N
  D:0007H         SYMBOL        PWM_N
  C:7A84H         LINE#         200
  C:7A84H         LINE#         201
  C:7A84H         LINE#         202
  C:7A87H         LINE#         203
  C:7A95H         LINE#         204
  C:7AA5H         LINE#         205
  C:7AA8H         LINE#         207
  -------         ENDPROC       _CLOSE_PWM_N
  -------         PROC          _GET_PWM_N_STATE
  D:0007H         SYMBOL        PWM_N
  C:8339H         LINE#         216
BL51 BANKED LINKER/LOCATER V6.00                                                      08/07/2017  18:56:55  PAGE 95


  C:8339H         LINE#         217
  C:8339H         LINE#         219
  C:834AH         LINE#         220
  -------         ENDPROC       _GET_PWM_N_STATE
  -------         PROC          _PWM_INILIZE
  X:0A93H         SYMBOL        PWM_N
  D:0001H         SYMBOL        PWMx
  -------         DO            
  X:0A94H         SYMBOL        i
  -------         ENDDO         
  C:2AC3H         LINE#         228
  C:2AC8H         LINE#         229
  C:2AC8H         LINE#         230
  C:2ACBH         LINE#         231
  C:2AD5H         LINE#         232
  C:2AD5H         LINE#         233
  C:2AEAH         LINE#         234
  C:2AFEH         LINE#         235
  C:2B13H         LINE#         236
  C:2B27H         LINE#         237
  C:2B2FH         LINE#         239
  C:2B32H         LINE#         240
  C:2B38H         LINE#         241
  C:2B38H         LINE#         242
  C:2B3BH         LINE#         243
  C:2B3DH         LINE#         245
  C:2B3DH         LINE#         246
  C:2B40H         LINE#         247
  C:2B40H         LINE#         248
  C:2B49H         LINE#         249
  C:2B49H         LINE#         250
  C:2B5BH         LINE#         251
  C:2B5DH         LINE#         253
  C:2B5DH         LINE#         254
  C:2B70H         LINE#         255
  C:2B70H         LINE#         256
  C:2B79H         LINE#         257
  C:2B79H         LINE#         258
  C:2B7CH         LINE#         259
  C:2B7EH         LINE#         261
  C:2B7EH         LINE#         262
  C:2B81H         LINE#         263
  C:2B81H         LINE#         264
  C:2B8AH         LINE#         265
  C:2B8AH         LINE#         266
  C:2B9CH         LINE#         267
  C:2B9EH         LINE#         269
  C:2B9EH         LINE#         270
  C:2BB1H         LINE#         271
  C:2BB1H         LINE#         272
  C:2BBAH         LINE#         273
  C:2BBAH         LINE#         274
  C:2BBDH         LINE#         275
  C:2BBFH         LINE#         277
  C:2BBFH         LINE#         278
  C:2BC2H         LINE#         279
  C:2BC2H         LINE#         280
BL51 BANKED LINKER/LOCATER V6.00                                                      08/07/2017  18:56:55  PAGE 96


  C:2BCBH         LINE#         281
  C:2BCBH         LINE#         282
  C:2BCEH         LINE#         283
  C:2BD0H         LINE#         285
  C:2BD0H         LINE#         286
  C:2BD3H         LINE#         287
  C:2BD3H         LINE#         288
  C:2BDCH         LINE#         289
  C:2BDCH         LINE#         290
  C:2BDFH         LINE#         291
  C:2BE1H         LINE#         293
  C:2BE1H         LINE#         294
  C:2BE4H         LINE#         295
  C:2BE4H         LINE#         296
  C:2BEDH         LINE#         297
  C:2BEDH         LINE#         298
  C:2BF0H         LINE#         299
  C:2BF2H         LINE#         301
  C:2BF2H         LINE#         302
  C:2BF5H         LINE#         303
  C:2BF5H         LINE#         304
  C:2BFEH         LINE#         305
  C:2BFEH         LINE#         306
  C:2C01H         LINE#         307
  C:2C03H         LINE#         309
  C:2C03H         LINE#         310
  C:2C06H         LINE#         311
  C:2C06H         LINE#         313
  C:2C11H         LINE#         314
  C:2C11H         LINE#         315
  C:2C15H         LINE#         316
  C:2C17H         LINE#         318
  C:2C17H         LINE#         319
  C:2C1BH         LINE#         320
  C:2C1BH         LINE#         322
  C:2C32H         LINE#         323
  C:2C58H         LINE#         324
  C:2C58H         LINE#         325
  C:2C58H         LINE#         326
  C:2C58H         LINE#         327
  C:2C63H         LINE#         328
  C:2C63H         LINE#         329
  C:2C67H         LINE#         330
  C:2C69H         LINE#         332
  C:2C69H         LINE#         333
  C:2C6DH         LINE#         334
  C:2C6DH         LINE#         335
  C:2C79H         LINE#         336
  C:2C79H         LINE#         337
  C:2C7DH         LINE#         338
  C:2C7FH         LINE#         340
  C:2C7FH         LINE#         341
  C:2C83H         LINE#         342
  C:2C83H         LINE#         343
  C:2C8FH         LINE#         344
  C:2C8FH         LINE#         345
  C:2C93H         LINE#         346
BL51 BANKED LINKER/LOCATER V6.00                                                      08/07/2017  18:56:55  PAGE 97


  C:2C95H         LINE#         348
  C:2C95H         LINE#         349
  C:2C99H         LINE#         350
  C:2C99H         LINE#         351
  C:2CA5H         LINE#         352
  C:2CA5H         LINE#         353
  C:2CA5H         LINE#         354
  C:2CA8H         LINE#         356
  C:2CA8H         LINE#         357
  C:2CA8H         LINE#         358
  C:2CA8H         LINE#         359
  C:2CA8H         LINE#         360
  C:2CABH         LINE#         361
  C:2CABH         LINE#         362
  C:2CABH         LINE#         363
  C:2CB6H         LINE#         364
  C:2CB6H         LINE#         365
  C:2CBAH         LINE#         366
  C:2CBCH         LINE#         368
  C:2CBCH         LINE#         369
  C:2CC0H         LINE#         370
  C:2CC0H         LINE#         371
  C:2CCCH         LINE#         372
  C:2CCCH         LINE#         373
  C:2CD0H         LINE#         374
  C:2CD2H         LINE#         376
  C:2CD2H         LINE#         377
  C:2CD6H         LINE#         378
  C:2CD6H         LINE#         379
  C:2CE2H         LINE#         380
  C:2CE2H         LINE#         381
  C:2CE6H         LINE#         382
  C:2CE8H         LINE#         384
  C:2CE8H         LINE#         385
  C:2CECH         LINE#         386
  C:2CECH         LINE#         387
  C:2CF8H         LINE#         388
  C:2CF8H         LINE#         389
  C:2CF8H         LINE#         390
  C:2CFBH         LINE#         392
  C:2CFBH         LINE#         393
  C:2CFBH         LINE#         394
  C:2CFBH         LINE#         395
  C:2CFBH         LINE#         396
  C:2CFEH         LINE#         397
  C:2CFEH         LINE#         398
  C:2CFEH         LINE#         399
  C:2D09H         LINE#         400
  C:2D09H         LINE#         401
  C:2D0DH         LINE#         402
  C:2D0FH         LINE#         404
  C:2D0FH         LINE#         405
  C:2D13H         LINE#         406
  C:2D13H         LINE#         407
  C:2D1FH         LINE#         408
  C:2D1FH         LINE#         409
  C:2D23H         LINE#         410
BL51 BANKED LINKER/LOCATER V6.00                                                      08/07/2017  18:56:55  PAGE 98


  C:2D25H         LINE#         412
  C:2D25H         LINE#         413
  C:2D29H         LINE#         414
  C:2D29H         LINE#         415
  C:2D35H         LINE#         416
  C:2D35H         LINE#         417
  C:2D39H         LINE#         418
  C:2D3BH         LINE#         420
  C:2D3BH         LINE#         421
  C:2D3FH         LINE#         422
  C:2D3FH         LINE#         423
  C:2D4BH         LINE#         424
  C:2D4BH         LINE#         425
  C:2D4BH         LINE#         426
  C:2D4EH         LINE#         428
  C:2D4EH         LINE#         429
  C:2D4EH         LINE#         430
  C:2D4EH         LINE#         431
  C:2D4EH         LINE#         432
  C:2D51H         LINE#         433
  C:2D51H         LINE#         434
  C:2D51H         LINE#         435
  C:2D5CH         LINE#         436
  C:2D5CH         LINE#         437
  C:2D60H         LINE#         438
  C:2D62H         LINE#         440
  C:2D62H         LINE#         441
  C:2D66H         LINE#         442
  C:2D66H         LINE#         443
  C:2D72H         LINE#         444
  C:2D72H         LINE#         445
  C:2D76H         LINE#         446
  C:2D78H         LINE#         448
  C:2D78H         LINE#         449
  C:2D7CH         LINE#         450
  C:2D7CH         LINE#         451
  C:2D88H         LINE#         452
  C:2D88H         LINE#         453
  C:2D8CH         LINE#         454
  C:2D8EH         LINE#         456
  C:2D8EH         LINE#         457
  C:2D92H         LINE#         458
  C:2D92H         LINE#         459
  C:2D9EH         LINE#         460
  C:2D9EH         LINE#         461
  C:2D9EH         LINE#         462
  C:2DA1H         LINE#         464
  C:2DA1H         LINE#         465
  C:2DA1H         LINE#         466
  C:2DA1H         LINE#         467
  C:2DA1H         LINE#         468
  C:2DA4H         LINE#         469
  C:2DA4H         LINE#         470
  C:2DA4H         LINE#         471
  C:2DAFH         LINE#         472
  C:2DAFH         LINE#         473
  C:2DB3H         LINE#         474
BL51 BANKED LINKER/LOCATER V6.00                                                      08/07/2017  18:56:55  PAGE 99


  C:2DB5H         LINE#         476
  C:2DB5H         LINE#         477
  C:2DB9H         LINE#         478
  C:2DB9H         LINE#         479
  C:2DC5H         LINE#         480
  C:2DC5H         LINE#         481
  C:2DC9H         LINE#         482
  C:2DCBH         LINE#         484
  C:2DCBH         LINE#         485
  C:2DCFH         LINE#         486
  C:2DCFH         LINE#         487
  C:2DDBH         LINE#         488
  C:2DDBH         LINE#         489
  C:2DDFH         LINE#         490
  C:2DE1H         LINE#         492
  C:2DE1H         LINE#         493
  C:2DE5H         LINE#         494
  C:2DE5H         LINE#         495
  C:2DF1H         LINE#         496
  C:2DF1H         LINE#         497
  C:2DF1H         LINE#         498
  C:2DF3H         LINE#         500
  C:2DF3H         LINE#         501
  C:2DF3H         LINE#         502
  C:2DF3H         LINE#         503
  C:2DF3H         LINE#         504
  C:2DF5H         LINE#         505
  C:2DF5H         LINE#         506
  C:2DF5H         LINE#         507
  C:2E00H         LINE#         508
  C:2E00H         LINE#         509
  C:2E04H         LINE#         510
  C:2E06H         LINE#         512
  C:2E06H         LINE#         513
  C:2E0AH         LINE#         514
  C:2E0AH         LINE#         515
  C:2E16H         LINE#         516
  C:2E16H         LINE#         517
  C:2E1AH         LINE#         518
  C:2E1CH         LINE#         520
  C:2E1CH         LINE#         521
  C:2E20H         LINE#         522
  C:2E20H         LINE#         523
  C:2E2CH         LINE#         524
  C:2E2CH         LINE#         525
  C:2E30H         LINE#         526
  C:2E32H         LINE#         528
  C:2E32H         LINE#         529
  C:2E36H         LINE#         530
  C:2E36H         LINE#         531
  C:2E42H         LINE#         532
  C:2E42H         LINE#         533
  C:2E46H         LINE#         534
  C:2E48H         LINE#         536
  C:2E48H         LINE#         537
  C:2E4CH         LINE#         538
  C:2E4CH         LINE#         539
BL51 BANKED LINKER/LOCATER V6.00                                                      08/07/2017  18:56:55  PAGE 100


  C:2E4CH         LINE#         540
  C:2E4CH         LINE#         541
  C:2E4CH         LINE#         543
  C:2E4CH         LINE#         544
  C:2E4CH         LINE#         545
  C:2E55H         LINE#         546
  C:2E55H         LINE#         547
  C:2E58H         LINE#         548
  C:2E59H         LINE#         550
  C:2E59H         LINE#         551
  C:2E5CH         LINE#         552
  C:2E5CH         LINE#         553
  -------         ENDPROC       _PWM_INILIZE
  -------         PROC          _PWM_INIT
  D:0007H         SYMBOL        GPIO_Px
  D:0005H         SYMBOL        GPIO_Pin_N
  X:08E6H         SYMBOL        PWM_N
  X:08E7H         SYMBOL        PWM_DIV
  -------         DO            
  X:08E8H         SYMBOL        GPIO_InitStructure
  X:08EAH         SYMBOL        PWM_InitStructure
  -------         ENDDO         
  C:6E4FH         LINE#         555
  C:6E54H         LINE#         556
  C:6E54H         LINE#         559
  C:6E59H         LINE#         560
  C:6E5CH         LINE#         561
  C:6E65H         LINE#         562
  C:6E68H         LINE#         563
  C:6E6DH         LINE#         564
  C:6E6FH         LINE#         565
  C:6E71H         LINE#         566
  C:6E74H         LINE#         567
  C:6E77H         LINE#         568
  C:6E79H         LINE#         569
  C:6E7BH         LINE#         570
  C:6E7DH         LINE#         571
  C:6E7FH         LINE#         572
  C:6E81H         LINE#         573
  C:6E89H         LINE#         574
  C:6E8CH         LINE#         575
  C:6E8EH         LINE#         576
  C:6E90H         LINE#         577
  C:6E92H         LINE#         578
  C:6E94H         LINE#         579
  C:6EA2H         LINE#         580
  C:6EA5H         LINE#         581
  -------         ENDPROC       _PWM_INIT
  -------         PROC          _PWM_SET_PERIOD
  D:0006H         SYMBOL        period
  C:7D9FH         LINE#         593
  C:7D9FH         LINE#         594
  C:7D9FH         LINE#         595
  C:7DAAH         LINE#         596
  C:7DAAH         LINE#         597
  C:7DACH         LINE#         598
  C:7DB1H         LINE#         599
BL51 BANKED LINKER/LOCATER V6.00                                                      08/07/2017  18:56:55  PAGE 101


  C:7DB4H         LINE#         600
  C:7DB4H         LINE#         602
  C:7DB4H         LINE#         603
  C:7DB7H         LINE#         604
  C:7DBDH         LINE#         605
  C:7DBDH         LINE#         606
  -------         ENDPROC       _PWM_SET_PERIOD
  -------         PROC          _PWM_SET_T12_PERIOD
  D:0007H         SYMBOL        PWM_N
  D:0004H         SYMBOL        period1
  D:0002H         SYMBOL        period2
  C:62CBH         LINE#         619
  C:62CBH         LINE#         620
  C:62CBH         LINE#         621
  C:62E2H         LINE#         622
  C:62E2H         LINE#         623
  C:62E2H         LINE#         624
  C:62E7H         LINE#         625
  C:62ECH         LINE#         626
  C:62F1H         LINE#         627
  C:62F5H         LINE#         628
  C:62F7H         LINE#         629
  C:62F7H         LINE#         630
  C:62F7H         LINE#         631
  C:62FCH         LINE#         632
  C:6301H         LINE#         633
  C:6306H         LINE#         634
  C:630AH         LINE#         635
  C:630CH         LINE#         636
  C:630CH         LINE#         637
  C:630CH         LINE#         638
  C:6311H         LINE#         639
  C:6316H         LINE#         640
  C:631BH         LINE#         641
  C:631FH         LINE#         642
  C:6321H         LINE#         643
  C:6321H         LINE#         644
  C:6321H         LINE#         645
  C:6326H         LINE#         646
  C:632BH         LINE#         647
  C:6330H         LINE#         648
  C:6334H         LINE#         649
  C:6336H         LINE#         650
  C:6336H         LINE#         651
  C:6336H         LINE#         652
  C:633BH         LINE#         653
  C:6340H         LINE#         654
  C:6345H         LINE#         655
  C:6349H         LINE#         656
  C:634BH         LINE#         657
  C:634BH         LINE#         658
  C:634BH         LINE#         659
  C:6350H         LINE#         660
  C:6355H         LINE#         661
  C:635AH         LINE#         662
  C:635FH         LINE#         663
  C:6362H         LINE#         664
BL51 BANKED LINKER/LOCATER V6.00                                                      08/07/2017  18:56:55  PAGE 102


  C:6362H         LINE#         665
  C:6362H         LINE#         666
  C:6364H         LINE#         667
  C:6364H         LINE#         668
  C:6364H         LINE#         669
  -------         ENDPROC       _PWM_SET_T12_PERIOD
  -------         ENDMOD        STC15_PWM

  -------         MODULE        STC15_SPI
  C:0000H         SYMBOL        _ICE_DUMMY_
  D:0080H         PUBLIC        P0
  D:0090H         PUBLIC        P1
  D:00A0H         PUBLIC        P2
  D:00B0H         PUBLIC        P3
  D:00C0H         PUBLIC        P4
  D:00C8H         PUBLIC        P5
  C:85CAH         PUBLIC        _setSPIsta
  D:00E8H         PUBLIC        P6
  D:00F8H         PUBLIC        P7
  D:00A8H         PUBLIC        IE
  D:00B8H         PUBLIC        IP
  B:0020H.6       PUBLIC        RX_DR
  B:0020H.5       PUBLIC        TX_DS
  D:00D8H         PUBLIC        CCON
  D:0098H         PUBLIC        SCON
  D:0088H         PUBLIC        TCON
  B:0090H.3       PUBLIC        MOSI
  B:0090H.2       PUBLIC        MISO
  D:00F0H         PUBLIC        B
  D:00E0H         PUBLIC        ACC
  D:0020H         SYMBOL        sta
  C:76EBH         PUBLIC        _SPI_Read_Buf
  C:848CH         PUBLIC        _SPI_Read
  C:85D0H         PUBLIC        getSPIRX_DR
  C:7346H         PUBLIC        _SPI_Write_Buf
  C:8593H         PUBLIC        _setSPIRX_DR
  B:0090H.1       PUBLIC        SCK
  B:0090H.4       PUBLIC        CSN
  B:0020H.4       PUBLIC        MAX_RT
  C:83F5H         PUBLIC        _SPI_RW_Reg
  C:7AFBH         PUBLIC        _SPI_RW
  C:85CDH         PUBLIC        getSPIsta
  D:00D0H         PUBLIC        PSW
  -------         PROC          L?0019
  -------         ENDPROC       L?0019
  -------         PROC          _SPI_RW
  D:0007H         SYMBOL        uchars
  -------         DO            
  D:0006H         SYMBOL        bit_ctr
  -------         ENDDO         
  C:7AFBH         LINE#         28
  C:7AFBH         LINE#         29
  C:7AFBH         LINE#         31
  C:7AFDH         LINE#         32
  C:7AFDH         LINE#         33
  C:7B01H         LINE#         34
  C:7B05H         LINE#         35
BL51 BANKED LINKER/LOCATER V6.00                                                      08/07/2017  18:56:55  PAGE 103


  C:7B07H         LINE#         36
  C:7B0DH         LINE#         37
  C:7B0FH         LINE#         38
  C:7B14H         LINE#         39
  C:7B14H         LINE#         40
  -------         ENDPROC       _SPI_RW
  -------         PROC          _SPI_READ
  D:0007H         SYMBOL        reg
  -------         DO            
  D:0007H         SYMBOL        reg_val
  -------         ENDDO         
  C:848CH         LINE#         45
  C:848CH         LINE#         46
  C:848CH         LINE#         49
  C:848EH         LINE#         50
  C:8491H         LINE#         51
  C:8496H         LINE#         52
  C:8498H         LINE#         54
  C:8498H         LINE#         55
  -------         ENDPROC       _SPI_READ
  -------         PROC          _SPI_RW_REG
  D:0007H         SYMBOL        reg
  D:0005H         SYMBOL        value
  -------         DO            
  D:0004H         SYMBOL        status
  -------         ENDDO         
  C:83F5H         LINE#         59
  C:83F5H         LINE#         60
  C:83F5H         LINE#         63
  C:83F7H         LINE#         64
  C:83FCH         LINE#         65
  C:8401H         LINE#         66
  C:8403H         LINE#         68
  C:8405H         LINE#         69
  -------         ENDPROC       _SPI_RW_REG
  -------         PROC          _SPI_READ_BUF
  D:0007H         SYMBOL        reg
  X:0A67H         SYMBOL        pBuf
  X:0A6AH         SYMBOL        uchars
  -------         DO            
  D:0005H         SYMBOL        status
  D:0004H         SYMBOL        uchar_ctr
  -------         ENDDO         
  C:76EBH         LINE#         74
  C:76EEH         LINE#         75
  C:76EEH         LINE#         78
  C:76EEH         LINE#         79
  C:76F3H         LINE#         81
  C:76FFH         LINE#         82
  C:771BH         LINE#         84
  C:771DH         LINE#         86
  C:771FH         LINE#         87
  -------         ENDPROC       _SPI_READ_BUF
  -------         PROC          _SPI_WRITE_BUF
  D:0007H         SYMBOL        reg
  X:0A2AH         SYMBOL        pBuf
  X:0A2DH         SYMBOL        uchars
BL51 BANKED LINKER/LOCATER V6.00                                                      08/07/2017  18:56:55  PAGE 104


  -------         DO            
  X:0A2EH         SYMBOL        status
  D:0005H         SYMBOL        uchar_ctr
  -------         ENDDO         
  C:7346H         LINE#         92
  C:7349H         LINE#         93
  C:7349H         LINE#         96
  C:7349H         LINE#         97
  C:7351H         LINE#         98
  C:7358H         LINE#         99
  C:7364H         LINE#         100
  C:737EH         LINE#         101
  C:7380H         LINE#         102
  C:7385H         LINE#         103
  -------         ENDPROC       _SPI_WRITE_BUF
  -------         PROC          _SETSPISTA
  D:0007H         SYMBOL        uchars
  C:85CAH         LINE#         105
  C:85CAH         LINE#         106
  C:85CAH         LINE#         107
  C:85CCH         LINE#         108
  -------         ENDPROC       _SETSPISTA
  -------         PROC          GETSPISTA
  C:85CDH         LINE#         110
  C:85CDH         LINE#         111
  C:85CDH         LINE#         112
  C:85CFH         LINE#         113
  -------         ENDPROC       GETSPISTA
  -------         PROC          _SETSPIRX_DR
  D:0007H         SYMBOL        value
  C:8593H         LINE#         115
  C:8593H         LINE#         116
  C:8593H         LINE#         117
  C:8598H         LINE#         118
  -------         ENDPROC       _SETSPIRX_DR
  -------         PROC          GETSPIRX_DR
  C:85D0H         LINE#         120
  C:85D0H         LINE#         121
  C:85D0H         LINE#         122
  C:85D2H         LINE#         123
  -------         ENDPROC       GETSPIRX_DR
  -------         ENDMOD        STC15_SPI

  -------         MODULE        TIMER
  C:0000H         SYMBOL        _ICE_DUMMY_
  D:0080H         PUBLIC        P0
  D:0090H         PUBLIC        P1
  D:00A0H         PUBLIC        P2
  D:00B0H         PUBLIC        P3
  D:00C0H         PUBLIC        P4
  D:00C8H         PUBLIC        P5
  C:711EH         SYMBOL        timer4_int
  D:00E8H         PUBLIC        P6
  D:00F8H         PUBLIC        P7
  X:08FAH         SYMBOL        minutes
  X:08FBH         SYMBOL        millis
  D:00A8H         PUBLIC        IE
BL51 BANKED LINKER/LOCATER V6.00                                                      08/07/2017  18:56:55  PAGE 105


  C:81D2H         PUBLIC        _restartTimer
  X:08FDH         SYMBOL        micros
  C:8599H         PUBLIC        getSeconds
  D:00B8H         PUBLIC        IP
  C:80E0H         PUBLIC        _getTimerout
  D:00D8H         PUBLIC        CCON
  C:859FH         PUBLIC        getMinutes
  C:856AH         PUBLIC        getMillis
  X:08FFH         SYMBOL        days
  C:8561H         PUBLIC        getMicros
  X:0900H         SYMBOL        hours
  D:0098H         PUBLIC        SCON
  D:0089H         PUBLIC        TMOD
  D:0088H         PUBLIC        TCON
  C:7DDDH         PUBLIC        _isExpiredTimer
  X:0901H         PUBLIC        Timer1_state
  C:78D3H         PUBLIC        _setTimeout
  X:0902H         PUBLIC        Timer2_state
  C:67B5H         PUBLIC        timerInit
  C:3A77H         SYMBOL        _Timer_Inilize
  D:00AFH         PUBLIC        IE2
  C:7ECBH         PUBLIC        _isStopped
  D:00F0H         PUBLIC        B
  D:008EH         PUBLIC        AUXR
  C:7DBEH         PUBLIC        _isActiveTimer
  D:00E0H         PUBLIC        ACC
  B:00A8H.1       PUBLIC        ET0
  B:00A8H.3       PUBLIC        ET1
  D:008CH         PUBLIC        TH0
  C:8471H         PUBLIC        _onRestartTimer
  C:8499H         PUBLIC        _stopTimer
  D:008DH         PUBLIC        TH1
  X:0903H         SYMBOL        Timer1_temp
  D:00D6H         PUBLIC        TH2
  X:0905H         SYMBOL        Timer2_temp
  D:00D4H         PUBLIC        TH3
  D:00D2H         PUBLIC        TH4
  D:008AH         PUBLIC        TL0
  D:008BH         PUBLIC        TL1
  D:00D7H         PUBLIC        TL2
  D:00D5H         PUBLIC        TL3
  B:00B8H.1       PUBLIC        PT0
  D:00D3H         PUBLIC        TL4
  C:85ABH         PUBLIC        getDays
  B:00B8H.3       PUBLIC        PT1
  C:85A5H         PUBLIC        getHours
  B:0088H.4       PUBLIC        TR0
  C:80FAH         PUBLIC        _getTimerHertz
  B:0088H.6       PUBLIC        TR1
  D:00D1H         PUBLIC        T4T3M
  X:0907H         PUBLIC        timer1_struct
  X:090BH         PUBLIC        timer2_struct
  C:7F3CH         PUBLIC        _setTimerHertz
  X:090FH         SYMBOL        seconds
  D:008FH         PUBLIC        INT_CLKO
  D:00D0H         PUBLIC        PSW
  -------         PROC          TIMERINIT
BL51 BANKED LINKER/LOCATER V6.00                                                      08/07/2017  18:56:55  PAGE 106


  -------         DO            
  X:0290H         SYMBOL        USER_Timer
  X:0298H         SYMBOL        Pulser_1_Timer
  X:02A0H         SYMBOL        Pulser_2_Timer
  X:02A8H         SYMBOL        HC_SR04_Timer
  X:02B0H         SYMBOL        Error_Code
  -------         ENDDO         
  C:67B5H         LINE#         88
  C:67B5H         LINE#         89
  C:67B5H         LINE#         95
  C:67BAH         LINE#         98
  C:67BEH         LINE#         99
  C:67C1H         LINE#         100
  C:67C3H         LINE#         101
  C:67C6H         LINE#         102
  C:67C8H         LINE#         103
  C:67CCH         LINE#         104
  C:67D6H         LINE#         106
  C:67DBH         LINE#         107
  C:67DEH         LINE#         108
  C:67E1H         LINE#         109
  C:67E3H         LINE#         110
  C:67E5H         LINE#         111
  C:67E9H         LINE#         112
  C:67F1H         LINE#         115
  C:67F6H         LINE#         116
  C:67F9H         LINE#         117
  C:67FBH         LINE#         118
  C:67FDH         LINE#         120
  C:6802H         LINE#         123
  C:6804H         LINE#         124
  C:6807H         LINE#         125
  C:6809H         LINE#         126
  C:680BH         LINE#         128
  C:6810H         LINE#         129
  C:681BH         LINE#         130
  C:6826H         LINE#         131
  -------         ENDPROC       TIMERINIT
  -------         PROC          _SETTIMEOUT
  D:0007H         SYMBOL        whichTimer
  D:0004H         SYMBOL        time
  C:78D3H         LINE#         187
  C:78D3H         LINE#         188
  C:78D3H         LINE#         189
  C:78E1H         LINE#         190
  C:78E1H         LINE#         191
  C:78E9H         LINE#         192
  C:78E9H         LINE#         194
  C:78E9H         LINE#         195
  C:78E9H         LINE#         196
  C:78F1H         LINE#         200
  C:78F1H         LINE#         201
  C:78F1H         LINE#         202
  C:78F1H         LINE#         203
  C:78FBH         LINE#         204
  C:78FBH         LINE#         205
  C:78FBH         LINE#         206
BL51 BANKED LINKER/LOCATER V6.00                                                      08/07/2017  18:56:55  PAGE 107


  C:78FBH         LINE#         207
  C:78FBH         LINE#         208
  C:78FBH         LINE#         209
  -------         ENDPROC       _SETTIMEOUT
  -------         PROC          _GETTIMEROUT
  D:0007H         SYMBOL        whichTimer
  C:80E0H         LINE#         218
  C:80E0H         LINE#         219
  C:80E0H         LINE#         220
  C:80E8H         LINE#         221
  C:80E8H         LINE#         223
  C:80E8H         LINE#         224
  C:80E8H         LINE#         225
  C:80EDH         LINE#         226
  C:80EDH         LINE#         227
  C:80EDH         LINE#         228
  C:80EDH         LINE#         229
  C:80EDH         LINE#         230
  C:80F6H         LINE#         231
  C:80F6H         LINE#         232
  C:80F6H         LINE#         234
  C:80F9H         LINE#         235
  C:80F9H         LINE#         237
  -------         ENDPROC       _GETTIMEROUT
  -------         PROC          _SETTIMERHERTZ
  D:0007H         SYMBOL        whichTimer
  D:0004H         SYMBOL        Hz
  C:7F3CH         LINE#         248
  C:7F3CH         LINE#         249
  C:7F3CH         LINE#         250
  C:7F44H         LINE#         251
  C:7F44H         LINE#         253
  C:7F44H         LINE#         254
  C:7F44H         LINE#         255
  C:7F4CH         LINE#         256
  C:7F4CH         LINE#         257
  C:7F4DH         LINE#         258
  C:7F4DH         LINE#         259
  C:7F4DH         LINE#         260
  C:7F57H         LINE#         261
  C:7F57H         LINE#         262
  C:7F57H         LINE#         264
  C:7F57H         LINE#         267
  -------         ENDPROC       _SETTIMERHERTZ
  -------         PROC          _GETTIMERHERTZ
  D:0007H         SYMBOL        whichTimer
  C:80FAH         LINE#         268
  C:80FAH         LINE#         269
  C:80FAH         LINE#         270
  C:8102H         LINE#         271
  C:8102H         LINE#         273
  C:8102H         LINE#         274
  C:8102H         LINE#         275
  C:8102H         LINE#         276
  C:8107H         LINE#         277
  C:8107H         LINE#         278
  C:8107H         LINE#         279
BL51 BANKED LINKER/LOCATER V6.00                                                      08/07/2017  18:56:55  PAGE 108


  C:8107H         LINE#         280
  C:8107H         LINE#         281
  C:8110H         LINE#         282
  C:8110H         LINE#         283
  C:8110H         LINE#         284
  C:8113H         LINE#         285
  C:8113H         LINE#         286
  -------         ENDPROC       _GETTIMERHERTZ
  -------         PROC          _STOPTIMER
  D:0007H         SYMBOL        whichTimer
  C:8499H         LINE#         296
  C:8499H         LINE#         297
  C:8499H         LINE#         298
  C:849DH         LINE#         299
  C:849DH         LINE#         300
  C:849DH         LINE#         301
  C:849DH         LINE#         302
  C:84A0H         LINE#         303
  C:84A5H         LINE#         305
  C:84A5H         LINE#         306
  C:84A5H         LINE#         307
  C:84A5H         LINE#         308
  C:84A5H         LINE#         312
  C:84A5H         LINE#         313
  C:84A5H         LINE#         314
  C:84A5H         LINE#         316
  -------         ENDPROC       _STOPTIMER
  -------         PROC          _ISACTIVETIMER
  D:0007H         SYMBOL        whichTimer
  C:7DBEH         LINE#         326
  C:7DBEH         LINE#         327
  C:7DBEH         LINE#         328
  C:7DC6H         LINE#         329
  C:7DC6H         LINE#         330
  C:7DC6H         LINE#         331
  C:7DC6H         LINE#         332
  C:7DD1H         LINE#         334
  C:7DD1H         LINE#         335
  C:7DD1H         LINE#         336
  C:7DD1H         LINE#         337
  C:7DDCH         LINE#         339
  C:7DDCH         LINE#         340
  C:7DDCH         LINE#         341
  C:7DDCH         LINE#         342
  -------         ENDPROC       _ISACTIVETIMER
  -------         PROC          _ISEXPIREDTIMER
  D:0007H         SYMBOL        whichTimer
  C:7DDDH         LINE#         352
  C:7DDDH         LINE#         353
  C:7DDDH         LINE#         354
  C:7DE5H         LINE#         355
  C:7DE5H         LINE#         356
  C:7DE5H         LINE#         357
  C:7DE5H         LINE#         358
  C:7DF0H         LINE#         359
  C:7DF0H         LINE#         360
  C:7DF0H         LINE#         361
BL51 BANKED LINKER/LOCATER V6.00                                                      08/07/2017  18:56:55  PAGE 109


  C:7DF0H         LINE#         362
  C:7DFBH         LINE#         363
  C:7DFBH         LINE#         364
  C:7DFBH         LINE#         365
  C:7DFBH         LINE#         368
  -------         ENDPROC       _ISEXPIREDTIMER
  -------         PROC          _ISSTOPPED
  D:0007H         SYMBOL        whichtimer
  C:7ECBH         LINE#         378
  C:7ECBH         LINE#         379
  C:7ECBH         LINE#         380
  C:7ED3H         LINE#         381
  C:7ED3H         LINE#         382
  C:7ED3H         LINE#         383
  C:7ED3H         LINE#         384
  C:7EDDH         LINE#         385
  C:7EDDH         LINE#         386
  C:7EDDH         LINE#         387
  C:7EDDH         LINE#         388
  C:7EE7H         LINE#         389
  C:7EE7H         LINE#         390
  C:7EE7H         LINE#         391
  C:7EE7H         LINE#         392
  -------         ENDPROC       _ISSTOPPED
  -------         PROC          _RESTARTTIMER
  D:0006H         SYMBOL        whichTimer
  C:81D2H         LINE#         403
  C:81D4H         LINE#         404
  C:81D4H         LINE#         405
  C:81D9H         LINE#         406
  C:81D9H         LINE#         407
  C:81DDH         LINE#         408
  C:81DDH         LINE#         409
  C:81DDH         LINE#         410
  C:81DDH         LINE#         411
  C:81E0H         LINE#         412
  C:81E6H         LINE#         416
  C:81E6H         LINE#         417
  C:81E6H         LINE#         418
  C:81E6H         LINE#         419
  C:81E6H         LINE#         422
  C:81E6H         LINE#         423
  C:81E6H         LINE#         424
  C:81E6H         LINE#         425
  C:81E6H         LINE#         426
  C:81E6H         LINE#         430
  C:81E6H         LINE#         431
  -------         ENDPROC       _RESTARTTIMER
  -------         PROC          _ONRESTARTTIMER
  D:0006H         SYMBOL        whichTimer
  C:8471H         LINE#         441
  C:8473H         LINE#         442
  C:8473H         LINE#         443
  C:8478H         LINE#         444
  C:8478H         LINE#         445
  C:847BH         LINE#         446
  C:847DH         LINE#         447
BL51 BANKED LINKER/LOCATER V6.00                                                      08/07/2017  18:56:55  PAGE 110


  C:847DH         LINE#         449
  C:847DH         LINE#         450
  C:847EH         LINE#         451
  C:847EH         LINE#         453
  -------         ENDPROC       _ONRESTARTTIMER
  -------         PROC          GETMICROS
  C:8561H         LINE#         457
  C:8561H         LINE#         458
  C:8561H         LINE#         460
  C:8569H         LINE#         461
  -------         ENDPROC       GETMICROS
  -------         PROC          GETMILLIS
  C:856AH         LINE#         463
  C:856AH         LINE#         464
  C:856AH         LINE#         465
  C:8572H         LINE#         466
  -------         ENDPROC       GETMILLIS
  -------         PROC          GETSECONDS
  C:8599H         LINE#         467
  C:8599H         LINE#         468
  C:8599H         LINE#         469
  C:859EH         LINE#         470
  -------         ENDPROC       GETSECONDS
  -------         PROC          GETMINUTES
  C:859FH         LINE#         471
  C:859FH         LINE#         472
  C:859FH         LINE#         473
  C:85A4H         LINE#         474
  -------         ENDPROC       GETMINUTES
  -------         PROC          GETHOURS
  C:85A5H         LINE#         475
  C:85A5H         LINE#         476
  C:85A5H         LINE#         477
  C:85AAH         LINE#         478
  -------         ENDPROC       GETHOURS
  -------         PROC          GETDAYS
  C:85ABH         LINE#         479
  C:85ABH         LINE#         480
  C:85ABH         LINE#         481
  C:85B0H         LINE#         482
  -------         ENDPROC       GETDAYS
  -------         PROC          TIMER4_INT
  C:711EH         LINE#         487
  C:712FH         LINE#         491
  C:7148H         LINE#         492
  C:7148H         LINE#         494
  C:714BH         LINE#         496
  C:7152H         LINE#         497
  C:7157H         LINE#         498
  C:7157H         LINE#         500
  -------         ENDPROC       TIMER4_INT
  -------         PROC          _TIMER_INILIZE
  D:0005H         SYMBOL        TIM
  D:0001H         SYMBOL        TIMx
  C:3A77H         LINE#         579
  C:3A79H         LINE#         580
  C:3A79H         LINE#         581
BL51 BANKED LINKER/LOCATER V6.00                                                      08/07/2017  18:56:55  PAGE 111


  C:3A82H         LINE#         583
  C:3A85H         LINE#         584
  C:3A85H         LINE#         585
  C:3A91H         LINE#         586
  C:3A93H         LINE#         587
  C:3A95H         LINE#         588
  C:3A97H         LINE#         589
  C:3A9AH         LINE#         590
  C:3A9DH         LINE#         591
  C:3AA0H         LINE#         592
  C:3AABH         LINE#         593
  C:3AB6H         LINE#         594
  C:3AB9H         LINE#         595
  C:3AC5H         LINE#         596
  C:3ACCH         LINE#         597
  C:3AD8H         LINE#         599
  C:3AE2H         LINE#         600
  C:3AEAH         LINE#         601
  C:3AF5H         LINE#         602
  C:3AF8H         LINE#         603
  C:3AF8H         LINE#         605
  C:3B00H         LINE#         606
  C:3B00H         LINE#         607
  C:3B02H         LINE#         608
  C:3B0FH         LINE#         609
  C:3B11H         LINE#         610
  C:3B1EH         LINE#         611
  C:3B20H         LINE#         612
  C:3B2CH         LINE#         613
  C:3B33H         LINE#         614
  C:3B40H         LINE#         615
  C:3B46H         LINE#         616
  C:3B4FH         LINE#         617
  C:3B52H         LINE#         618
  C:3B60H         LINE#         619
  C:3B63H         LINE#         621
  C:3B6DH         LINE#         622
  C:3B75H         LINE#         623
  C:3B80H         LINE#         624
  C:3B83H         LINE#         625
  C:3B83H         LINE#         627
  C:3B88H         LINE#         628
  C:3B88H         LINE#         629
  C:3B8BH         LINE#         630
  C:3B99H         LINE#         631
  C:3B9CH         LINE#         632
  C:3BABH         LINE#         633
  C:3BB2H         LINE#         634
  C:3BBDH         LINE#         635
  C:3BCBH         LINE#         636
  C:3BCEH         LINE#         637
  C:3BDCH         LINE#         638
  C:3BDFH         LINE#         640
  C:3BE9H         LINE#         641
  C:3BF1H         LINE#         642
  C:3BFDH         LINE#         643
  C:3C00H         LINE#         644
BL51 BANKED LINKER/LOCATER V6.00                                                      08/07/2017  18:56:55  PAGE 112


  C:3C00H         LINE#         646
  C:3C05H         LINE#         647
  C:3C05H         LINE#         648
  C:3C14H         LINE#         649
  C:3C17H         LINE#         650
  C:3C1AH         LINE#         651
  C:3C26H         LINE#         652
  C:3C2CH         LINE#         653
  C:3C38H         LINE#         654
  C:3C44H         LINE#         656
  C:3C4EH         LINE#         657
  C:3C56H         LINE#         658
  C:3C62H         LINE#         659
  C:3C65H         LINE#         660
  C:3C65H         LINE#         662
  C:3C6AH         LINE#         663
  C:3C6AH         LINE#         664
  C:3C79H         LINE#         665
  C:3C7CH         LINE#         666
  C:3C7FH         LINE#         667
  C:3C8BH         LINE#         668
  C:3C91H         LINE#         669
  C:3C9DH         LINE#         671
  C:3CA9H         LINE#         672
  C:3CABH         LINE#         673
  C:3CB7H         LINE#         674
  C:3CC3H         LINE#         676
  C:3CC6H         LINE#         677
  C:3CC6H         LINE#         679
  C:3CC8H         LINE#         680
  -------         ENDPROC       _TIMER_INILIZE
  -------         ENDMOD        TIMER

  -------         MODULE        USART1
  C:0000H         SYMBOL        _ICE_DUMMY_
  D:0080H         PUBLIC        P0
  D:0090H         PUBLIC        P1
  D:00A0H         PUBLIC        P2
  D:00B0H         PUBLIC        P3
  D:00C0H         PUBLIC        P4
  D:00C8H         PUBLIC        P5
  B:00A8H.7       PUBLIC        EA
  D:00E8H         PUBLIC        P6
  D:00F8H         PUBLIC        P7
  D:00A2H         PUBLIC        P_SW1
  D:00BAH         PUBLIC        P_SW2
  D:00A8H         PUBLIC        IE
  X:0000H         PUBLIC        COM1
  C:8406H         PUBLIC        _setUART1Interrupt
  X:0007H         PUBLIC        COM2
  X:000EH         PUBLIC        COM3
  X:0015H         PUBLIC        COM4
  B:00A8H.4       PUBLIC        ES
  D:00B8H         PUBLIC        IP
  X:001CH         PUBLIC        RX1_Buffer
  X:009CH         PUBLIC        RX2_Buffer
  B:0098H.0       PUBLIC        RI
BL51 BANKED LINKER/LOCATER V6.00                                                      08/07/2017  18:56:55  PAGE 113


  C:5EDDH         PUBLIC        UART1_int
  X:011CH         PUBLIC        RX3_Buffer
  X:0138H         PUBLIC        TX1_Buffer
  C:6626H         PUBLIC        UART2_int
  X:01B8H         PUBLIC        RX4_Buffer
  X:01D4H         PUBLIC        TX2_Buffer
  B:0098H.1       PUBLIC        TI
  C:66ABH         PUBLIC        UART3_int
  X:0254H         PUBLIC        TX3_Buffer
  C:6730H         PUBLIC        UART4_int
  X:0270H         PUBLIC        functionTmp
  X:0271H         PUBLIC        TX4_Buffer
  B:00B8H.4       PUBLIC        PS
  D:00D8H         PUBLIC        CCON
  C:4B34H         SYMBOL        _itoa
  D:0099H         PUBLIC        SBUF
  D:0087H         PUBLIC        PCON
  D:0098H         PUBLIC        SCON
  D:0089H         PUBLIC        TMOD
  D:0088H         PUBLIC        TCON
  C:31F0H         PUBLIC        _USART1_printf
  C:8190H         PUBLIC        _PrintString1
  C:8270H         PUBLIC        _PrintString2
  C:8283H         PUBLIC        _PrintString3
  X:028DH         PUBLIC        _interruptFunction
  C:8296H         PUBLIC        _PrintString4
  D:00AFH         PUBLIC        IE2
  D:00F0H         PUBLIC        B
  D:008EH         PUBLIC        AUXR
  C:79EBH         PUBLIC        _TX1_write2buff
  C:794CH         PUBLIC        _TX2_write2buff
  C:7974H         PUBLIC        _TX3_write2buff
  D:00E0H         PUBLIC        ACC
  C:799CH         PUBLIC        _TX4_write2buff
  B:00A8H.3       PUBLIC        ET1
  D:00B5H         PUBLIC        IP2
  D:008DH         PUBLIC        TH1
  D:00D6H         PUBLIC        TH2
  D:00D4H         PUBLIC        TH3
  D:00D2H         PUBLIC        TH4
  D:008BH         PUBLIC        TL1
  D:00D7H         PUBLIC        TL2
  C:130DH         PUBLIC        _USART_Configuration
  D:00D5H         PUBLIC        TL3
  D:00D3H         PUBLIC        TL4
  B:0088H.6       PUBLIC        TR1
  D:00D1H         PUBLIC        T4T3M
  D:009BH         PUBLIC        S2BUF
  D:0097H         PUBLIC        PCON2
  D:00ADH         PUBLIC        S3BUF
  B:0098H.4       PUBLIC        REN
  D:0085H         PUBLIC        S4BUF
  D:009AH         PUBLIC        S2CON
  D:00ACH         PUBLIC        S3CON
  D:0084H         PUBLIC        S4CON
  D:008FH         PUBLIC        INT_CLKO
  D:00D0H         PUBLIC        PSW
BL51 BANKED LINKER/LOCATER V6.00                                                      08/07/2017  18:56:55  PAGE 114


  -------         PROC          _SETUART1INTERRUPT
  D:0001H         SYMBOL        function
  D:0005H         SYMBOL        tmp
  C:8406H         LINE#         28
  C:8406H         LINE#         29
  C:8406H         LINE#         30
  C:8411H         LINE#         31
  C:8416H         LINE#         32
  -------         ENDPROC       _SETUART1INTERRUPT
  -------         PROC          _USART_CONFIGURATION
  X:029DH         SYMBOL        UARTx
  X:029EH         SYMBOL        COMx
  -------         DO            
  X:02A1H         SYMBOL        i
  X:02A2H         SYMBOL        j
  -------         ENDDO         
  C:130DH         LINE#         33
  C:131DH         LINE#         34
  C:131DH         LINE#         38
  C:1324H         LINE#         39
  C:1324H         LINE#         40
  C:1329H         LINE#         41
  C:132CH         LINE#         42
  C:132EH         LINE#         43
  C:1330H         LINE#         44
  C:1332H         LINE#         45
  C:1334H         LINE#         46
  C:1336H         LINE#         47
  C:1358H         LINE#         48
  C:137BH         LINE#         50
  C:1391H         LINE#         51
  C:139EH         LINE#         52
  C:13A0H         LINE#         53
  C:13ABH         LINE#         54
  C:13B8H         LINE#         55
  C:13B8H         LINE#         56
  C:13CFH         LINE#         57
  C:13ECH         LINE#         58
  C:140EH         LINE#         59
  C:1424H         LINE#         60
  C:1424H         LINE#         61
  C:1426H         LINE#         62
  C:1429H         LINE#         63
  C:142CH         LINE#         64
  C:142FH         LINE#         65
  C:1432H         LINE#         66
  C:1447H         LINE#         67
  C:1450H         LINE#         68
  C:1452H         LINE#         69
  C:1455H         LINE#         70
  C:1458H         LINE#         71
  C:145AH         LINE#         72
  C:145CH         LINE#         73
  C:1461H         LINE#         74
  C:1461H         LINE#         75
  C:1464H         LINE#         76
  C:1467H         LINE#         77
BL51 BANKED LINKER/LOCATER V6.00                                                      08/07/2017  18:56:55  PAGE 115


  C:146AH         LINE#         78
  C:146DH         LINE#         79
  C:1482H         LINE#         80
  C:148BH         LINE#         81
  C:148EH         LINE#         82
  C:1491H         LINE#         83
  C:1494H         LINE#         84
  C:1496H         LINE#         85
  C:1499H         LINE#         86
  C:1499H         LINE#         87
  C:14AAH         LINE#         88
  C:14AAH         LINE#         89
  C:14B8H         LINE#         90
  C:14BBH         LINE#         91
  C:14BDH         LINE#         92
  C:14C1H         LINE#         93
  C:14C1H         LINE#         94
  C:14CFH         LINE#         95
  C:14D2H         LINE#         96
  C:14D2H         LINE#         97
  C:14EAH         LINE#         98
  C:14ECH         LINE#         99
  C:14F9H         LINE#         100
  C:14FBH         LINE#         101
  C:150BH         LINE#         102
  C:1519H         LINE#         103
  C:151CH         LINE#         104
  C:151FH         LINE#         105
  C:151FH         LINE#         107
  C:152AH         LINE#         108
  C:152AH         LINE#         109
  C:1530H         LINE#         110
  C:1533H         LINE#         111
  C:1535H         LINE#         112
  C:1537H         LINE#         113
  C:1539H         LINE#         114
  C:153BH         LINE#         115
  C:153DH         LINE#         116
  C:155FH         LINE#         117
  C:1582H         LINE#         119
  C:159DH         LINE#         120
  C:159DH         LINE#         121
  C:15ABH         LINE#         122
  C:15AEH         LINE#         123
  C:15B9H         LINE#         124
  C:15BCH         LINE#         125
  C:15D3H         LINE#         126
  C:15F0H         LINE#         127
  C:1612H         LINE#         128
  C:1615H         LINE#         129
  C:1618H         LINE#         130
  C:161BH         LINE#         131
  C:1630H         LINE#         132
  C:1639H         LINE#         133
  C:163CH         LINE#         134
  C:163FH         LINE#         135
  C:1641H         LINE#         136
BL51 BANKED LINKER/LOCATER V6.00                                                      08/07/2017  18:56:55  PAGE 116


  C:1644H         LINE#         137
  C:165DH         LINE#         138
  C:1660H         LINE#         139
  C:166EH         LINE#         140
  C:1671H         LINE#         141
  C:1681H         LINE#         142
  C:1681H         LINE#         144
  C:168CH         LINE#         145
  C:168CH         LINE#         146
  C:1692H         LINE#         147
  C:1695H         LINE#         148
  C:1697H         LINE#         149
  C:1699H         LINE#         150
  C:169BH         LINE#         151
  C:169DH         LINE#         152
  C:169FH         LINE#         153
  C:16C1H         LINE#         154
  C:16E4H         LINE#         155
  C:16FFH         LINE#         156
  C:16FFH         LINE#         157
  C:1702H         LINE#         158
  C:170BH         LINE#         159
  C:170EH         LINE#         160
  C:1730H         LINE#         161
  C:174DH         LINE#         162
  C:176FH         LINE#         163
  C:1785H         LINE#         164
  C:1785H         LINE#         165
  C:1788H         LINE#         166
  C:178BH         LINE#         167
  C:178EH         LINE#         168
  C:1791H         LINE#         169
  C:17A6H         LINE#         170
  C:17AFH         LINE#         171
  C:17B2H         LINE#         172
  C:17B5H         LINE#         173
  C:17B7H         LINE#         174
  C:17BCH         LINE#         175
  C:17BCH         LINE#         176
  C:17BFH         LINE#         177
  C:17C2H         LINE#         178
  C:17C5H         LINE#         179
  C:17C8H         LINE#         180
  C:17CBH         LINE#         181
  C:17CEH         LINE#         182
  C:17E3H         LINE#         183
  C:17ECH         LINE#         184
  C:17EFH         LINE#         185
  C:17F1H         LINE#         186
  C:17F4H         LINE#         187
  C:17F4H         LINE#         188
  C:17F7H         LINE#         189
  C:1810H         LINE#         190
  C:1813H         LINE#         191
  C:1821H         LINE#         192
  C:1824H         LINE#         193
  C:1831H         LINE#         194
BL51 BANKED LINKER/LOCATER V6.00                                                      08/07/2017  18:56:55  PAGE 117


  C:1834H         LINE#         196
  C:1834H         LINE#         198
  C:183FH         LINE#         199
  C:183FH         LINE#         200
  C:1845H         LINE#         201
  C:1848H         LINE#         202
  C:184AH         LINE#         203
  C:184CH         LINE#         204
  C:184EH         LINE#         205
  C:1850H         LINE#         206
  C:1852H         LINE#         207
  C:1874H         LINE#         208
  C:1897H         LINE#         210
  C:18B2H         LINE#         211
  C:18B2H         LINE#         212
  C:18B5H         LINE#         213
  C:18BEH         LINE#         214
  C:18C1H         LINE#         215
  C:18E3H         LINE#         216
  C:1900H         LINE#         217
  C:1922H         LINE#         218
  C:1938H         LINE#         219
  C:1938H         LINE#         220
  C:193BH         LINE#         221
  C:193EH         LINE#         222
  C:1941H         LINE#         223
  C:1944H         LINE#         224
  C:1959H         LINE#         225
  C:1962H         LINE#         226
  C:1965H         LINE#         227
  C:1968H         LINE#         228
  C:196AH         LINE#         229
  C:196FH         LINE#         230
  C:196FH         LINE#         231
  C:1972H         LINE#         232
  C:1975H         LINE#         233
  C:1978H         LINE#         234
  C:197BH         LINE#         235
  C:197EH         LINE#         236
  C:1981H         LINE#         237
  C:1996H         LINE#         238
  C:199FH         LINE#         239
  C:19A2H         LINE#         240
  C:19A4H         LINE#         241
  C:19A7H         LINE#         242
  C:19A7H         LINE#         243
  C:19AAH         LINE#         244
  C:19C3H         LINE#         245
  C:19C6H         LINE#         246
  C:19D4H         LINE#         247
  C:19D7H         LINE#         248
  C:19E7H         LINE#         249
  C:19EAH         LINE#         250
  C:19EAH         LINE#         252
  C:19ECH         LINE#         253
  -------         ENDPROC       _USART_CONFIGURATION
  -------         PROC          _TX1_WRITE2BUFF
BL51 BANKED LINKER/LOCATER V6.00                                                      08/07/2017  18:56:55  PAGE 118


  D:0007H         SYMBOL        dat
  C:79EBH         LINE#         258
  C:79EBH         LINE#         259
  C:79EBH         LINE#         260
  C:79FAH         LINE#         261
  C:7A07H         LINE#         263
  C:7A0DH         LINE#         264
  C:7A0DH         LINE#         265
  C:7A0FH         LINE#         266
  C:7A11H         LINE#         267
  C:7A11H         LINE#         268
  -------         ENDPROC       _TX1_WRITE2BUFF
  -------         PROC          _TX2_WRITE2BUFF
  D:0007H         SYMBOL        dat
  C:794CH         LINE#         270
  C:794CH         LINE#         271
  C:794CH         LINE#         272
  C:795BH         LINE#         273
  C:7968H         LINE#         275
  C:796EH         LINE#         276
  C:796EH         LINE#         277
  C:7970H         LINE#         278
  C:7973H         LINE#         279
  C:7973H         LINE#         280
  -------         ENDPROC       _TX2_WRITE2BUFF
  -------         PROC          _TX3_WRITE2BUFF
  D:0007H         SYMBOL        dat
  C:7974H         LINE#         282
  C:7974H         LINE#         283
  C:7974H         LINE#         284
  C:7983H         LINE#         285
  C:7990H         LINE#         287
  C:7996H         LINE#         288
  C:7996H         LINE#         289
  C:7998H         LINE#         290
  C:799BH         LINE#         291
  C:799BH         LINE#         292
  -------         ENDPROC       _TX3_WRITE2BUFF
  -------         PROC          _TX4_WRITE2BUFF
  D:0007H         SYMBOL        dat
  C:799CH         LINE#         294
  C:799CH         LINE#         295
  C:799CH         LINE#         296
  C:79ABH         LINE#         297
  C:79B8H         LINE#         299
  C:79BEH         LINE#         300
  C:79BEH         LINE#         301
  C:79C0H         LINE#         302
  C:79C3H         LINE#         303
  C:79C3H         LINE#         304
  -------         ENDPROC       _TX4_WRITE2BUFF
  -------         PROC          _PRINTSTRING1
  D:0001H         SYMBOL        puts
  C:8190H         LINE#         306
  C:8190H         LINE#         307
  C:8190H         LINE#         308
  C:8192H         LINE#         309
BL51 BANKED LINKER/LOCATER V6.00                                                      08/07/2017  18:56:55  PAGE 119


  C:81A4H         LINE#         310
  C:81A6H         LINE#         311
  -------         ENDPROC       _PRINTSTRING1
  -------         PROC          _PRINTSTRING2
  D:0001H         SYMBOL        puts
  C:8270H         LINE#         313
  C:8270H         LINE#         314
  C:8270H         LINE#         315
  C:8282H         LINE#         316
  -------         ENDPROC       _PRINTSTRING2
  -------         PROC          _PRINTSTRING3
  D:0001H         SYMBOL        puts
  C:8283H         LINE#         318
  C:8283H         LINE#         319
  C:8283H         LINE#         320
  C:8295H         LINE#         321
  -------         ENDPROC       _PRINTSTRING3
  -------         PROC          _PRINTSTRING4
  D:0001H         SYMBOL        puts
  C:8296H         LINE#         323
  C:8296H         LINE#         324
  C:8296H         LINE#         325
  C:82A8H         LINE#         326
  -------         ENDPROC       _PRINTSTRING4
  C:4B25H         SYMBOL        L?0213
  -------         PROC          L?0212
  -------         ENDPROC       L?0212
  C:4B25H         SYMBOL        L?0213
  -------         PROC          _ITOA
  X:093AH         SYMBOL        value
  X:093CH         SYMBOL        string
  X:093FH         SYMBOL        radix
  -------         DO            
  X:0941H         SYMBOL        i
  X:0945H         SYMBOL        d
  X:0949H         SYMBOL        flag
  X:094BH         SYMBOL        ptr
  -------         ENDDO         
  C:4B34H         LINE#         337
  C:4B45H         LINE#         338
  C:4B45H         LINE#         340
  C:4B4CH         LINE#         341
  C:4B55H         LINE#         343
  C:4B61H         LINE#         344
  C:4B61H         LINE#         345
  C:4B61H         LINE#         346
  C:4B64H         LINE#         347
  C:4B64H         LINE#         348
  C:4B6FH         LINE#         349
  C:4B6FH         LINE#         350
  C:4B84H         LINE#         351
  C:4B84H         LINE#         352
  C:4B87H         LINE#         353
  C:4B87H         LINE#         355
  C:4B8FH         LINE#         356
  C:4B8FH         LINE#         357
  C:4BA4H         LINE#         359
BL51 BANKED LINKER/LOCATER V6.00                                                      08/07/2017  18:56:55  PAGE 120


  C:4BBBH         LINE#         360
  C:4BBBH         LINE#         361
  C:4BE1H         LINE#         362
  C:4BE1H         LINE#         363
  C:4C01H         LINE#         364
  C:4C1DH         LINE#         365
  C:4C1DH         LINE#         366
  C:4C3BH         LINE#         367
  C:4C65H         LINE#         368
  C:4C6DH         LINE#         369
  C:4C6DH         LINE#         370
  C:4C8DH         LINE#         372
  C:4C9CH         LINE#         373
  C:4CA7H         LINE#         374
  -------         ENDPROC       _ITOA
  -------         PROC          _USART1_PRINTF
  X:073EH         SYMBOL        Data
  -------         DO            
  X:0741H         SYMBOL        ellipsis_40
  X:0769H         SYMBOL        s
  D:0006H         SYMBOL        c
  X:076CH         SYMBOL        d
  X:076EH         SYMBOL        f
  X:0772H         SYMBOL        x
  X:0776H         SYMBOL        y
  X:077AH         SYMBOL        buf
  X:078EH         SYMBOL        ap
  -------         ENDDO         
  C:31F0H         LINE#         381
  C:31FBH         LINE#         382
  C:31FBH         LINE#         390
  C:3209H         LINE#         392
  C:321DH         LINE#         393
  C:321DH         LINE#         394
  C:3220H         LINE#         395
  C:3220H         LINE#         396
  C:3239H         LINE#         397
  C:3239H         LINE#         398
  C:3239H         LINE#         399
  C:323BH         LINE#         400
  C:323BH         LINE#         401
  C:323EH         LINE#         403
  C:323EH         LINE#         404
  C:3240H         LINE#         405
  C:3240H         LINE#         406
  C:3243H         LINE#         408
  C:3243H         LINE#         409
  C:3243H         LINE#         410
  C:3246H         LINE#         411
  C:3246H         LINE#         412
  C:3246H         LINE#         413
  C:325BH         LINE#         414
  C:325BH         LINE#         415
  C:3289H         LINE#         416
  C:3289H         LINE#         418
  C:3289H         LINE#         419
  C:329DH         LINE#         420
BL51 BANKED LINKER/LOCATER V6.00                                                      08/07/2017  18:56:55  PAGE 121


  C:329EH         LINE#         421
  C:329EH         LINE#         422
  C:32A1H         LINE#         424
  C:32A1H         LINE#         425
  C:32BFH         LINE#         426
  C:32D0H         LINE#         427
  C:32D0H         LINE#         428
  C:32D3H         LINE#         429
  C:32DFH         LINE#         430
  C:32DFH         LINE#         431
  C:32E2H         LINE#         433
  C:32E2H         LINE#         434
  C:32FFH         LINE#         435
  C:330AH         LINE#         436
  C:3329H         LINE#         437
  C:3329H         LINE#         438
  C:332CH         LINE#         439
  C:3338H         LINE#         440
  C:3338H         LINE#         441
  C:333BH         LINE#         443
  C:333BH         LINE#         444
  C:3354H         LINE#         445
  C:336CH         LINE#         446
  C:336CH         LINE#         447
  C:3371H         LINE#         448
  C:3388H         LINE#         449
  C:3388H         LINE#         451
  C:33BCH         LINE#         452
  C:33E6H         LINE#         454
  C:33E9H         LINE#         455
  C:3408H         LINE#         456
  C:3408H         LINE#         457
  C:340BH         LINE#         458
  C:3417H         LINE#         460
  C:341CH         LINE#         462
  C:343BH         LINE#         465
  C:345AH         LINE#         466
  C:3479H         LINE#         467
  C:3498H         LINE#         468
  C:34B7H         LINE#         470
  C:34CBH         LINE#         471
  C:34EAH         LINE#         472
  C:34EAH         LINE#         473
  C:34EDH         LINE#         474
  C:34F9H         LINE#         476
  C:34F9H         LINE#         477
  C:34FBH         LINE#         479
  C:34FBH         LINE#         480
  C:3500H         LINE#         481
  C:3500H         LINE#         482
  C:3502H         LINE#         484
  C:350CH         LINE#         485
  C:350FH         LINE#         486
  C:350FH         LINE#         487
  C:350FH         LINE#         488
  C:3526H         LINE#         489
  C:3529H         LINE#         491
BL51 BANKED LINKER/LOCATER V6.00                                                      08/07/2017  18:56:55  PAGE 122


  -------         ENDPROC       _USART1_PRINTF
  -------         PROC          UART1_INT
  C:5EDDH         LINE#         494
  C:5EFAH         LINE#         496
  C:5EFDH         LINE#         497
  C:5EFDH         LINE#         498
  C:5EFFH         LINE#         499
  C:5F05H         LINE#         500
  C:5F05H         LINE#         501
  C:5F10H         LINE#         502
  C:5F24H         LINE#         503
  C:5F2AH         LINE#         504
  C:5F3EH         LINE#         505
  C:5F3EH         LINE#         506
  C:5F3EH         LINE#         508
  C:5F41H         LINE#         509
  C:5F41H         LINE#         510
  C:5F43H         LINE#         511
  C:5F50H         LINE#         512
  C:5F50H         LINE#         513
  C:5F5DH         LINE#         514
  C:5F6AH         LINE#         515
  C:5F6CH         LINE#         516
  C:5F71H         LINE#         517
  C:5F71H         LINE#         518
  -------         ENDPROC       UART1_INT
  -------         PROC          UART2_INT
  C:6626H         LINE#         521
  C:6635H         LINE#         523
  C:663AH         LINE#         524
  C:663AH         LINE#         525
  C:663DH         LINE#         526
  C:6643H         LINE#         527
  C:6643H         LINE#         528
  C:664EH         LINE#         529
  C:6662H         LINE#         530
  C:6668H         LINE#         531
  C:6668H         LINE#         532
  C:6668H         LINE#         534
  C:666DH         LINE#         535
  C:666DH         LINE#         536
  C:6670H         LINE#         537
  C:667DH         LINE#         538
  C:667DH         LINE#         539
  C:668AH         LINE#         540
  C:6697H         LINE#         541
  C:6699H         LINE#         542
  C:669EH         LINE#         543
  C:669EH         LINE#         545
  -------         ENDPROC       UART2_INT
  -------         PROC          UART3_INT
  C:66ABH         LINE#         549
  C:66BAH         LINE#         551
  C:66BFH         LINE#         552
  C:66BFH         LINE#         553
  C:66C2H         LINE#         554
  C:66C8H         LINE#         555
BL51 BANKED LINKER/LOCATER V6.00                                                      08/07/2017  18:56:55  PAGE 123


  C:66C8H         LINE#         556
  C:66D3H         LINE#         557
  C:66E7H         LINE#         558
  C:66EDH         LINE#         559
  C:66EDH         LINE#         560
  C:66EDH         LINE#         562
  C:66F2H         LINE#         563
  C:66F2H         LINE#         564
  C:66F5H         LINE#         565
  C:6702H         LINE#         566
  C:6702H         LINE#         567
  C:670FH         LINE#         568
  C:671CH         LINE#         569
  C:671EH         LINE#         570
  C:6723H         LINE#         571
  C:6723H         LINE#         573
  -------         ENDPROC       UART3_INT
  -------         PROC          UART4_INT
  C:6730H         LINE#         577
  C:673FH         LINE#         579
  C:6744H         LINE#         580
  C:6744H         LINE#         581
  C:6747H         LINE#         582
  C:674DH         LINE#         583
  C:674DH         LINE#         584
  C:6758H         LINE#         585
  C:676CH         LINE#         586
  C:6772H         LINE#         587
  C:6772H         LINE#         588
  C:6772H         LINE#         590
  C:6777H         LINE#         591
  C:6777H         LINE#         592
  C:677AH         LINE#         593
  C:6787H         LINE#         594
  C:6787H         LINE#         595
  C:6794H         LINE#         596
  C:67A1H         LINE#         597
  C:67A3H         LINE#         598
  C:67A8H         LINE#         599
  C:67A8H         LINE#         601
  -------         ENDPROC       UART4_INT
  -------         ENDMOD        USART1

  -------         MODULE        ?RTX51_TINY_KERNAL
  C:8114H         SEGMENT       ?RTX?TASKENT?S
  I:003EH         SEGMENT       ?RTX?TASKSP?S
  I:0024H         SEGMENT       ?RTX?TASKSTATE?S
  B:0023H.3       SEGMENT       ?RTX?BITS
  C:352AH         SEGMENT       ?RTX?CODE
  C:3579H         PUBLIC        ?RTX?SET_ISR
  D:000CH         PUBLIC        ?RTX_CURRENTTASK
  D:0007H         PUBLIC        ?RTX_NEXTID
  C:35BCH         PUBLIC        ?RTX_NEXTTASK
  N:00FFH         PUBLIC        ?RTX_RAMTOP
  C:8114H         PUBLIC        ?RTX_TASKENTRY
  C:369BH         PUBLIC        ?RTX_TASKIDX
  I:003EH         PUBLIC        ?RTX_TASKSP
BL51 BANKED LINKER/LOCATER V6.00                                                      08/07/2017  18:56:55  PAGE 124


  I:0024H         PUBLIC        ?RTX_TASKSTATUS
  C:365FH         PUBLIC        MAIN
  C:35A5H         PUBLIC        OS_SWITCH_TASK
  C:35AEH         SYMBOL        ?C0001
  C:35B8H         SYMBOL        ?C0003
  C:35BDH         SYMBOL        ?C0005
  C:35D7H         SYMBOL        ?C0007
  C:35D9H         SYMBOL        ?C0009
  C:35E3H         SYMBOL        ?C0011
  C:3610H         SYMBOL        ?C0012
  C:35F6H         SYMBOL        ?C0013
  C:35FBH         SYMBOL        ?C0015
  C:3606H         SYMBOL        ?C0016
  N:0000H         SYMBOL        ?RTX51_TINY_KERNAL
  N:F63CH         SYMBOL        ?RTX_CLOCK
  N:0008H         SYMBOL        ?RTX_REGISTERBANK
  D:000DH         SYMBOL        ?RTX_ROBINTIME
  D:000AH         SYMBOL        ?RTX_SAVEACC
  D:000BH         SYMBOL        ?RTX_SAVEPSW
  C:352AH         SYMBOL        ?RTX_STACKERROR
  C:357DH         SYMBOL        ?RTX_TASKSWITCHING
  B:0023H.3       SYMBOL        ?RTX_TS_DELAY
  D:00E0H         SYMBOL        ACC
  D:00F0H         SYMBOL        B
  N:0005H         SYMBOL        B_ACTIVE
  N:0007H         SYMBOL        B_IVL
  N:0007H         SYMBOL        B_RDY
  N:0004H         SYMBOL        B_READY
  N:0006H         SYMBOL        B_ROBIN
  N:0002H         SYMBOL        B_SIGNAL
  N:0003H         SYMBOL        B_TIMEOUT
  N:0000H         SYMBOL        B_WAITSIG
  N:0001H         SYMBOL        B_WAITTIM
  C:357AH         SYMBOL        CHECKROBINTIME
  C:3554H         SYMBOL        CHECKSTACK
  N:0000H         SYMBOL        CODE_BANKING
  N:0000H         SYMBOL        CPU_IDLE_CODE
  D:0083H         SYMBOL        DPH
  D:0082H         SYMBOL        DPL
  B:00A8H.7       SYMBOL        EA
  B:00A8H.4       SYMBOL        ES
  B:00A8H.1       SYMBOL        ET0
  B:00A8H.3       SYMBOL        ET1
  B:00A8H.0       SYMBOL        EX0
  B:00A8H.2       SYMBOL        EX1
  N:0014H         SYMBOL        FREE_STACK
  C:352EH         SYMBOL        HW_TIMER
  D:00A8H         SYMBOL        IE
  B:0088H.1       SYMBOL        IE0
  B:0088H.3       SYMBOL        IE1
  N:09C4H         SYMBOL        INT_CLOCK
  N:0001H         SYMBOL        INT_REGBANK
  B:0088H.0       SYMBOL        IT0
  B:0088H.2       SYMBOL        IT1
  N:0020H         SYMBOL        K_ACTIVE
  N:0080H         SYMBOL        K_IVL
  N:0080H         SYMBOL        K_RDY
BL51 BANKED LINKER/LOCATER V6.00                                                      08/07/2017  18:56:55  PAGE 125


  N:0010H         SYMBOL        K_READY
  N:0040H         SYMBOL        K_ROBIN
  N:0001H         SYMBOL        K_SIG
  N:0002H         SYMBOL        K_TMO
  N:0000H         SYMBOL        LONG_USR_INTR
  C:3668H         SYMBOL        MAIN1
  C:3672H         SYMBOL        MAIN1X
  C:366DH         SYMBOL        MAIN2
  C:3633H         SYMBOL        NOEVENT
  C:3579H         SYMBOL        NOROBINTIMEOUT
  C:3570H         SYMBOL        NOTIMEOUT
  C:356EH         SYMBOL        NOWAITTIMEOUT
  C:35A5H         SYMBOL        OS_SWITCH_TASK1
  D:0087H         SYMBOL        PCON
  D:00D0H         SYMBOL        PSW
  N:00FFH         SYMBOL        RAMTOP
  N:0080H         SYMBOL        RDY_EVENT
  C:363FH         SYMBOL        ROBINON
  C:3627H         SYMBOL        SIGNALOFF
  C:3633H         SYMBOL        SIGNALON
  N:0004H         SYMBOL        SIG_EVENT
  D:0081H         SYMBOL        SP
  I:0025H         SYMBOL        TASKSTATE
  D:0088H         SYMBOL        TCON
  B:0088H.5       SYMBOL        TF0
  B:0088H.7       SYMBOL        TF1
  D:008CH         SYMBOL        TH0
  D:008DH         SYMBOL        TH1
  C:362FH         SYMBOL        TIMEOUTON
  C:352FH         SYMBOL        TIMERINT
  C:3560H         SYMBOL        TIMERLOOP
  I:0024H         SYMBOL        TIMERVAL
  N:000AH         SYMBOL        TIMESHARING
  D:008AH         SYMBOL        TL0
  D:008BH         SYMBOL        TL1
  D:0089H         SYMBOL        TMOD
  N:0008H         SYMBOL        TMO_EVENT
  B:0088H.4       SYMBOL        TR0
  B:0088H.6       SYMBOL        TR1
  C:000BH         LINE#         271
  C:352AH         LINE#         279
  C:352EH         LINE#         282
  C:352FH         LINE#         299
  C:3532H         LINE#         301
  C:3535H         LINE#         302
  C:3538H         LINE#         303
  C:353AH         LINE#         305
  C:353CH         LINE#         306
  C:353EH         LINE#         307
  C:3540H         LINE#         308
  C:3542H         LINE#         309
  C:3544H         LINE#         310
  C:3546H         LINE#         311
  C:3548H         LINE#         312
  C:354AH         LINE#         316
  C:354BH         LINE#         317
  C:354DH         LINE#         318
BL51 BANKED LINKER/LOCATER V6.00                                                      08/07/2017  18:56:55  PAGE 126


  C:354EH         LINE#         319
  C:354FH         LINE#         320
  C:3552H         LINE#         321
  C:3554H         LINE#         322
  C:3555H         LINE#         323
  C:3557H         LINE#         324
  C:355AH         LINE#         325
  C:355CH         LINE#         329
  C:355EH         LINE#         330
  C:3560H         LINE#         331
  C:3561H         LINE#         332
  C:3562H         LINE#         333
  C:3563H         LINE#         334
  C:3565H         LINE#         335
  C:3567H         LINE#         336
  C:3568H         LINE#         337
  C:356BH         LINE#         338
  C:356DH         LINE#         339
  C:356EH         LINE#         340
  C:3570H         LINE#         341
  C:3571H         LINE#         342
  C:3573H         LINE#         344
  C:3574H         LINE#         345
  C:3576H         LINE#         360
  C:3579H         LINE#         366
  C:357AH         LINE#         367
  C:357DH         LINE#         370
  C:357FH         LINE#         371
  C:3581H         LINE#         372
  C:3583H         LINE#         373
  C:3585H         LINE#         374
  C:3587H         LINE#         375
  C:3589H         LINE#         376
  C:358BH         LINE#         377
  C:358DH         LINE#         378
  C:358FH         LINE#         379
  C:3591H         LINE#         380
  C:3593H         LINE#         381
  C:3595H         LINE#         382
  C:3597H         LINE#         387
  C:3599H         LINE#         388
  C:359AH         LINE#         389
  C:359CH         LINE#         390
  C:359DH         LINE#         391
  C:359FH         LINE#         392
  C:35A1H         LINE#         393
  C:35A2H         LINE#         394
  C:35A3H         LINE#         395
  C:35A5H         LINE#         424
  C:35A7H         LINE#         426
  C:35A9H         LINE#         427
  C:35AAH         LINE#         429
  C:35ABH         LINE#         430
  C:35ADH         LINE#         431
  C:35AEH         LINE#         434
  C:35AFH         LINE#         435
  C:35B0H         LINE#         436
BL51 BANKED LINKER/LOCATER V6.00                                                      08/07/2017  18:56:55  PAGE 127


  C:35B1H         LINE#         444
  C:35B4H         LINE#         445
  C:35B6H         LINE#         446
  C:35B8H         LINE#         449
  C:35B9H         LINE#         450
  C:35BCH         LINE#         458
  C:35BDH         LINE#         462
  C:35BFH         LINE#         463
  C:35C0H         LINE#         464
  C:35C1H         LINE#         465
  C:35C3H         LINE#         468
  C:35C5H         LINE#         470
  C:35C7H         LINE#         471
  C:35C9H         LINE#         472
  C:35CAH         LINE#         473
  C:35CBH         LINE#         474
  C:35CCH         LINE#         476
  C:35CEH         LINE#         478
  C:35CFH         LINE#         479
  C:35D0H         LINE#         480
  C:35D2H         LINE#         481
  C:35D5H         LINE#         482
  C:35D7H         LINE#         484
  C:35D8H         LINE#         485
  C:35D9H         LINE#         490
  C:35DAH         LINE#         491
  C:35DBH         LINE#         492
  C:35DDH         LINE#         496
  C:35DEH         LINE#         497
  C:35DFH         LINE#         498
  C:35E1H         LINE#         499
  C:35E3H         LINE#         505
  C:35E5H         LINE#         506
  C:35E6H         LINE#         507
  C:35E7H         LINE#         508
  C:35E9H         LINE#         510
  C:35EBH         LINE#         511
  C:35EDH         LINE#         512
  C:35EEH         LINE#         513
  C:35EFH         LINE#         516
  C:35F1H         LINE#         517
  C:35F4H         LINE#         518
  C:35F6H         LINE#         520
  C:35F7H         LINE#         522
  C:35F8H         LINE#         523
  C:35F9H         LINE#         524
  C:35FAH         LINE#         525
  C:35FBH         LINE#         529
  C:35FDH         LINE#         530
  C:35FEH         LINE#         531
  C:3600H         LINE#         535
  C:3602H         LINE#         536
  C:3603H         LINE#         537
  C:3604H         LINE#         539
  C:3606H         LINE#         543
  C:3608H         LINE#         544
  C:360AH         LINE#         545
BL51 BANKED LINKER/LOCATER V6.00                                                      08/07/2017  18:56:55  PAGE 128


  C:360BH         LINE#         546
  C:360CH         LINE#         548
  C:360EH         LINE#         549
  C:3610H         LINE#         555
  C:3613H         LINE#         559
  C:3615H         LINE#         560
  C:3616H         LINE#         561
  C:3618H         LINE#         562
  C:3619H         LINE#         563
  C:361BH         LINE#         564
  C:361DH         LINE#         565
  C:361EH         LINE#         567
  C:3621H         LINE#         571
  C:3624H         LINE#         572
  C:3627H         LINE#         576
  C:3629H         LINE#         577
  C:362CH         LINE#         578
  C:362FH         LINE#         580
  C:3631H         LINE#         581
  C:3633H         LINE#         583
  C:3635H         LINE#         584
  C:3636H         LINE#         585
  C:3638H         LINE#         587
  C:363AH         LINE#         588
  C:363CH         LINE#         594
  C:363EH         LINE#         595
  C:363FH         LINE#         608
  C:3640H         LINE#         609
  C:3642H         LINE#         614
  C:3644H         LINE#         615
  C:3646H         LINE#         616
  C:3648H         LINE#         617
  C:364AH         LINE#         618
  C:364CH         LINE#         619
  C:364EH         LINE#         620
  C:3650H         LINE#         621
  C:3652H         LINE#         622
  C:3654H         LINE#         623
  C:3656H         LINE#         624
  C:3658H         LINE#         625
  C:365AH         LINE#         626
  C:365CH         LINE#         627
  C:365EH         LINE#         628
  C:365FH         LINE#         642
  C:3661H         LINE#         643
  C:3663H         LINE#         644
  C:3665H         LINE#         645
  C:3667H         LINE#         646
  C:3668H         LINE#         647
  C:3669H         LINE#         648
  C:366BH         LINE#         649
  C:366DH         LINE#         650
  C:366FH         LINE#         651
  C:3670H         LINE#         652
  C:3672H         LINE#         653
  C:3673H         LINE#         654
  C:3674H         LINE#         655
BL51 BANKED LINKER/LOCATER V6.00                                                      08/07/2017  18:56:55  PAGE 129


  C:3675H         LINE#         656
  C:3676H         LINE#         657
  C:3678H         LINE#         658
  C:367AH         LINE#         659
  C:367CH         LINE#         660
  C:367FH         LINE#         661
  C:3681H         LINE#         662
  C:3682H         LINE#         663
  C:3684H         LINE#         664
  C:3685H         LINE#         665
  C:3686H         LINE#         666
  C:3688H         LINE#         668
  C:368BH         LINE#         670
  C:368EH         LINE#         671
  C:3691H         LINE#         672
  C:3694H         LINE#         673
  C:3696H         LINE#         674
  C:3698H         LINE#         675
  C:369AH         LINE#         676
  -------         ENDMOD        ?RTX51_TINY_KERNAL

  -------         MODULE        ?C?FPADD
  C:0807H         PUBLIC        ?C?FPADD
  C:0803H         PUBLIC        ?C?FPSUB
  -------         ENDMOD        ?C?FPADD

  -------         MODULE        ?C?FPMUL
  C:08F8H         PUBLIC        ?C?FPMUL
  -------         ENDMOD        ?C?FPMUL

  -------         MODULE        ?C?FPDIV
  C:0A01H         PUBLIC        ?C?FPDIV
  -------         ENDMOD        ?C?FPDIV

  -------         MODULE        ?C?FPCMP
  C:0AA0H         PUBLIC        ?C?FPCMP
  C:0A9EH         PUBLIC        ?C?FPCMP3
  -------         ENDMOD        ?C?FPCMP

  -------         MODULE        ?C?FCAST
  C:0B15H         PUBLIC        ?C?FCASTC
  C:0B10H         PUBLIC        ?C?FCASTI
  C:0B0BH         PUBLIC        ?C?FCASTL
  -------         ENDMOD        ?C?FCAST

  -------         MODULE        ?C?CASTF
  C:0B49H         PUBLIC        ?C?CASTF
  -------         ENDMOD        ?C?CASTF

  -------         MODULE        PRINTF
  X:02C8H         PUBLIC        ?_PRINTF?BYTE
  X:02C8H         PUBLIC        ?_SPRINTF?BYTE
  C:1EF2H         PUBLIC        _PRINTF
  C:1EECH         PUBLIC        _SPRINTF
  -------         ENDMOD        PRINTF

  -------         MODULE        FABS
BL51 BANKED LINKER/LOCATER V6.00                                                      08/07/2017  18:56:55  PAGE 130


  C:84A6H         PUBLIC        _FABS
  -------         ENDMOD        FABS

  -------         MODULE        ?C?FPROUND
  C:0BCAH         PUBLIC        ?C?FPROUND
  -------         ENDMOD        ?C?FPROUND

  -------         MODULE        ?C?FPCONVERT
  C:0C07H         PUBLIC        ?C?FPCONVERT
  -------         ENDMOD        ?C?FPCONVERT

  -------         MODULE        ?C?FTNPWR
  C:0D3CH         PUBLIC        ?C?FTNPWR
  -------         ENDMOD        ?C?FTNPWR

  -------         MODULE        ?C?COPY
  C:0E4CH         PUBLIC        ?C?COPY
  -------         ENDMOD        ?C?COPY

  -------         MODULE        ?C?CLDPTR
  C:0E72H         PUBLIC        ?C?CLDPTR
  -------         ENDMOD        ?C?CLDPTR

  -------         MODULE        ?C?CLDOPTR
  C:0E8BH         PUBLIC        ?C?CLDOPTR
  -------         ENDMOD        ?C?CLDOPTR

  -------         MODULE        ?C?CSTPTR
  C:0EB8H         PUBLIC        ?C?CSTPTR
  -------         ENDMOD        ?C?CSTPTR

  -------         MODULE        ?C?CSTOPTR
  C:0ECAH         PUBLIC        ?C?CSTOPTR
  -------         ENDMOD        ?C?CSTOPTR

  -------         MODULE        ?C?IMUL
  C:0EECH         PUBLIC        ?C?IMUL
  -------         ENDMOD        ?C?IMUL

  -------         MODULE        ?C?UIDIV
  C:0EFEH         PUBLIC        ?C?UIDIV
  -------         ENDMOD        ?C?UIDIV

  -------         MODULE        ?C?IILDX
  C:0F53H         PUBLIC        ?C?IILDX
  -------         ENDMOD        ?C?IILDX

  -------         MODULE        ?C?ILDIX
  C:0F69H         PUBLIC        ?C?ILDIX
  -------         ENDMOD        ?C?ILDIX

  -------         MODULE        ?C?ILDPTR
  C:0F7FH         PUBLIC        ?C?ILDPTR
  -------         ENDMOD        ?C?ILDPTR

  -------         MODULE        ?C?ILDOPTR
  C:0FAAH         PUBLIC        ?C?ILDOPTR
BL51 BANKED LINKER/LOCATER V6.00                                                      08/07/2017  18:56:55  PAGE 131


  -------         ENDMOD        ?C?ILDOPTR

  -------         MODULE        ?C?LMUL
  C:0FE2H         PUBLIC        ?C?LMUL
  -------         ENDMOD        ?C?LMUL

  -------         MODULE        ?C?ULDIV
  C:106DH         PUBLIC        ?C?ULDIV
  -------         ENDMOD        ?C?ULDIV

  -------         MODULE        ?C?SLDIV
  C:727FH         PUBLIC        ?C?SLDIV
  -------         ENDMOD        ?C?SLDIV

  -------         MODULE        ?C?LNEG
  C:10FFH         PUBLIC        ?C?LNEG
  -------         ENDMOD        ?C?LNEG

  -------         MODULE        ?C?SLCMP
  C:110DH         PUBLIC        ?C?SLCMP
  -------         ENDMOD        ?C?SLCMP

  -------         MODULE        ?C?ULCMP
  C:1123H         PUBLIC        ?C?ULCMP
  -------         ENDMOD        ?C?ULCMP

  -------         MODULE        ?C?ULSHR
  C:1134H         PUBLIC        ?C?ULSHR
  -------         ENDMOD        ?C?ULSHR

  -------         MODULE        ?C?LLDPTR
  C:1147H         PUBLIC        ?C?LLDPTR
  -------         ENDMOD        ?C?LLDPTR

  -------         MODULE        ?C?LLDOPTR
  C:1167H         PUBLIC        ?C?LLDOPTR
  -------         ENDMOD        ?C?LLDOPTR

  -------         MODULE        ?C?LLDOPTR0
  C:1197H         PUBLIC        ?C?LLDOPTR0
  -------         ENDMOD        ?C?LLDOPTR0

  -------         MODULE        ?C?LSTXDATA
  C:11C7H         PUBLIC        ?C?LSTXDATA
  -------         ENDMOD        ?C?LSTXDATA

  -------         MODULE        ?C?LSTKXDATA
  C:11D3H         PUBLIC        ?C?LSTKXDATA
  -------         ENDMOD        ?C?LSTKXDATA

  -------         MODULE        ?C?OFFXADD
  C:1204H         PUBLIC        ?C?OFFXADD
  -------         ENDMOD        ?C?OFFXADD

  -------         MODULE        ?C?PLDIXDATA
  C:1210H         PUBLIC        ?C?PLDIXDATA
  -------         ENDMOD        ?C?PLDIXDATA
BL51 BANKED LINKER/LOCATER V6.00                                                      08/07/2017  18:56:55  PAGE 132



  -------         MODULE        ?C?PSTXDATA
  C:1227H         PUBLIC        ?C?PSTXDATA
  -------         ENDMOD        ?C?PSTXDATA

  -------         MODULE        ?C?PLDPTR
  C:1230H         PUBLIC        ?C?PLDPTR
  -------         ENDMOD        ?C?PLDPTR

  -------         MODULE        ?C?CCASE
  C:1250H         PUBLIC        ?C?CCASE
  -------         ENDMOD        ?C?CCASE

  -------         MODULE        ?C?ICALL
  C:1276H         PUBLIC        ?C?ICALL
  C:127AH         PUBLIC        ?C?ICALL2
  -------         ENDMOD        ?C?ICALL

  -------         MODULE        PUTCHAR
  C:7A12H         PUBLIC        _PUTCHAR
  -------         ENDMOD        PUTCHAR

  -------         MODULE        ABS
  C:84BFH         PUBLIC        _ABS
  -------         ENDMOD        ABS

  -------         MODULE        LABS
  C:8573H         PUBLIC        _LABS
  -------         ENDMOD        LABS

  -------         MODULE        MALLOC
  C:5A4BH         PUBLIC        _malloc
  -------         ENDMOD        MALLOC

  -------         MODULE        FREE
  C:50ADH         PUBLIC        _free
  -------         ENDMOD        FREE

  -------         MODULE        ?C?LLDIDATA
  C:127CH         PUBLIC        ?C?LLDIDATA
  -------         ENDMOD        ?C?LLDIDATA

  -------         MODULE        ?C?LLDXDATA
  C:1288H         PUBLIC        ?C?LLDXDATA
  -------         ENDMOD        ?C?LLDXDATA

  -------         MODULE        ?C?LLDPDATA
  C:1294H         PUBLIC        ?C?LLDPDATA
  -------         ENDMOD        ?C?LLDPDATA

  -------         MODULE        ?C?LLDCODE
  C:12A0H         PUBLIC        ?C?LLDCODE
  -------         ENDMOD        ?C?LLDCODE

  -------         MODULE        ?C?LLDIDATA0
  C:12B0H         PUBLIC        ?C?LLDIDATA0
  -------         ENDMOD        ?C?LLDIDATA0
BL51 BANKED LINKER/LOCATER V6.00                                                      08/07/2017  18:56:55  PAGE 133



  -------         MODULE        ?C?LLDXDATA0
  C:12BDH         PUBLIC        ?C?LLDXDATA0
  -------         ENDMOD        ?C?LLDXDATA0

  -------         MODULE        ?C?LLDPDATA0
  C:12C9H         PUBLIC        ?C?LLDPDATA0
  -------         ENDMOD        ?C?LLDPDATA0

  -------         MODULE        ?C?LLDCODE0
  C:12D6H         PUBLIC        ?C?LLDCODE0
  -------         ENDMOD        ?C?LLDCODE0

  -------         MODULE        ?C?PLDIDATA
  C:12E6H         PUBLIC        ?C?PLDIDATA
  -------         ENDMOD        ?C?PLDIDATA

  -------         MODULE        ?C?PLDXDATA
  C:12EFH         PUBLIC        ?C?PLDXDATA
  -------         ENDMOD        ?C?PLDXDATA

  -------         MODULE        ?C?PLDPDATA
  C:12F8H         PUBLIC        ?C?PLDPDATA
  -------         ENDMOD        ?C?PLDPDATA

  -------         MODULE        ?C?PLDCODE
  C:1301H         PUBLIC        ?C?PLDCODE
  -------         ENDMOD        ?C?PLDCODE

  -------         MODULE        INIT_MEM
  X:09ECH         PUBLIC        __mem_avail__
  C:747DH         PUBLIC        _init_mempool
  -------         ENDMOD        INIT_MEM

*** WARNING L16: UNCALLED SEGMENT, IGNORED FOR OVERLAY PROCESS
    SEGMENT: ?PR?TEST?SETUP

*** WARNING L16: UNCALLED SEGMENT, IGNORED FOR OVERLAY PROCESS
    SEGMENT: ?PR?MODE1?MODE

*** WARNING L16: UNCALLED SEGMENT, IGNORED FOR OVERLAY PROCESS
    SEGMENT: ?PR?MODE2?MODE

*** WARNING L16: UNCALLED SEGMENT, IGNORED FOR OVERLAY PROCESS
    SEGMENT: ?PR?MODE3?MODE

*** WARNING L16: UNCALLED SEGMENT, IGNORED FOR OVERLAY PROCESS
    SEGMENT: ?PR?MODE4?MODE

*** WARNING L16: UNCALLED SEGMENT, IGNORED FOR OVERLAY PROCESS
    SEGMENT: ?PR?MODELAUNCHER?MODE

*** WARNING L16: UNCALLED SEGMENT, IGNORED FOR OVERLAY PROCESS
    SEGMENT: ?PR?_PID_CONFIG?PID

*** WARNING L16: UNCALLED SEGMENT, IGNORED FOR OVERLAY PROCESS
    SEGMENT: ?PR?_OPENPID?PID
BL51 BANKED LINKER/LOCATER V6.00                                                      08/07/2017  18:56:55  PAGE 134



*** WARNING L16: UNCALLED SEGMENT, IGNORED FOR OVERLAY PROCESS
    SEGMENT: ?PR?_CLOSEPID?PID

*** WARNING L16: UNCALLED SEGMENT, IGNORED FOR OVERLAY PROCESS
    SEGMENT: ?PR?_SETPARAMETERINFERIORLIMIT?PID

*** WARNING L16: UNCALLED SEGMENT, IGNORED FOR OVERLAY PROCESS
    SEGMENT: ?PR?_SETPARAMETERUPPERLIMIT?PID

*** WARNING L16: UNCALLED SEGMENT, IGNORED FOR OVERLAY PROCESS
    SEGMENT: ?PR?_SETACTUALPARAMETER?PID

*** WARNING L16: UNCALLED SEGMENT, IGNORED FOR OVERLAY PROCESS
    SEGMENT: ?PR?_SETKI?PID

*** WARNING L16: UNCALLED SEGMENT, IGNORED FOR OVERLAY PROCESS
    SEGMENT: ?PR?_SETKP?PID

*** WARNING L16: UNCALLED SEGMENT, IGNORED FOR OVERLAY PROCESS
    SEGMENT: ?PR?_SETKD?PID

*** WARNING L16: UNCALLED SEGMENT, IGNORED FOR OVERLAY PROCESS
    SEGMENT: ?PR?_SETPARAMETER?PID

*** WARNING L16: UNCALLED SEGMENT, IGNORED FOR OVERLAY PROCESS
    SEGMENT: ?PR?_GETPARAMETER?PID

*** WARNING L16: UNCALLED SEGMENT, IGNORED FOR OVERLAY PROCESS
    SEGMENT: ?PR?_GETERR?PID

*** WARNING L16: UNCALLED SEGMENT, IGNORED FOR OVERLAY PROCESS
    SEGMENT: ?PR?_GETERRLAST?PID

*** WARNING L16: UNCALLED SEGMENT, IGNORED FOR OVERLAY PROCESS
    SEGMENT: ?PR?_GETKP?PID

*** WARNING L16: UNCALLED SEGMENT, IGNORED FOR OVERLAY PROCESS
    SEGMENT: ?PR?_GETKI?PID

*** WARNING L16: UNCALLED SEGMENT, IGNORED FOR OVERLAY PROCESS
    SEGMENT: ?PR?_GETKD?PID

*** WARNING L16: UNCALLED SEGMENT, IGNORED FOR OVERLAY PROCESS
    SEGMENT: ?PR?_GETOUTPUT?PID

*** WARNING L16: UNCALLED SEGMENT, IGNORED FOR OVERLAY PROCESS
    SEGMENT: ?PR?_GETINTEGRAL?PID

*** WARNING L16: UNCALLED SEGMENT, IGNORED FOR OVERLAY PROCESS
    SEGMENT: ?PR?_SETMAXERROR?PID

*** WARNING L16: UNCALLED SEGMENT, IGNORED FOR OVERLAY PROCESS
    SEGMENT: ?PR?_POSCLASSPID?PID

*** WARNING L16: UNCALLED SEGMENT, IGNORED FOR OVERLAY PROCESS
    SEGMENT: ?PR?_INCCLASSPID?PID
BL51 BANKED LINKER/LOCATER V6.00                                                      08/07/2017  18:56:55  PAGE 135



*** WARNING L16: UNCALLED SEGMENT, IGNORED FOR OVERLAY PROCESS
    SEGMENT: ?PR?_LCD_CLR_ROW?LCD5510_V2

*** WARNING L16: UNCALLED SEGMENT, IGNORED FOR OVERLAY PROCESS
    SEGMENT: ?PR?_LCD_PRINTS?LCD5510_V2

*** WARNING L16: UNCALLED SEGMENT, IGNORED FOR OVERLAY PROCESS
    SEGMENT: ?PR?_LCD_PRINTNUM_F?LCD5510_V2

*** WARNING L16: UNCALLED SEGMENT, IGNORED FOR OVERLAY PROCESS
    SEGMENT: ?PR?GETBOARD_LED_STATE?LED

*** WARNING L16: UNCALLED SEGMENT, IGNORED FOR OVERLAY PROCESS
    SEGMENT: ?PR?_BOARD_LED_PWM?LED

*** WARNING L16: UNCALLED SEGMENT, IGNORED FOR OVERLAY PROCESS
    SEGMENT: ?PR?_SETDC_MOTORSPEED?MOTOR

*** WARNING L16: UNCALLED SEGMENT, IGNORED FOR OVERLAY PROCESS
    SEGMENT: ?PR?_OPEN_DC_MOTOR?MOTOR

*** WARNING L16: UNCALLED SEGMENT, IGNORED FOR OVERLAY PROCESS
    SEGMENT: ?PR?_CLOSE_DC_MOTOR?MOTOR

*** WARNING L16: UNCALLED SEGMENT, IGNORED FOR OVERLAY PROCESS
    SEGMENT: ?PR?_GETDC_MOTORSTATE?MOTOR

*** WARNING L16: UNCALLED SEGMENT, IGNORED FOR OVERLAY PROCESS
    SEGMENT: ?PR?DC_MOTOR_CONFIG?MOTOR

*** WARNING L16: UNCALLED SEGMENT, IGNORED FOR OVERLAY PROCESS
    SEGMENT: ?PR?_INIT_STR_MOTOR?SERVO

*** WARNING L16: UNCALLED SEGMENT, IGNORED FOR OVERLAY PROCESS
    SEGMENT: ?PR?_SET_STR_ANGLE?SERVO

*** WARNING L16: UNCALLED SEGMENT, IGNORED FOR OVERLAY PROCESS
    SEGMENT: ?PR?_READ_STR_ANGLE?SERVO

*** WARNING L16: UNCALLED SEGMENT, IGNORED FOR OVERLAY PROCESS
    SEGMENT: ?PR?_OPEN_STR?SERVO

*** WARNING L16: UNCALLED SEGMENT, IGNORED FOR OVERLAY PROCESS
    SEGMENT: ?PR?_CLOSE_STR?SERVO

*** WARNING L16: UNCALLED SEGMENT, IGNORED FOR OVERLAY PROCESS
    SEGMENT: ?PR?_SETSTEPMOTORWITHDISTANCE?STEP_MOTOR

*** WARNING L16: UNCALLED SEGMENT, IGNORED FOR OVERLAY PROCESS
    SEGMENT: ?PR?_SETSTEPMOTORWITHROUND?STEP_MOTOR

*** WARNING L16: UNCALLED SEGMENT, IGNORED FOR OVERLAY PROCESS
    SEGMENT: ?PR?_SETSTEPMOTORSTATE?STEP_MOTOR

*** WARNING L16: UNCALLED SEGMENT, IGNORED FOR OVERLAY PROCESS
    SEGMENT: ?PR?_GETSTEPMOTORSTATE?STEP_MOTOR
BL51 BANKED LINKER/LOCATER V6.00                                                      08/07/2017  18:56:55  PAGE 136



*** WARNING L16: UNCALLED SEGMENT, IGNORED FOR OVERLAY PROCESS
    SEGMENT: ?PR?_SETSTEPMOTORDIVERSION?STEP_MOTOR

*** WARNING L16: UNCALLED SEGMENT, IGNORED FOR OVERLAY PROCESS
    SEGMENT: ?PR?_CLOSE_STEPMOTOR?STEP_MOTOR

*** WARNING L16: UNCALLED SEGMENT, IGNORED FOR OVERLAY PROCESS
    SEGMENT: ?PR?_OPEN_STEPMOTOR?STEP_MOTOR

*** WARNING L16: UNCALLED SEGMENT, IGNORED FOR OVERLAY PROCESS
    SEGMENT: ?PR?_FREESTEPMOTOR?STEP_MOTOR

*** WARNING L16: UNCALLED SEGMENT, IGNORED FOR OVERLAY PROCESS
    SEGMENT: ?PR?_LOCKSTEPMOTOR?STEP_MOTOR

*** WARNING L16: UNCALLED SEGMENT, IGNORED FOR OVERLAY PROCESS
    SEGMENT: ?PR?_STEPMOTOR_INIT?STEP_MOTOR

*** WARNING L16: UNCALLED SEGMENT, IGNORED FOR OVERLAY PROCESS
    SEGMENT: ?PR?GETANGLE?ANGLE

*** WARNING L16: UNCALLED SEGMENT, IGNORED FOR OVERLAY PROCESS
    SEGMENT: ?PR?_SETSPEAKERPERIOD?SPEAKER

*** WARNING L16: UNCALLED SEGMENT, IGNORED FOR OVERLAY PROCESS
    SEGMENT: ?PR?_SETLENGTH?SPEAKER

*** WARNING L16: UNCALLED SEGMENT, IGNORED FOR OVERLAY PROCESS
    SEGMENT: ?PR?_OPEN_SPEAKER?SPEAKER

*** WARNING L16: UNCALLED SEGMENT, IGNORED FOR OVERLAY PROCESS
    SEGMENT: ?PR?_CLOSE_SPEAKER?SPEAKER

*** WARNING L16: UNCALLED SEGMENT, IGNORED FOR OVERLAY PROCESS
    SEGMENT: ?PR?_GETPULSERSTATE?FIXEDPULSER

*** WARNING L16: UNCALLED SEGMENT, IGNORED FOR OVERLAY PROCESS
    SEGMENT: ?PR?SETCARFORWARD?MT_1_L298N

*** WARNING L16: UNCALLED SEGMENT, IGNORED FOR OVERLAY PROCESS
    SEGMENT: ?PR?SETCARBACK?MT_1_L298N

*** WARNING L16: UNCALLED SEGMENT, IGNORED FOR OVERLAY PROCESS
    SEGMENT: ?PR?SETCARSTOP?MT_1_L298N

*** WARNING L16: UNCALLED SEGMENT, IGNORED FOR OVERLAY PROCESS
    SEGMENT: ?PR?SETCARRIGHTFORWARD?MT_1_L298N

*** WARNING L16: UNCALLED SEGMENT, IGNORED FOR OVERLAY PROCESS
    SEGMENT: ?PR?SETCARRIGHTBACK?MT_1_L298N

*** WARNING L16: UNCALLED SEGMENT, IGNORED FOR OVERLAY PROCESS
    SEGMENT: ?PR?SETCARRIGHTTURN?MT_1_L298N

*** WARNING L16: UNCALLED SEGMENT, IGNORED FOR OVERLAY PROCESS
    SEGMENT: ?PR?SETCARLEFTFORWARD?MT_1_L298N
BL51 BANKED LINKER/LOCATER V6.00                                                      08/07/2017  18:56:55  PAGE 137



*** WARNING L16: UNCALLED SEGMENT, IGNORED FOR OVERLAY PROCESS
    SEGMENT: ?PR?SETCARLEFTBACK?MT_1_L298N

*** WARNING L16: UNCALLED SEGMENT, IGNORED FOR OVERLAY PROCESS
    SEGMENT: ?PR?SETCARLEFTTURN?MT_1_L298N

*** WARNING L16: UNCALLED SEGMENT, IGNORED FOR OVERLAY PROCESS
    SEGMENT: ?PR?_INITJY901?MPU9250_SBUF

*** WARNING L16: UNCALLED SEGMENT, IGNORED FOR OVERLAY PROCESS
    SEGMENT: ?PR?_ENABLEJY901?MPU9250_SBUF

*** WARNING L16: UNCALLED SEGMENT, IGNORED FOR OVERLAY PROCESS
    SEGMENT: ?PR?_DISABLEJY901?MPU9250_SBUF

*** WARNING L16: UNCALLED SEGMENT, IGNORED FOR OVERLAY PROCESS
    SEGMENT: ?PR?_OPENJY901SBUFMODE?MPU9250_SBUF

*** WARNING L16: UNCALLED SEGMENT, IGNORED FOR OVERLAY PROCESS
    SEGMENT: ?PR?_CLOSEJY901SBUFMODE?MPU9250_SBUF

*** WARNING L16: UNCALLED SEGMENT, IGNORED FOR OVERLAY PROCESS
    SEGMENT: ?PR?_GETJY901ACCELERATION?MPU9250_SBUF

*** WARNING L16: UNCALLED SEGMENT, IGNORED FOR OVERLAY PROCESS
    SEGMENT: ?PR?_GETJY901PALSTANCE?MPU9250_SBUF

*** WARNING L16: UNCALLED SEGMENT, IGNORED FOR OVERLAY PROCESS
    SEGMENT: ?PR?_GETJY901MAGNETIC?MPU9250_SBUF

*** WARNING L16: UNCALLED SEGMENT, IGNORED FOR OVERLAY PROCESS
    SEGMENT: ?PR?RELAY_INIT?RELAY

*** WARNING L16: UNCALLED SEGMENT, IGNORED FOR OVERLAY PROCESS
    SEGMENT: ?PR?_OPENRELAYMODULAR?RELAY

*** WARNING L16: UNCALLED SEGMENT, IGNORED FOR OVERLAY PROCESS
    SEGMENT: ?PR?_CLOSERELAYMODULAR?RELAY

*** WARNING L16: UNCALLED SEGMENT, IGNORED FOR OVERLAY PROCESS
    SEGMENT: ?PR?_OPENRELAYKEY?RELAY

*** WARNING L16: UNCALLED SEGMENT, IGNORED FOR OVERLAY PROCESS
    SEGMENT: ?PR?_CLOSERELAYKEY?RELAY

*** WARNING L16: UNCALLED SEGMENT, IGNORED FOR OVERLAY PROCESS
    SEGMENT: ?PR?_TM1638LEDDISPLAY?TM1638

*** WARNING L16: UNCALLED SEGMENT, IGNORED FOR OVERLAY PROCESS
    SEGMENT: ?PR?CLOSETM1638DISPLAY?TM1638

*** WARNING L16: UNCALLED SEGMENT, IGNORED FOR OVERLAY PROCESS
    SEGMENT: ?PR?_CLOSE_ADS1115?ADS1115

*** WARNING L16: UNCALLED SEGMENT, IGNORED FOR OVERLAY PROCESS
    SEGMENT: ?PR?_HC595_INIT?74HC595
BL51 BANKED LINKER/LOCATER V6.00                                                      08/07/2017  18:56:55  PAGE 138



*** WARNING L16: UNCALLED SEGMENT, IGNORED FOR OVERLAY PROCESS
    SEGMENT: ?PR?_HC595SENDDATA?74HC595

*** WARNING L16: UNCALLED SEGMENT, IGNORED FOR OVERLAY PROCESS
    SEGMENT: ?PR?_CLOSE_HC_SR04?HC_SR04

*** WARNING L16: UNCALLED SEGMENT, IGNORED FOR OVERLAY PROCESS
    SEGMENT: ?PR?_GETHC_SR04_STATE?HC_SR04

*** WARNING L16: UNCALLED SEGMENT, IGNORED FOR OVERLAY PROCESS
    SEGMENT: ?PR?_SETTIMERVALUE?HC_SR04

*** WARNING L16: UNCALLED SEGMENT, IGNORED FOR OVERLAY PROCESS
    SEGMENT: ?PR?_NRF24L01_INIT?NRF24L01

*** WARNING L16: UNCALLED SEGMENT, IGNORED FOR OVERLAY PROCESS
    SEGMENT: ?PR?_CHOICEHALFDUPLEXMODE?NRF24L01

*** WARNING L16: UNCALLED SEGMENT, IGNORED FOR OVERLAY PROCESS
    SEGMENT: ?PR?_NRF24L01_RXPACKET?NRF24L01

*** WARNING L16: UNCALLED SEGMENT, IGNORED FOR OVERLAY PROCESS
    SEGMENT: ?PR?_NRF24L01_TXPACKET?NRF24L01

*** WARNING L16: UNCALLED SEGMENT, IGNORED FOR OVERLAY PROCESS
    SEGMENT: ?PR?_ADC_POWERCONTROL?ADC

*** WARNING L16: UNCALLED SEGMENT, IGNORED FOR OVERLAY PROCESS
    SEGMENT: ?PR?_EEPROM_READ_N?STC15_EEPROM

*** WARNING L16: UNCALLED SEGMENT, IGNORED FOR OVERLAY PROCESS
    SEGMENT: ?PR?_EEPROM_SECTORERASE?STC15_EEPROM

*** WARNING L16: UNCALLED SEGMENT, IGNORED FOR OVERLAY PROCESS
    SEGMENT: ?PR?_EEPROM_WRITE_N?STC15_EEPROM

*** WARNING L16: UNCALLED SEGMENT, IGNORED FOR OVERLAY PROCESS
    SEGMENT: ?PR?_SETPINSTATE?GPIO

*** WARNING L16: UNCALLED SEGMENT, IGNORED FOR OVERLAY PROCESS
    SEGMENT: ?PR?_IIC_WRDATTOADD?STC15_IIC

*** WARNING L16: UNCALLED SEGMENT, IGNORED FOR OVERLAY PROCESS
    SEGMENT: ?PR?_IIC_RDDATFROMADD?STC15_IIC

*** WARNING L16: UNCALLED SEGMENT, IGNORED FOR OVERLAY PROCESS
    SEGMENT: ?PR?_PWMN_UPDATE?PCA

*** WARNING L16: UNCALLED SEGMENT, IGNORED FOR OVERLAY PROCESS
    SEGMENT: ?PR?_PCA_INIT?PCA

*** WARNING L16: UNCALLED SEGMENT, IGNORED FOR OVERLAY PROCESS
    SEGMENT: ?PR?_PWMOUTPUT?PCA

*** WARNING L16: UNCALLED SEGMENT, IGNORED FOR OVERLAY PROCESS
    SEGMENT: ?PR?_GET_PWM_PERIOD?STC15_PWM
BL51 BANKED LINKER/LOCATER V6.00                                                      08/07/2017  18:56:55  PAGE 139



*** WARNING L16: UNCALLED SEGMENT, IGNORED FOR OVERLAY PROCESS
    SEGMENT: ?PR?_GET_PWM_N_DUTY?STC15_PWM

*** WARNING L16: UNCALLED SEGMENT, IGNORED FOR OVERLAY PROCESS
    SEGMENT: ?PR?_GETPWM_DIV?STC15_PWM

*** WARNING L16: UNCALLED SEGMENT, IGNORED FOR OVERLAY PROCESS
    SEGMENT: ?PR?OPEN_PWM_ALL?STC15_PWM

*** WARNING L16: UNCALLED SEGMENT, IGNORED FOR OVERLAY PROCESS
    SEGMENT: ?PR?CLOSE_PWM_ALL?STC15_PWM

*** WARNING L16: UNCALLED SEGMENT, IGNORED FOR OVERLAY PROCESS
    SEGMENT: ?PR?_GET_PWM_N_STATE?STC15_PWM

*** WARNING L16: UNCALLED SEGMENT, IGNORED FOR OVERLAY PROCESS
    SEGMENT: ?PR?_PWM_INIT?STC15_PWM

*** WARNING L16: UNCALLED SEGMENT, IGNORED FOR OVERLAY PROCESS
    SEGMENT: ?PR?_SETSPIRX_DR?STC15_SPI

*** WARNING L16: UNCALLED SEGMENT, IGNORED FOR OVERLAY PROCESS
    SEGMENT: ?PR?_SETTIMEOUT?TIMER

*** WARNING L16: UNCALLED SEGMENT, IGNORED FOR OVERLAY PROCESS
    SEGMENT: ?PR?_GETTIMEROUT?TIMER

*** WARNING L16: UNCALLED SEGMENT, IGNORED FOR OVERLAY PROCESS
    SEGMENT: ?PR?_SETTIMERHERTZ?TIMER

*** WARNING L16: UNCALLED SEGMENT, IGNORED FOR OVERLAY PROCESS
    SEGMENT: ?PR?_GETTIMERHERTZ?TIMER

*** WARNING L16: UNCALLED SEGMENT, IGNORED FOR OVERLAY PROCESS
    SEGMENT: ?PR?_STOPTIMER?TIMER

*** WARNING L16: UNCALLED SEGMENT, IGNORED FOR OVERLAY PROCESS
    SEGMENT: ?PR?_ISSTOPPED?TIMER

*** WARNING L16: UNCALLED SEGMENT, IGNORED FOR OVERLAY PROCESS
    SEGMENT: ?PR?_ONRESTARTTIMER?TIMER

*** WARNING L16: UNCALLED SEGMENT, IGNORED FOR OVERLAY PROCESS
    SEGMENT: ?PR?GETMICROS?TIMER

*** WARNING L16: UNCALLED SEGMENT, IGNORED FOR OVERLAY PROCESS
    SEGMENT: ?PR?GETMILLIS?TIMER

*** WARNING L16: UNCALLED SEGMENT, IGNORED FOR OVERLAY PROCESS
    SEGMENT: ?PR?GETSECONDS?TIMER

*** WARNING L16: UNCALLED SEGMENT, IGNORED FOR OVERLAY PROCESS
    SEGMENT: ?PR?GETMINUTES?TIMER

*** WARNING L16: UNCALLED SEGMENT, IGNORED FOR OVERLAY PROCESS
    SEGMENT: ?PR?GETHOURS?TIMER
BL51 BANKED LINKER/LOCATER V6.00                                                      08/07/2017  18:56:55  PAGE 140



*** WARNING L16: UNCALLED SEGMENT, IGNORED FOR OVERLAY PROCESS
    SEGMENT: ?PR?GETDAYS?TIMER

*** WARNING L16: UNCALLED SEGMENT, IGNORED FOR OVERLAY PROCESS
    SEGMENT: ?PR?_PRINTSTRING2?USART1

*** WARNING L16: UNCALLED SEGMENT, IGNORED FOR OVERLAY PROCESS
    SEGMENT: ?PR?_PRINTSTRING3?USART1

*** WARNING L16: UNCALLED SEGMENT, IGNORED FOR OVERLAY PROCESS
    SEGMENT: ?PR?_PRINTSTRING4?USART1

*** WARNING L16: UNCALLED SEGMENT, IGNORED FOR OVERLAY PROCESS
    SEGMENT: ?PR?_INIT_MEMPOOL?INIT_MEM

*** WARNING L15: MULTIPLE CALL TO SEGMENT
    SEGMENT: ?PR?_LCD_PRINTSL?LCD5510_V2
    CALLER1: ?PR?TASKSTART?ABSTASK
    CALLER2: ?PR?DATAUPDATE?ABSTASK

*** WARNING L15: MULTIPLE CALL TO SEGMENT
    SEGMENT: ?PR?_DATASCOPE_GET_CHANNEL_DATA?DATASCOPE_DP
    CALLER1: ?PR?PRINTANGLEDATA?ABSTASK
    CALLER2: ?PR?PRINTADS1115?ABSTASK

*** WARNING L15: MULTIPLE CALL TO SEGMENT
    SEGMENT: ?PR?_FLOAT2BYTE?DATASCOPE_DP
    CALLER1: ?PR?PRINTANGLEDATA?ABSTASK
    CALLER2: ?PR?PRINTADS1115?ABSTASK

*** WARNING L15: MULTIPLE CALL TO SEGMENT
    SEGMENT: ?PR?_SENDSCOPEDATA?DATASCOPE_DP
    CALLER1: ?PR?PRINTANGLEDATA?ABSTASK
    CALLER2: ?PR?PRINTADS1115?ABSTASK

*** WARNING L15: MULTIPLE CALL TO SEGMENT
    SEGMENT: ?PR?_BUZZ?SPEAKER
    CALLER1: ?PR?TASKSTART?ABSTASK
    CALLER2: ?PR?BUZZ?ABSTASK

*** WARNING L15: MULTIPLE CALL TO SEGMENT
    SEGMENT: ?PR?_SETPULSE?FIXEDPULSER
    CALLER1: ?PR?TASKSTART?ABSTASK
    CALLER2: ?PR?BUZZ?ABSTASK

*** WARNING L15: MULTIPLE CALL TO SEGMENT
    SEGMENT: ?PR?_SETTM1638WRITE?TM1638
    CALLER1: ?PR?TASKSTART?ABSTASK
    CALLER2: ?PR?ABUTTONSCAN?ABSTASK

*** WARNING L15: MULTIPLE CALL TO SEGMENT
    SEGMENT: ?PR?_LCD_PRINTSL?LCD5510_V2
    CALLER1: ?PR?DATAUPDATE?ABSTASK
    CALLER2: ?PR?PRINTFBUTTON?ABSTASK

*** WARNING L15: MULTIPLE CALL TO SEGMENT
BL51 BANKED LINKER/LOCATER V6.00                                                      08/07/2017  18:56:55  PAGE 141


    SEGMENT: ?PR?_DATASCOPE_GET_CHANNEL_DATA?DATASCOPE_DP
    CALLER1: ?PR?PRINTADS1115?ABSTASK
    CALLER2: ?PR?PRINTDISTANCE?ABSTASK

*** WARNING L15: MULTIPLE CALL TO SEGMENT
    SEGMENT: ?PR?_FLOAT2BYTE?DATASCOPE_DP
    CALLER1: ?PR?PRINTADS1115?ABSTASK
    CALLER2: ?PR?PRINTDISTANCE?ABSTASK

*** WARNING L15: MULTIPLE CALL TO SEGMENT
    SEGMENT: ?PR?_SENDSCOPEDATA?DATASCOPE_DP
    CALLER1: ?PR?PRINTADS1115?ABSTASK
    CALLER2: ?PR?PRINTDISTANCE?ABSTASK

*** WARNING L15: MULTIPLE CALL TO SEGMENT
    SEGMENT: ?PR?_DATASCOPE_GET_CHANNEL_DATA?DATASCOPE_DP
    CALLER1: ?PR?PRINTDISTANCE?ABSTASK
    CALLER2: ?PR?DISTANCE?ABSTASK

*** WARNING L15: MULTIPLE CALL TO SEGMENT
    SEGMENT: ?PR?_FLOAT2BYTE?DATASCOPE_DP
    CALLER1: ?PR?PRINTDISTANCE?ABSTASK
    CALLER2: ?PR?DISTANCE?ABSTASK

*** WARNING L15: MULTIPLE CALL TO SEGMENT
    SEGMENT: ?PR?_SENDSCOPEDATA?DATASCOPE_DP
    CALLER1: ?PR?PRINTDISTANCE?ABSTASK
    CALLER2: ?PR?DISTANCE?ABSTASK

*** WARNING L15: MULTIPLE CALL TO SEGMENT
    SEGMENT: ?PR?GETBUTTONNUM?TM1638
    CALLER1: ?PR?ABUTTONSCAN?ABSTASK
    CALLER2: ?PR?BUTTONSOUND?ABSTASK

*** WARNING L15: MULTIPLE CALL TO SEGMENT
    SEGMENT: ?PR?_SETTM1638WRITE?TM1638
    CALLER1: ?PR?ABUTTONSCAN?ABSTASK
    CALLER2: ?PR?BUTTONSOUND?ABSTASK

*** WARNING L15: MULTIPLE CALL TO SEGMENT
    SEGMENT: ?PR?GETTM1638READ?TM1638
    CALLER1: ?PR?ABUTTONSCAN?ABSTASK
    CALLER2: ?PR?BUTTONSOUND?ABSTASK

*** WARNING L15: MULTIPLE CALL TO SEGMENT
    SEGMENT: ?PR?_BUZZ?SPEAKER
    CALLER1: ?PR?BUZZ?ABSTASK
    CALLER2: ?PR?BUTTONSOUND?ABSTASK

*** WARNING L15: MULTIPLE CALL TO SEGMENT
    SEGMENT: ?PR?_SETPULSE?FIXEDPULSER
    CALLER1: ?PR?BUZZ?ABSTASK
    CALLER2: ?PR?BUTTONSOUND?ABSTASK

*** WARNING L1: UNRESOLVED EXTERNAL SYMBOL
    SYMBOL:  TIME_BUF1
    MODULE:  .\setup.obj (SETUP)
BL51 BANKED LINKER/LOCATER V6.00                                                      08/07/2017  18:56:55  PAGE 142



*** WARNING L1: UNRESOLVED EXTERNAL SYMBOL
    SYMBOL:  DS1302_READ_TIME
    MODULE:  .\setup.obj (SETUP)

*** WARNING L1: UNRESOLVED EXTERNAL SYMBOL
    SYMBOL:  TIME_BUF
    MODULE:  .\setup.obj (SETUP)

*** WARNING L1: UNRESOLVED EXTERNAL SYMBOL
    SYMBOL:  DS1302_INIT
    MODULE:  .\setup.obj (SETUP)

*** WARNING L2: REFERENCE MADE TO UNRESOLVED EXTERNAL
    SYMBOL:  DS1302_INIT
    MODULE:  .\setup.obj (SETUP)
    ADDRESS: 6C7DH

*** WARNING L2: REFERENCE MADE TO UNRESOLVED EXTERNAL
    SYMBOL:  TIME_BUF
    MODULE:  .\setup.obj (SETUP)
    ADDRESS: 6C8BH

*** WARNING L2: REFERENCE MADE TO UNRESOLVED EXTERNAL
    SYMBOL:  DS1302_READ_TIME
    MODULE:  .\setup.obj (SETUP)
    ADDRESS: 6C96H

*** WARNING L2: REFERENCE MADE TO UNRESOLVED EXTERNAL
    SYMBOL:  TIME_BUF1
    MODULE:  .\setup.obj (SETUP)
    ADDRESS: 6C9FH

*** WARNING L2: REFERENCE MADE TO UNRESOLVED EXTERNAL
    SYMBOL:  TIME_BUF1
    MODULE:  .\setup.obj (SETUP)
    ADDRESS: 6CACH

*** WARNING L2: REFERENCE MADE TO UNRESOLVED EXTERNAL
    SYMBOL:  TIME_BUF1
    MODULE:  .\setup.obj (SETUP)
    ADDRESS: 6CB9H

*** WARNING L2: REFERENCE MADE TO UNRESOLVED EXTERNAL
    SYMBOL:  TIME_BUF1
    MODULE:  .\setup.obj (SETUP)
    ADDRESS: 6CC6H

******************************************************************************
* RESTRICTED VERSION WITH FFFFH BYTE CODE SIZE LIMIT; USED: 697FH BYTE (41%) *
******************************************************************************

Program Size: data=70.4 xdata=2723 code=32268
LINK/LOCATE RUN COMPLETE.  157 WARNING(S),  0 ERROR(S)
