BL51 BANKED LINKER/LOCATER V6.00                                                        08/02/2017  18:22:39  PAGE 1


BL51 BANKED LINKER/LOCATER V6.00, INVOKED BY:
C:\KEIL_V5\C51\BIN\BL51.EXE .\absTask.obj, .\setup.obj, .\mode.obj, .\FILTER.obj, .\PID.obj, .\DataScope_DP.obj, .\Conf_
>> tny.obj, .\BUTTON.obj, .\LCD5510_V2.obj, .\LED.obj, .\MOTOR.obj, .\SERVO.obj, .\STEP_MOTOR.obj, .\ANGLE.obj, .\74HC59
>> 5.obj, .\fixedPulser.obj, .\MT_1_L298N.obj, .\MPU6050.obj, .\MPU9250.obj, .\MPU9250_SBUF.obj, .\RELAY.obj, .\TM1638.o
>> bj, .\ADS1115.obj, .\ADC.obj, .\delay.obj, .\stc15_eeprom.obj, .\stc15_exti.obj, .\GPIO.obj, .\stc15_iic.obj, .\PCA.o
>> bj, .\stc15_pwm.obj, .\stc15_spi.obj, .\timer.obj, .\USART1.obj TO 电子大赛程序框架 RTX51TINY RAMSIZE (256)


MEMORY MODEL: LARGE WITH FLOATING POINT ARITHMETIC


INPUT MODULES INCLUDED:
  .\absTask.obj (ABSTASK)
  .\setup.obj (SETUP)
  .\mode.obj (MODE)
  .\FILTER.obj (FILTER)
  .\PID.obj (PID)
  .\DataScope_DP.obj (DATASCOPE_DP)
  .\Conf_tny.obj (?RTX51_TINY_KERNAL)
  .\BUTTON.obj (BUTTON)
  .\LCD5510_V2.obj (LCD5510_V2)
  .\LED.obj (LED)
  .\MOTOR.obj (MOTOR)
  .\SERVO.obj (SERVO)
  .\STEP_MOTOR.obj (STEP_MOTOR)
  .\ANGLE.obj (ANGLE)
  .\74HC595.obj (74HC595)
  .\fixedPulser.obj (FIXEDPULSER)
  .\MT_1_L298N.obj (MT_1_L298N)
  .\MPU6050.obj (MPU6050)
  .\MPU9250.obj (MPU9250)
  .\MPU9250_SBUF.obj (MPU9250_SBUF)
  .\RELAY.obj (RELAY)
  .\TM1638.obj (TM1638)
  .\ADS1115.obj (ADS1115)
  .\ADC.obj (ADC)
  .\delay.obj (DELAY)
  .\stc15_eeprom.obj (STC15_EEPROM)
  .\stc15_exti.obj (STC15_EXTI)
  .\GPIO.obj (GPIO)
  .\stc15_iic.obj (STC15_IIC)
  .\PCA.obj (PCA)
  .\stc15_pwm.obj (STC15_PWM)
  .\stc15_spi.obj (STC15_SPI)
  .\timer.obj (TIMER)
  .\USART1.obj (USART1)
  C:\KEIL_V5\C51\LIB\RTX51TNY.LIB (?RTX51_TINY_OS_CREATE)
  C:\KEIL_V5\C51\LIB\RTX51TNY.LIB (?RTX51_TINY_OS_DELETE)
  C:\KEIL_V5\C51\LIB\RTX51TNY.LIB (?RTX51_TINY_OS_WAIT)
  C:\KEIL_V5\C51\LIB\C51FPL.LIB (?C?FPADD)
  C:\KEIL_V5\C51\LIB\C51FPL.LIB (?C?FPMUL)
  C:\KEIL_V5\C51\LIB\C51FPL.LIB (?C?FPDIV)
  C:\KEIL_V5\C51\LIB\C51FPL.LIB (?C?FPCMP)
  C:\KEIL_V5\C51\LIB\C51FPL.LIB (?C?FCAST)
  C:\KEIL_V5\C51\LIB\C51FPL.LIB (?C?CASTF)
  C:\KEIL_V5\C51\LIB\C51FPL.LIB (PRINTF)
  C:\KEIL_V5\C51\LIB\C51FPL.LIB (?C?FPGETOPN)
  C:\KEIL_V5\C51\LIB\C51FPL.LIB (?C?FPROUND)
BL51 BANKED LINKER/LOCATER V6.00                                                      08/02/2017  18:22:39  PAGE 2


  C:\KEIL_V5\C51\LIB\C51FPL.LIB (?C?FPCONVERT)
  C:\KEIL_V5\C51\LIB\C51FPL.LIB (?C?FTNPWR)
  C:\KEIL_V5\C51\LIB\C51L.LIB (?C_STARTUP)
  C:\KEIL_V5\C51\LIB\C51L.LIB (?C?CLDPTR)
  C:\KEIL_V5\C51\LIB\C51L.LIB (?C?CLDOPTR)
  C:\KEIL_V5\C51\LIB\C51L.LIB (?C?CSTPTR)
  C:\KEIL_V5\C51\LIB\C51L.LIB (?C?CSTOPTR)
  C:\KEIL_V5\C51\LIB\C51L.LIB (?C?IMUL)
  C:\KEIL_V5\C51\LIB\C51L.LIB (?C?UIDIV)
  C:\KEIL_V5\C51\LIB\C51L.LIB (?C?SIDIV)
  C:\KEIL_V5\C51\LIB\C51L.LIB (?C?IILDX)
  C:\KEIL_V5\C51\LIB\C51L.LIB (?C?ILDIX)
  C:\KEIL_V5\C51\LIB\C51L.LIB (?C?ILDOPTR)
  C:\KEIL_V5\C51\LIB\C51L.LIB (?C?LMUL)
  C:\KEIL_V5\C51\LIB\C51L.LIB (?C?ULDIV)
  C:\KEIL_V5\C51\LIB\C51L.LIB (?C?SLDIV)
  C:\KEIL_V5\C51\LIB\C51L.LIB (?C?LNEG)
  C:\KEIL_V5\C51\LIB\C51L.LIB (?C?ULCMP)
  C:\KEIL_V5\C51\LIB\C51L.LIB (?C?ULSHR)
  C:\KEIL_V5\C51\LIB\C51L.LIB (?C?LLDOPTR0)
  C:\KEIL_V5\C51\LIB\C51L.LIB (?C?LSTXDATA)
  C:\KEIL_V5\C51\LIB\C51L.LIB (?C?LSTKXDATA)
  C:\KEIL_V5\C51\LIB\C51L.LIB (?C?OFFXADD)
  C:\KEIL_V5\C51\LIB\C51L.LIB (?C?PLDIXDATA)
  C:\KEIL_V5\C51\LIB\C51L.LIB (?C?PSTXDATA)
  C:\KEIL_V5\C51\LIB\C51L.LIB (?C?CCASE)
  C:\KEIL_V5\C51\LIB\C51L.LIB (?C?ICALL)
  C:\KEIL_V5\C51\LIB\C51L.LIB (PUTCHAR)
  C:\KEIL_V5\C51\LIB\C51L.LIB (ABS)
  C:\KEIL_V5\C51\LIB\C51L.LIB (?C_INIT)
  C:\KEIL_V5\C51\LIB\C51L.LIB (?C?LLDIDATA0)
  C:\KEIL_V5\C51\LIB\C51L.LIB (?C?LLDXDATA0)
  C:\KEIL_V5\C51\LIB\C51L.LIB (?C?LLDPDATA0)
  C:\KEIL_V5\C51\LIB\C51L.LIB (?C?LLDCODE0)


TASK TABLE OF MODULE:  电子大赛程序框架 (ABSTASK)

TASKID   PRIORITY   REG-BANK   SEGMENT NAME
-------------------------------------------
0        0          0          ?PR?TASKSTART?ABSTASK
1        0          0          ?PR?PRINTANGLEDATA?ABSTASK
2        0          0          ?PR?DATAUPDATE?ABSTASK
3        0          0          ?PR?PRINTADS1115?ABSTASK



LINK MAP OF MODULE:  电子大赛程序框架 (ABSTASK)


            TYPE    BASE      LENGTH    RELOCATION   SEGMENT NAME
            -----------------------------------------------------

            * * * * * * *   D A T A   M E M O R Y   * * * * * * *
            REG     0000H     0008H     ABSOLUTE     "REG BANK 0"
            DATA    0008H     0005H     ABSOLUTE     
            DATA    000DH     0008H     UNIT         ?DT?TM1638
BL51 BANKED LINKER/LOCATER V6.00                                                      08/02/2017  18:22:39  PAGE 3


            DATA    0015H     0005H     UNIT         _DATA_GROUP_
            IDATA   001AH     0004H     UNIT         ?RTX?TASKSP?S
                    001EH     0002H                  *** GAP ***
            BIT     0020H.0   0001H.2   UNIT         _BIT_GROUP_
            BIT     0021H.2   0000H.3   UNIT         ?BI?PCA
            BIT     0021H.5   0000H.2   UNIT         ?BI?FIXEDPULSER
            BIT     0021H.7   0000H.1   UNIT         ?BI?LED
            BIT     0022H.0   0000H.1   UNIT         ?BI?_SETSTEPMOTORDIVERSION?STEP_MOTOR
            BIT     0022H.1   0000H.1   UNIT         ?BI?GETANGLE?ANGLE
            BIT     0022H.2   0000H.1   UNIT         ?BI?_SETPINSTATE?GPIO
                    0022H.3   0000H.5                *** GAP ***
            IDATA   0023H     0040H     UNIT         ?ID?STC15_SPI
            IDATA   0063H     0008H     UNIT         ?RTX?TASKSTATE?S
            IDATA   006BH     0001H     UNIT         ?STACK

            * * * * * * *  X D A T A   M E M O R Y  * * * * * * *
            XDATA   0000H     0290H     UNIT         ?XD?USART1
            XDATA   0290H     00A3H     UNIT         ?XD?MPU9250_SBUF
            XDATA   0333H     0096H     UNIT         _XDATA_GROUP_
            XDATA   03C9H     0092H     UNIT         ?XD?PID
            XDATA   045BH     004AH     UNIT         ?XD?SERVO
            XDATA   04A5H     003CH     UNIT         ?XD?STC15_PWM
            XDATA   04E1H     003AH     UNIT         ?XD?DATASCOPE_DP
            XDATA   051BH     0028H     UNIT         ?XD?_KALMANFILTER?FILTER
            XDATA   0543H     0021H     UNIT         ?XD?_INIT_STR_MOTOR?SERVO
            XDATA   0564H     001CH     UNIT         ?XD?STEP_MOTOR
            XDATA   0580H     0018H     UNIT         ?XD?FILTER
            XDATA   0598H     0018H     UNIT         ?XD?FIXEDPULSER
            XDATA   05B0H     0018H     UNIT         ?XD?MPU9250
            XDATA   05C8H     0016H     UNIT         ?XD?TIMER
            XDATA   05DEH     0015H     UNIT         ?XD?GETANGLE?ANGLE
            XDATA   05F3H     0015H     UNIT         ?XD?PCA
            XDATA   0608H     0013H     UNIT         ?XD?_TM1638LEDDISPLAY?TM1638
            XDATA   061BH     0012H     UNIT         ?XD?DC_MOTOR_CONFIG?MOTOR
            XDATA   062DH     0011H     UNIT         ?XD?BUTTON
            XDATA   063EH     0010H     UNIT         ?XD?ABSTASK
            XDATA   064EH     0010H     UNIT         ?XD?SETUP
            XDATA   065EH     0010H     UNIT         ?XD?MODE
            XDATA   066EH     0010H     UNIT         ?XD?_FILTER?FILTER
            XDATA   067EH     000FH     UNIT         ?XD?_LCD_PRINTNUM_F?LCD5510_V2
            XDATA   068DH     000EH     UNIT         ?XD?_STEPMOTOR_INIT?STEP_MOTOR
            XDATA   069BH     000DH     UNIT         ?XD?_PID_CONFIG?PID
            XDATA   06A8H     000BH     UNIT         ?XD?_SETPULSE?FIXEDPULSER
            XDATA   06B3H     0009H     UNIT         ?XD?_SET_STR_ANGLE?SERVO
            XDATA   06BCH     0008H     UNIT         ?XD?ANGLE
            XDATA   06C4H     0007H     UNIT         ?XD?_SETSTEPMOTORWITHPULSE?STEP_MOTOR
            XDATA   06CBH     0007H     UNIT         ?XD?_SETSTEPMOTORWITHDISTANCE?STEP_MOTOR
            XDATA   06D2H     0007H     UNIT         ?XD?_SETSTEPMOTORWITHANGLE?STEP_MOTOR
            XDATA   06D9H     0007H     UNIT         ?XD?_EEPROM_READ_N?STC15_EEPROM
            XDATA   06E0H     0007H     UNIT         ?XD?_EEPROM_WRITE_N?STC15_EEPROM
            XDATA   06E7H     0006H     UNIT         ?XD?_ADC_CONFIG?ANGLE
            XDATA   06EDH     0006H     UNIT         ?XD?GETBUTTONNUM?TM1638
            XDATA   06F3H     0006H     UNIT         ?XD?_IIC_WRDATTOADD?STC15_IIC
            XDATA   06F9H     0006H     UNIT         ?XD?_IIC_RDDATFROMADD?STC15_IIC
            XDATA   06FFH     0005H     UNIT         ?XD?_SETPARAMETERINFERIORLIMIT?PID
            XDATA   0704H     0005H     UNIT         ?XD?_SETPARAMETERUPPERLIMIT?PID
            XDATA   0709H     0005H     UNIT         ?XD?_SETACTUALPARAMETER?PID
BL51 BANKED LINKER/LOCATER V6.00                                                      08/02/2017  18:22:39  PAGE 4


            XDATA   070EH     0005H     UNIT         ?XD?_SETKI?PID
            XDATA   0713H     0005H     UNIT         ?XD?_SETKP?PID
            XDATA   0718H     0005H     UNIT         ?XD?_SETKD?PID
            XDATA   071DH     0005H     UNIT         ?XD?_SETPARAMETER?PID
            XDATA   0722H     0005H     UNIT         ?XD?_SETMAXERROR?PID
            XDATA   0727H     0005H     UNIT         ?XD?_LCD_PRINTS?LCD5510_V2
            XDATA   072CH     0005H     UNIT         ?XD?_SETDC_MOTORSPEED?MOTOR
            XDATA   0731H     0005H     UNIT         ?XD?_SET_PWM_DUTY?STC15_PWM
            XDATA   0736H     0004H     UNIT         ?XD?MOTOR
            XDATA   073AH     0004H     UNIT         ?XD?_HC595_INIT?74HC595
            XDATA   073EH     0004H     UNIT         ?XD?_I2C_MAG_WRITE?MPU9250
            XDATA   0742H     0004H     UNIT         ?XD?STC15_SPI
            XDATA   0746H     0003H     UNIT         ?XD?_INTEGRAL_SEPARA_PID?PID
            XDATA   0749H     0003H     UNIT         ?XD?_ANTI_WINDUP_PID?PID
            XDATA   074CH     0003H     UNIT         ?XD?_TRAPEZOIDAL_INTEGRAL_PID?PID
            XDATA   074FH     0003H     UNIT         ?XD?READ_MPU9250_MAG?MPU9250
            XDATA   0752H     0003H     UNIT         ?XD?_I2C_MAG_READ?MPU9250
            XDATA   0755H     0003H     UNIT         ?XD?RELAY
            XDATA   0758H     0003H     UNIT         ?XD?_PCA_INIT?PCA
            XDATA   075BH     0003H     UNIT         ?XD?_PWMOUTPUT?PCA
            XDATA   075EH     0002H     UNIT         ?XD?_SETSTEPMOTORWITHROUND?STEP_MOTOR
            XDATA   0760H     0002H     UNIT         ?XD?PULSERINIT?FIXEDPULSER
            XDATA   0762H     0002H     UNIT         ?XD?_MPU9250_WRITE_REG?MPU9250
            XDATA   0764H     0002H     UNIT         ?XD?_SETTM1638WRITE?TM1638
            XDATA   0766H     0002H     UNIT         ?XD?GETTM1638READ?TM1638
            XDATA   0768H     0002H     UNIT         ?XD?_SET_PWM_PERIOD?STC15_PWM
            XDATA   076AH     0002H     UNIT         ?XD?_PWM_INILIZE?STC15_PWM
            XDATA   076CH     0001H     UNIT         ?XD?_POSITION_PID?PID
            XDATA   076DH     0001H     UNIT         ?XD?_INCREMENTAL_PID?PID
            XDATA   076EH     0001H     UNIT         ?XD?_POSCLASSPID?PID
            XDATA   076FH     0001H     UNIT         ?XD?_BOARD_LED_PWM?LED
            XDATA   0770H     0001H     UNIT         ?XD?_OPEN_DC_MOTOR?MOTOR
            XDATA   0771H     0001H     UNIT         ?XD?_CLOSE_DC_MOTOR?MOTOR
            XDATA   0772H     0001H     UNIT         ?XD?_OPEN_STR?SERVO
            XDATA   0773H     0001H     UNIT         ?XD?_CLOSE_STR?SERVO
            XDATA   0774H     0001H     UNIT         ?XD?_CLOSE_STEPMOTOR?STEP_MOTOR
            XDATA   0775H     0001H     UNIT         ?XD?_HC595SENDDATA?74HC595
            XDATA   0776H     0001H     UNIT         ?XD?_SPI1_READWRITEBYTE?MPU9250
            XDATA   0777H     0001H     UNIT         ?XD?_SETTM1638COM?TM1638
            XDATA   0778H     0001H     UNIT         ?XD?INIT_TM1638?TM1638

            * * * * * * *   C O D E   M E M O R Y   * * * * * * *
            CODE    0000H     0003H     ABSOLUTE     
            CODE    0003H     0003H     ABSOLUTE     
                    0006H     0005H                  *** GAP ***
            CODE    000BH     0003H     ABSOLUTE     
                    000EH     0005H                  *** GAP ***
            CODE    0013H     0003H     ABSOLUTE     
                    0016H     000DH                  *** GAP ***
            CODE    0023H     0003H     ABSOLUTE     
                    0026H     0005H                  *** GAP ***
            CODE    002BH     0003H     ABSOLUTE     
                    002EH     000DH                  *** GAP ***
            CODE    003BH     0003H     ABSOLUTE     
                    003EH     0005H                  *** GAP ***
            CODE    0043H     0003H     ABSOLUTE     
                    0046H     0005H                  *** GAP ***
BL51 BANKED LINKER/LOCATER V6.00                                                      08/02/2017  18:22:39  PAGE 5


            CODE    004BH     0003H     ABSOLUTE     
                    004EH     0005H                  *** GAP ***
            CODE    0053H     0003H     ABSOLUTE     
                    0056H     0005H                  *** GAP ***
            CODE    005BH     0003H     ABSOLUTE     
                    005EH     0005H                  *** GAP ***
            CODE    0063H     0003H     ABSOLUTE     
                    0066H     001DH                  *** GAP ***
            CODE    0083H     0003H     ABSOLUTE     
                    0086H     0005H                  *** GAP ***
            CODE    008BH     0003H     ABSOLUTE     
                    008EH     0005H                  *** GAP ***
            CODE    0093H     0003H     ABSOLUTE     
                    0096H     0005H                  *** GAP ***
            CODE    009BH     0003H     ABSOLUTE     
                    009EH     0005H                  *** GAP ***
            CODE    00A3H     0003H     ABSOLUTE     
                    00A6H     075AH                  *** GAP ***
            CODE    0800H     0941H     UNIT         ?C?LIB_CODE
            CODE    1141H     06E0H     UNIT         ?PR?_USART_CONFIGURATION?USART1
            CODE    1821H     049AH     UNIT         ?PR?_COPESERIALDATA?MPU9250_SBUF
            CODE    1CBBH     0483H     UNIT         ?PR?PRINTF?PRINTF
            CODE    213EH     03E1H     UNIT         ?PR?_TRAPEZOIDAL_INTEGRAL_PID?PID
            CODE    251FH     03D8H     UNIT         ?PR?_ANTI_WINDUP_PID?PID
            CODE    28F7H     039AH     UNIT         ?PR?_PWM_INILIZE?STC15_PWM
            CODE    2C91H     0393H     UNIT         ?PR?_TM1638LEDDISPLAY?TM1638
            CODE    3024H     0288H     UNIT         ?RTX?CODE
            CODE    32ACH     026AH     UNIT         ?CO?LCD5510_V2
            CODE    3516H     0252H     UNIT         ?PR?_TIMER_INILIZE?TIMER
            CODE    3768H     0246H     UNIT         ?PR?_INTEGRAL_SEPARA_PID?PID
            CODE    39AEH     01DCH     UNIT         ?PR?_POSITION_PID?PID
            CODE    3B8AH     01D4H     UNIT         ?PR?_INIT_STR_MOTOR?SERVO
            CODE    3D5EH     01C4H     UNIT         ?PR?_GPIO_INILIZE?GPIO
            CODE    3F22H     01A0H     UNIT         ?PR?_INCREMENTAL_PID?PID
            CODE    40C2H     019FH     UNIT         ?PR?_PCA_INIT?PCA
            CODE    4261H     0152H     UNIT         ?PR?_KALMANFILTER?FILTER
            CODE    43B3H     0146H     UNIT         ?PR?_PID_CONFIG?PID
            CODE    44F9H     013DH     UNIT         ?PR?_PWMOUTPUT?PCA
            CODE    4636H     0136H     UNIT         ?PR?_FILTER?FILTER
            CODE    476CH     0134H     UNIT         ?PR?_DATASCOPE_GET_CHANNEL_DATA?DATASCOPE_DP
            CODE    48A0H     012DH     UNIT         ?PR?READ_MPU9250_MAG?MPU9250
            CODE    49CDH     012BH     UNIT         ?PR?GETBUTTONNUM?TM1638
            CODE    4AF8H     0116H     UNIT         ?PR?_SET_STR_ANGLE?SERVO
            CODE    4C0EH     00ECH     UNIT         ?PR?_SETPULSE?FIXEDPULSER
            CODE    4CFAH     00E4H     UNIT         ?PR?_SET_PWM_DUTY?STC15_PWM
            CODE    4DDEH     00C7H     UNIT         ?PR?_SETSTEPMOTORWITHDISTANCE?STEP_MOTOR
            CODE    4EA5H     00C1H     UNIT         ?PR?READ_MPU9250_GYRO?MPU9250
            CODE    4F66H     00B6H     UNIT         ?PR?_EXT_INILIZE?STC15_EXTI
            CODE    501CH     00AFH     UNIT         ?PR?UART1_INT?USART1
            CODE    50CBH     00AEH     UNIT         ?PR?_PWMN_UPDATE?PCA
            CODE    5179H     00AAH     UNIT         ?PR?_FLOAT2BYTE?DATASCOPE_DP
            CODE    5223H     00A5H     UNIT         ?PR?_DATASCOPE_DATA_GENERATE?DATASCOPE_DP
            CODE    52C8H     00A3H     UNIT         ?PR?PCA_HANDLER?PCA
            CODE    536BH     009FH     UNIT         ?PR?_STEPMOTOR_INIT?STEP_MOTOR
            CODE    540AH     009AH     UNIT         ?PR?READ_MPU9250_ACCEL?MPU9250
            CODE    54A4H     009AH     UNIT         ?PR?_PWM_SET_T12_PERIOD?STC15_PWM
            CODE    553EH     0096H     UNIT         ?C_INITSEG
BL51 BANKED LINKER/LOCATER V6.00                                                      08/02/2017  18:22:39  PAGE 6


            CODE    55D4H     0093H     UNIT         ?PR?_CHARTOLONG?MPU9250_SBUF
            CODE    5667H     0092H     UNIT         ?PR?_SETDC_MOTORSPEED?MOTOR
            CODE    56F9H     0091H     UNIT         ?PR?_SPI_INIT?STC15_SPI
            CODE    578AH     008CH     UNIT         ?C_C51STARTUP
            CODE    5816H     0085H     UNIT         ?PR?UART2_INT?USART1
            CODE    589BH     0085H     UNIT         ?PR?UART3_INT?USART1
            CODE    5920H     0085H     UNIT         ?PR?UART4_INT?USART1
            CODE    59A5H     007BH     UNIT         ?PR?PULSER_1INT?FIXEDPULSER
            CODE    5A20H     007BH     UNIT         ?PR?PULSER_2INT?FIXEDPULSER
            CODE    5A9BH     006BH     UNIT         ?PR?DC_MOTOR_CONFIG?MOTOR
            CODE    5B06H     0065H     UNIT         ?PR?_SETSTEPMOTORWITHANGLE?STEP_MOTOR
            CODE    5B6BH     0061H     UNIT         ?PR?_SET_PWM_PERIOD?STC15_PWM
            CODE    5BCCH     0061H     UNIT         ?PR?TIMERINIT?TIMER
            CODE    5C2DH     005EH     UNIT         ?PR?_GET_ADC10BITRESULT?ADC
            CODE    5C8BH     005BH     UNIT         ?PR?DATAUPDATE?ABSTASK
            CODE    5CE6H     005BH     UNIT         ?PR?INIT_MPU9250?MPU9250
            CODE    5D41H     0055H     UNIT         ?PR?SPI_TRANSIVION?STC15_SPI
            CODE    5D96H     0054H     UNIT         ?PR?GETANGLE?ANGLE
            CODE    5DEAH     0053H     UNIT         ?PR?_ADC_INILIZE?ADC
            CODE    5E3DH     0053H     UNIT         ?PR?_IIC_RDDATFROMADD?STC15_IIC
            CODE    5E90H     004BH     UNIT         ?PR?_LCD_PRINTSL?LCD5510_V2
            CODE    5EDBH     004AH     UNIT         ?PR?_GETJY901ACCELERATION?MPU9250_SBUF
            CODE    5F25H     004AH     UNIT         ?PR?_GETJY901PALSTANCE?MPU9250_SBUF
            CODE    5F6FH     0048H     UNIT         ?PR?TIMER4_INT?TIMER
            CODE    5FB7H     0045H     UNIT         ?PR?_POSCLASSPID?PID
            CODE    5FFCH     0044H     UNIT         ?PR?_LCD_PRINTNUM_F?LCD5510_V2
            CODE    6040H     0044H     UNIT         ?C?LDIV
            CODE    6084H     0043H     UNIT         ?PR?LCD5510_INIT?LCD5510_V2
            CODE    60C7H     0040H     UNIT         ?PR?PRINTANGLEDATA?ABSTASK
            CODE    6107H     0040H     UNIT         ?PR?GETTM1638READ?TM1638
            CODE    6147H     003FH     UNIT         ?PR?_EEPROM_READ_N?STC15_EEPROM
            CODE    6186H     003FH     UNIT         ?PR?_EEPROM_WRITE_N?STC15_EEPROM
            CODE    61C5H     003DH     UNIT         ?PR?BUTTONSCAN?BUTTON
            CODE    6202H     003DH     UNIT         ?PR?_LCD_PRINTC?LCD5510_V2
            CODE    623FH     003DH     UNIT         ?PR?_I2C_MAG_READ?MPU9250
            CODE    627CH     003CH     UNIT         ?PR?_SETTM1638WRITE?TM1638
            CODE    62B8H     003BH     UNIT         ?PR?_LCD_PRINTS?LCD5510_V2
            CODE    62F3H     003BH     UNIT         ?PR?_INITJY901?MPU9250_SBUF
            CODE    632EH     003AH     UNIT         ?PR?_LCD_PRINTNUM_I?LCD5510_V2
            CODE    6368H     003AH     UNIT         ?PR?_I2C_MAG_WRITE?MPU9250
            CODE    63A2H     0039H     UNIT         ?PR?_SETSTEPMOTORWITHROUND?STEP_MOTOR
            CODE    63DBH     0036H     UNIT         ?PR?_GETJY901MAGNETIC?MPU9250_SBUF
            CODE    6411H     0036H     UNIT         ?PR?_IIC_WRDATTOADD?STC15_IIC
            CODE    6447H     0035H     UNIT         ?PR?_UART1_INIT?SETUP
            CODE    647CH     0033H     UNIT         ?PR?READCONVERSIONREGISTER?ADS1115
            CODE    64AFH     0032H     UNIT         ?PR?_GETJY901ANGLE?MPU9250_SBUF
            CODE    64E1H     0031H     UNIT         ?PR?_SENDSCOPEDATA?DATASCOPE_DP
            CODE    6512H     002FH     UNIT         ?PR?INIT_TM1638?TM1638
            CODE    6541H     002EH     UNIT         ?PR?_DELAY_US?DELAY
            CODE    656FH     002DH     UNIT         ?PR?PULSERINIT?FIXEDPULSER
            CODE    659CH     0029H     UNIT         ?PR?_SETTIMEOUT?TIMER
            CODE    65C5H     0028H     UNIT         ?PR?BOARD_LED_INIT?LED
            CODE    65EDH     0028H     UNIT         ?PR?_OPEN_PWM_N?STC15_PWM
            CODE    6615H     0028H     UNIT         ?PR?_TX2_WRITE2BUFF?USART1
            CODE    663DH     0028H     UNIT         ?PR?_TX3_WRITE2BUFF?USART1
            CODE    6665H     0028H     UNIT         ?PR?_TX4_WRITE2BUFF?USART1
            CODE    668DH     0027H     UNIT         ?PR?IIC_RDACK?STC15_IIC
BL51 BANKED LINKER/LOCATER V6.00                                                      08/02/2017  18:22:39  PAGE 7


            CODE    66B4H     0027H     UNIT         ?PR?SPI_TRIGTX?STC15_SPI
            CODE    66DBH     0027H     UNIT         ?PR?_TX1_WRITE2BUFF?USART1
            CODE    6702H     0027H     UNIT         ?PR?PUTCHAR?PUTCHAR
            CODE    6729H     0026H     UNIT         ?PR?SETUP?SETUP
            CODE    674FH     0026H     UNIT         ?PR?WRITECONFIGREGISTER?ADS1115
            CODE    6775H     0026H     UNIT         ?PR?_INPUTONEBYTE?STC15_IIC
            CODE    679BH     0025H     UNIT         ?PR?PRINTADS1115?ABSTASK
            CODE    67C0H     0025H     UNIT         ?PR?_SETSTEPMOTORWITHPULSE?STEP_MOTOR
            CODE    67E5H     0025H     UNIT         ?PR?_CLOSE_PWM_N?STC15_PWM
            CODE    680AH     0024H     UNIT         ?PR?OUTPUTONEBYTE?STC15_IIC
            CODE    682EH     0024H     UNIT         ?PR?SPI_SPI_READBYTETORXBUF?STC15_SPI
            CODE    6852H     0022H     UNIT         ?PR?_BLINK?LED
            CODE    6874H     0021H     UNIT         ?PR?_SETPARAMETERINFERIORLIMIT?PID
            CODE    6895H     0021H     UNIT         ?PR?_SETPARAMETERUPPERLIMIT?PID
            CODE    68B6H     0021H     UNIT         ?PR?_SETACTUALPARAMETER?PID
            CODE    68D7H     0021H     UNIT         ?PR?_SETKI?PID
            CODE    68F8H     0021H     UNIT         ?PR?_SETKP?PID
            CODE    6919H     0021H     UNIT         ?PR?_SETKD?PID
            CODE    693AH     0021H     UNIT         ?PR?_SETPARAMETER?PID
            CODE    695BH     0021H     UNIT         ?PR?_SETMAXERROR?PID
            CODE    697CH     0021H     UNIT         ?PR?LCD_CLR_SCR?LCD5510_V2
            CODE    699DH     0020H     UNIT         ?CO?SETUP
            CODE    69BDH     0020H     UNIT         ?PR?_LCD_WRITE_BYTE?LCD5510_V2
            CODE    69DDH     0020H     UNIT         ?PR?_OPEN_STR?SERVO
            CODE    69FDH     0020H     UNIT         ?PR?_EEPROM_SECTORERASE?STC15_EEPROM
            CODE    6A1DH     001FH     UNIT         ?PR?_CLOSE_STR?SERVO
            CODE    6A3CH     001FH     UNIT         ?PR?_SETTM1638COM?TM1638
            CODE    6A5BH     001FH     UNIT         ?PR?_PWM_SET_PERIOD?STC15_PWM
            CODE    6A7AH     001FH     UNIT         ?PR?_SPI_WRITENBYTETOTXBUF?STC15_SPI
            CODE    6A99H     001FH     UNIT         ?PR?_ISACTIVETIMER?TIMER
            CODE    6AB8H     001FH     UNIT         ?PR?_ISEXPIREDTIMER?TIMER
            CODE    6AD7H     001EH     UNIT         ?PR?_OPEN_DC_MOTOR?MOTOR
            CODE    6AF5H     001EH     UNIT         ?PR?_OPENPULSER?FIXEDPULSER
            CODE    6B13H     001DH     UNIT         ?PR?_CLOSE_DC_MOTOR?MOTOR
            CODE    6B30H     001DH     UNIT         ?PR?_CLOSE_STEPMOTOR?STEP_MOTOR
            CODE    6B4DH     001DH     UNIT         ?PR?_CLOSEPULSER?FIXEDPULSER
            CODE    6B6AH     001DH     UNIT         ?PR?_ISSTOPPED?TIMER
            CODE    6B87H     001CH     UNIT         ?PR?_FREESTEPMOTOR?STEP_MOTOR
            CODE    6BA3H     001CH     UNIT         ?PR?_LOCKSTEPMOTOR?STEP_MOTOR
            CODE    6BBFH     001CH     UNIT         ?PR?_ADC_CONFIG?ANGLE
            CODE    6BDBH     001CH     UNIT         ?PR?_SETTIMERHERTZ?TIMER
            CODE    6BF7H     001BH     UNIT         ?PR?_SETSTEPMOTORDIVERSION?STEP_MOTOR
            CODE    6C12H     001BH     UNIT         ?PR?_MPU9250_WRITE_REG?MPU9250
            CODE    6C2DH     001BH     UNIT         ?PR?_SPI_SPI_READTHENBYTETORXBUF?STC15_SPI
            CODE    6C48H     001AH     UNIT         ?PR?_GETPARAMETER?PID
            CODE    6C62H     001AH     UNIT         ?PR?_GETERR?PID
            CODE    6C7CH     001AH     UNIT         ?PR?_GETERRLAST?PID
            CODE    6C96H     001AH     UNIT         ?PR?_GETKP?PID
            CODE    6CB0H     001AH     UNIT         ?PR?_GETKI?PID
            CODE    6CCAH     001AH     UNIT         ?PR?_GETKD?PID
            CODE    6CE4H     001AH     UNIT         ?PR?_GETOUTPUT?PID
            CODE    6CFEH     001AH     UNIT         ?PR?_GETINTEGRAL?PID
            CODE    6D18H     001AH     UNIT         ?PR?_READ_STR_ANGLE?SERVO
            CODE    6D32H     001AH     UNIT         ?PR?_ADS1115_CONFIG?ADS1115
            CODE    6D4CH     001AH     UNIT         ?PR?_GET_PWM_PERIOD?STC15_PWM
            CODE    6D66H     001AH     UNIT         ?PR?_GET_PWM_N_DUTY?STC15_PWM
            CODE    6D80H     001AH     UNIT         ?PR?_GETTIMEROUT?TIMER
BL51 BANKED LINKER/LOCATER V6.00                                                      08/02/2017  18:22:39  PAGE 8


            CODE    6D9AH     001AH     UNIT         ?PR?_GETTIMERHERTZ?TIMER
            CODE    6DB4H     0019H     UNIT         ?PR?_INCCLASSPID?PID
            CODE    6DCDH     0019H     UNIT         ?PR?_HC595_INIT?74HC595
            CODE    6DE6H     0019H     UNIT         ?PR?_IIC_WRDEVADDANDDATADD?STC15_IIC
            CODE    6DFFH     0017H     UNIT         ?PR?_PRINTSTRING1?USART1
            CODE    6E16H     0016H     UNIT         ?PR?CHANGEREGISTER?ADS1115
            CODE    6E2CH     0015H     UNIT         ?PR?_RESTARTTIMER?TIMER
            CODE    6E41H     0014H     UNIT         ?PR?_LCD_POS_BYTE?LCD5510_V2
            CODE    6E55H     0014H     UNIT         ?PR?_SPI_WRITEBYTETOTXBUF?STC15_SPI
            CODE    6E69H     0013H     UNIT         ?PR?_LCD_CLR_ROW?LCD5510_V2
            CODE    6E7CH     0013H     UNIT         ?PR?_OPEN_STEPMOTOR?STEP_MOTOR
            CODE    6E8FH     0013H     UNIT         ?PR?_PRINTSTRING2?USART1
            CODE    6EA2H     0013H     UNIT         ?PR?_PRINTSTRING3?USART1
            CODE    6EB5H     0013H     UNIT         ?PR?_PRINTSTRING4?USART1
            CODE    6EC8H     0012H     UNIT         ?PR?TASKSTART?ABSTASK
            CODE    6EDAH     0012H     UNIT         ?PR?_OPENPID?PID
            CODE    6EECH     0012H     UNIT         ?PR?_GETPULSERSTATE?FIXEDPULSER
            CODE    6EFEH     0012H     UNIT         ?PR?_ENABLEJY901?MPU9250_SBUF
            CODE    6F10H     0012H     UNIT         ?PR?_OPENJY901SBUFMODE?MPU9250_SBUF
            CODE    6F22H     0012H     UNIT         ?CO?TM1638
            CODE    6F34H     0012H     UNIT         ?PR?_GET_PWM_N_STATE?STC15_PWM
            CODE    6F46H     0011H     UNIT         ?PR?_CLOSEPID?PID
            CODE    6F57H     0011H     UNIT         ?PR?_GETSTEPMOTORSTATE?STEP_MOTOR
            CODE    6F68H     0011H     UNIT         ?PR?_HC595SENDDATA?74HC595
            CODE    6F79H     0011H     UNIT         ?PR?_DISABLEJY901?MPU9250_SBUF
            CODE    6F8AH     0011H     UNIT         ?PR?_CLOSEJY901SBUFMODE?MPU9250_SBUF
            CODE    6F9BH     0011H     UNIT         ?PR?_SETPWM_DIV?STC15_PWM
            CODE    6FACH     0011H     UNIT         ?PR?_GETPWM_DIV?STC15_PWM
            CODE    6FBDH     0011H     UNIT         ?PR?_SETUART1INTERRUPT?USART1
            CODE    6FCEH     0010H     UNIT         ?PR?_GETDC_MOTORSTATE?MOTOR
            CODE    6FDEH     0010H     UNIT         ?PR?_DELAY_MS?DELAY
            CODE    6FEEH     000FH     UNIT         ?PR?_SETSTEPMOTORSTATE?STEP_MOTOR
            CODE    6FFDH     000FH     UNIT         ?PR?_SETRELAY?RELAY
            CODE    700CH     000FH     UNIT         ?PR?_GETADS1115CONVSIONDATA?ADS1115
            CODE    701BH     000EH     UNIT         ?PR?_UNSETRELAY?RELAY
            CODE    7029H     000EH     UNIT         ?PR?DISABLEEEPROM?STC15_EEPROM
            CODE    7037H     000EH     UNIT         ?PR?DELAY5US?STC15_IIC
            CODE    7045H     000EH     UNIT         ?PR?_ONRESTARTTIMER?TIMER
            CODE    7053H     000DH     UNIT         ?PR?_GETBUTTONSTATE?BUTTON
            CODE    7060H     000DH     UNIT         ?PR?_MPU9250_READ_REG?MPU9250
            CODE    706DH     000DH     UNIT         ?PR?IIC_ACK?STC15_IIC
            CODE    707AH     000DH     UNIT         ?PR?_STOPTIMER?TIMER
            CODE    7087H     000CH     UNIT         ?PR?_ADC_POWERCONTROL?ADC
            CODE    7093H     000CH     UNIT         ?PR?_ABS?ABS
            CODE    709FH     000BH     UNIT         ?PR?_SPI_SETMODE?STC15_SPI
            CODE    70AAH     000AH     UNIT         ?PR?IIC_START?STC15_IIC
            CODE    70B4H     000AH     UNIT         ?PR?IIC_NACK?STC15_IIC
            CODE    70BEH     000AH     UNIT         ?PR?OPEN_PWM_ALL?STC15_PWM
            CODE    70C8H     000AH     UNIT         ?PR?CLOSE_PWM_ALL?STC15_PWM
            CODE    70D2H     0009H     UNIT         ?PR?SETCARFORWARD?MT_1_L298N
            CODE    70DBH     0009H     UNIT         ?PR?SETCARBACK?MT_1_L298N
            CODE    70E4H     0009H     UNIT         ?PR?SETCARSTOP?MT_1_L298N
            CODE    70EDH     0009H     UNIT         ?PR?SETCARRIGHTFORWARD?MT_1_L298N
            CODE    70F6H     0009H     UNIT         ?PR?SETCARRIGHTBACK?MT_1_L298N
            CODE    70FFH     0009H     UNIT         ?PR?SETCARRIGHTTURN?MT_1_L298N
            CODE    7108H     0009H     UNIT         ?PR?SETCARLEFTFORWARD?MT_1_L298N
            CODE    7111H     0009H     UNIT         ?PR?SETCARLEFTBACK?MT_1_L298N
BL51 BANKED LINKER/LOCATER V6.00                                                      08/02/2017  18:22:39  PAGE 9


            CODE    711AH     0009H     UNIT         ?PR?SETCARLEFTTURN?MT_1_L298N
            CODE    7123H     0009H     UNIT         ?PR?GETMICROS?TIMER
            CODE    712CH     0009H     UNIT         ?PR?GETMILLIS?TIMER
            CODE    7135H     0008H     UNIT         ?RTX?TASKENT?S
            CODE    713DH     0006H     UNIT         ?PR?_BOARD_LED_PWM?LED
            CODE    7143H     0006H     UNIT         ?PR?_SPI1_READWRITEBYTE?MPU9250
            CODE    7149H     0006H     UNIT         ?PR?IIC_STOP?STC15_IIC
            CODE    714FH     0006H     UNIT         ?PR?GETSECONDS?TIMER
            CODE    7155H     0006H     UNIT         ?PR?GETMINUTES?TIMER
            CODE    715BH     0006H     UNIT         ?PR?GETHOURS?TIMER
            CODE    7161H     0006H     UNIT         ?PR?GETDAYS?TIMER
            CODE    7167H     0005H     UNIT         ?PR?OPEN_BOARD_LED?LED
            CODE    716CH     0005H     UNIT         ?PR?CLOSE_BOARD_LED?LED
            CODE    7171H     0005H     UNIT         ?PR?CLOSETM1638DISPLAY?TM1638
            CODE    7176H     0004H     UNIT         ?PR?ADC_INT?ADC
            CODE    717AH     0003H     UNIT         ?PR?TEST?SETUP
            CODE    717DH     0003H     UNIT         ?PR?BUTTON_CONFIG?BUTTON
            CODE    7180H     0003H     UNIT         ?PR?GETBOARD_LED_STATE?LED
            CODE    7183H     0003H     UNIT         ?PR?_SETPINSTATE?GPIO
            CODE    7186H     0001H     UNIT         ?PR?MODE1?MODE
            CODE    7187H     0001H     UNIT         ?PR?MODE2?MODE
            CODE    7188H     0001H     UNIT         ?PR?MODE3?MODE
            CODE    7189H     0001H     UNIT         ?PR?MODE4?MODE
            CODE    718AH     0001H     UNIT         ?PR?MODELAUNCHER?MODE
            CODE    718BH     0001H     UNIT         ?PR?SPI_INIT?MPU9250
            CODE    718CH     0001H     UNIT         ?PR?RELAY_INIT?RELAY
            CODE    718DH     0001H     UNIT         ?PR?EXT_INT0?STC15_EXTI
            CODE    718EH     0001H     UNIT         ?PR?EXT_INT1?STC15_EXTI
            CODE    718FH     0001H     UNIT         ?PR?EXT_INT2?STC15_EXTI
            CODE    7190H     0001H     UNIT         ?PR?EXT_INT3?STC15_EXTI
            CODE    7191H     0001H     UNIT         ?PR?EXT_INT4?STC15_EXTI



OVERLAY MAP OF MODULE:   电子大赛程序框架 (ABSTASK)


SEGMENT                                             BIT_GROUP          DATA_GROUP          XDATA_GROUP
  +--> CALLED SEGMENT                            START    LENGTH     START    LENGTH     START    LENGTH
--------------------------------------------------------------------------------------------------------
?PR?TASKSTART?ABSTASK                            -----    -----      -----    -----      -----    -----
  +--> ?PR?SETUP?SETUP
  +--> ?PR?_BLINK?LED

?PR?SETUP?SETUP                                  -----    -----      -----    -----      -----    -----
  +--> ?PR?_UART1_INIT?SETUP
  +--> ?PR?TIMERINIT?TIMER
  +--> ?PR?BOARD_LED_INIT?LED
  +--> ?PR?LCD5510_INIT?LCD5510_V2
  +--> ?PR?_INITJY901?MPU9250_SBUF
  +--> ?PR?_ENABLEJY901?MPU9250_SBUF
  +--> ?PR?_OPENJY901SBUFMODE?MPU9250_SBUF
  +--> ?PR?TEST?SETUP

?PR?_UART1_INIT?SETUP                            -----    -----      -----    -----      0333H    000DH
  +--> ?PR?_USART_CONFIGURATION?USART1
  +--> ?CO?SETUP
BL51 BANKED LINKER/LOCATER V6.00                                                      08/02/2017  18:22:39  PAGE 10


  +--> ?PR?_PRINTSTRING1?USART1

?PR?_USART_CONFIGURATION?USART1                  -----    -----      -----    -----      0340H    0009H

?PR?_PRINTSTRING1?USART1                         -----    -----      -----    -----      -----    -----
  +--> ?PR?_TX1_WRITE2BUFF?USART1

?PR?TIMERINIT?TIMER                              -----    -----      -----    -----      0333H    0019H
  +--> ?PR?_TIMER_INILIZE?TIMER

?PR?BOARD_LED_INIT?LED                           -----    -----      -----    -----      0333H    0002H
  +--> ?PR?_GPIO_INILIZE?GPIO
  +--> ?PR?OPEN_BOARD_LED?LED
  +--> ?PR?_DELAY_MS?DELAY
  +--> ?PR?CLOSE_BOARD_LED?LED

?PR?LCD5510_INIT?LCD5510_V2                      -----    -----      -----    -----      0333H    0002H
  +--> ?PR?_GPIO_INILIZE?GPIO
  +--> ?PR?_LCD_WRITE_BYTE?LCD5510_V2
  +--> ?PR?LCD_CLR_SCR?LCD5510_V2

?PR?LCD_CLR_SCR?LCD5510_V2                       -----    -----      -----    -----      -----    -----
  +--> ?PR?_LCD_WRITE_BYTE?LCD5510_V2

?PR?_INITJY901?MPU9250_SBUF                      -----    -----      -----    -----      -----    -----
  +--> ?PR?_COPESERIALDATA?MPU9250_SBUF
  +--> ?PR?_SETUART1INTERRUPT?USART1

?PR?_COPESERIALDATA?MPU9250_SBUF                 -----    -----      -----    -----      0333H    002EH
  +--> ?PR?_CHARTOLONG?MPU9250_SBUF

?PR?_CHARTOLONG?MPU9250_SBUF                     -----    -----      -----    -----      0361H    0006H

?PR?TEST?SETUP                                   -----    -----      -----    -----      -----    -----
  +--> ?PR?_ADS1115_CONFIG?ADS1115

?PR?_ADS1115_CONFIG?ADS1115                      -----    -----      -----    -----      0333H    0004H
  +--> ?PR?_GPIO_INILIZE?GPIO

?PR?_BLINK?LED                                   -----    -----      -----    -----      0333H    0001H
  +--> ?PR?OPEN_BOARD_LED?LED
  +--> ?PR?_DELAY_MS?DELAY
  +--> ?PR?CLOSE_BOARD_LED?LED

*** NEW ROOT ***************************************************

?PR?PRINTANGLEDATA?ABSTASK                       -----    -----      -----    -----      -----    -----
  +--> ?PR?_GETJY901ANGLE?MPU9250_SBUF
  +--> ?PR?_DATASCOPE_GET_CHANNEL_DATA?DATAS...
  +--> ?PR?_SENDSCOPEDATA?DATASCOPE_DP

?PR?_DATASCOPE_GET_CHANNEL_DATA?DATAS...         -----    -----      -----    -----      03B2H    0005H
  +--> ?PR?_FLOAT2BYTE?DATASCOPE_DP

?PR?_FLOAT2BYTE?DATASCOPE_DP                     -----    -----      -----    -----      03B7H    000AH

?PR?_SENDSCOPEDATA?DATASCOPE_DP                  -----    -----      -----    -----      03B2H    0002H
BL51 BANKED LINKER/LOCATER V6.00                                                      08/02/2017  18:22:39  PAGE 11


  +--> ?PR?_DATASCOPE_DATA_GENERATE?DATASCOP...
  +--> ?PR?_TX1_WRITE2BUFF?USART1

*** NEW ROOT ***************************************************

?PR?DATAUPDATE?ABSTASK                           -----    -----      -----    -----      -----    -----
  +--> ?PR?_GETJY901ANGLE?MPU9250_SBUF
  +--> ?PR?_LCD_PRINTNUM_I?LCD5510_V2

?PR?_LCD_PRINTNUM_I?LCD5510_V2                   -----    -----      -----    -----      0376H    000CH
  +--> ?CO?LCD5510_V2
  +--> ?PR?PRINTF?PRINTF
  +--> ?PR?_LCD_PRINTSL?LCD5510_V2

?PR?PRINTF?PRINTF                                0020H.0  0001H.1    0015H    0005H      0382H    0030H
  +--> ?PR?PUTCHAR?PUTCHAR

?PR?_LCD_PRINTSL?LCD5510_V2                      -----    -----      -----    -----      0382H    0005H
  +--> ?PR?_LCD_PRINTC?LCD5510_V2

?PR?_LCD_PRINTC?LCD5510_V2                       -----    -----      -----    -----      -----    -----
  +--> ?PR?_LCD_POS_BYTE?LCD5510_V2
  +--> ?CO?LCD5510_V2
  +--> ?PR?_LCD_WRITE_BYTE?LCD5510_V2

?PR?_LCD_POS_BYTE?LCD5510_V2                     -----    -----      -----    -----      -----    -----
  +--> ?PR?_LCD_WRITE_BYTE?LCD5510_V2

*** NEW ROOT ***************************************************

?PR?PRINTADS1115?ABSTASK                         -----    -----      -----    -----      -----    -----
  +--> ?PR?_GETADS1115CONVSIONDATA?ADS1115
  +--> ?PR?_DATASCOPE_GET_CHANNEL_DATA?DATAS...
  +--> ?PR?_SENDSCOPEDATA?DATASCOPE_DP

?PR?_GETADS1115CONVSIONDATA?ADS1115              -----    -----      -----    -----      03B2H    0003H
  +--> ?PR?WRITECONFIGREGISTER?ADS1115
  +--> ?PR?CHANGEREGISTER?ADS1115
  +--> ?PR?READCONVERSIONREGISTER?ADS1115

?PR?WRITECONFIGREGISTER?ADS1115                  -----    -----      -----    -----      -----    -----
  +--> ?PR?IIC_START?STC15_IIC
  +--> ?PR?_INPUTONEBYTE?STC15_IIC
  +--> ?PR?IIC_RDACK?STC15_IIC
  +--> ?PR?IIC_STOP?STC15_IIC

?PR?IIC_START?STC15_IIC                          -----    -----      -----    -----      -----    -----
  +--> ?PR?DELAY5US?STC15_IIC

?PR?_INPUTONEBYTE?STC15_IIC                      -----    -----      -----    -----      -----    -----
  +--> ?PR?DELAY5US?STC15_IIC

?PR?IIC_RDACK?STC15_IIC                          0021H.1  0000H.1    -----    -----      -----    -----
  +--> ?PR?_INPUTONEBYTE?STC15_IIC
  +--> ?PR?DELAY5US?STC15_IIC

?PR?IIC_STOP?STC15_IIC                           -----    -----      -----    -----      -----    -----
BL51 BANKED LINKER/LOCATER V6.00                                                      08/02/2017  18:22:39  PAGE 12


  +--> ?PR?DELAY5US?STC15_IIC

?PR?CHANGEREGISTER?ADS1115                       -----    -----      -----    -----      -----    -----
  +--> ?PR?IIC_START?STC15_IIC
  +--> ?PR?_INPUTONEBYTE?STC15_IIC
  +--> ?PR?IIC_RDACK?STC15_IIC
  +--> ?PR?IIC_STOP?STC15_IIC

?PR?READCONVERSIONREGISTER?ADS1115               -----    -----      -----    -----      03B5H    000CH
  +--> ?PR?IIC_START?STC15_IIC
  +--> ?PR?_INPUTONEBYTE?STC15_IIC
  +--> ?PR?IIC_RDACK?STC15_IIC
  +--> ?PR?OUTPUTONEBYTE?STC15_IIC
  +--> ?PR?IIC_ACK?STC15_IIC
  +--> ?PR?IIC_STOP?STC15_IIC

?PR?OUTPUTONEBYTE?STC15_IIC                      -----    -----      -----    -----      03C1H    0008H
  +--> ?PR?DELAY5US?STC15_IIC

?PR?IIC_ACK?STC15_IIC                            -----    -----      -----    -----      -----    -----
  +--> ?PR?DELAY5US?STC15_IIC

*** NEW ROOT ***************************************************

?PR?PULSER_1INT?FIXEDPULSER                      -----    -----      -----    -----      -----    -----
  +--> ?PR?_CLOSEPULSER?FIXEDPULSER

*** NEW ROOT ***************************************************

?PR?PULSER_2INT?FIXEDPULSER                      -----    -----      -----    -----      -----    -----
  +--> ?PR?_CLOSEPULSER?FIXEDPULSER

*** NEW ROOT ***************************************************

?C_C51STARTUP                                    -----    -----      -----    -----      -----    -----
  +--> ?C_INITSEG



SYMBOL TABLE OF MODULE:  电子大赛程序框架 (ABSTASK)

  VALUE           TYPE          NAME
  ----------------------------------

  -------         MODULE        ABSTASK
  C:0000H         SYMBOL        _ICE_DUMMY_
  D:0080H         PUBLIC        P0
  D:0090H         PUBLIC        P1
  D:00A0H         PUBLIC        P2
  D:00B0H         PUBLIC        P3
  C:5C8BH         PUBLIC        dataUpdate
  D:00C0H         PUBLIC        P4
  D:00C8H         PUBLIC        P5
  D:00E8H         PUBLIC        P6
  D:00F8H         PUBLIC        P7
  D:00A8H         PUBLIC        IE
  C:60C7H         PUBLIC        printAngleData
BL51 BANKED LINKER/LOCATER V6.00                                                      08/02/2017  18:22:39  PAGE 13


  D:00B8H         PUBLIC        IP
  D:00D8H         PUBLIC        CCON
  D:0098H         PUBLIC        SCON
  D:0088H         PUBLIC        TCON
  D:00F0H         PUBLIC        B
  C:6EC8H         PUBLIC        taskStart
  X:063EH         SYMBOL        g_Button
  D:00E0H         PUBLIC        ACC
  C:679BH         PUBLIC        printADS1115
  D:00D0H         PUBLIC        PSW
  -------         PROC          TASKSTART
  C:6EC8H         LINE#         3
  C:6EC8H         LINE#         5
  C:6ECBH         LINE#         6
  C:6ED0H         LINE#         8
  C:6ED5H         LINE#         9
  -------         ENDPROC       TASKSTART
  -------         PROC          PRINTANGLEDATA
  C:60C7H         LINE#         12
  C:60C7H         LINE#         14
  C:60C7H         LINE#         15
  C:60C7H         LINE#         16
  C:60D6H         LINE#         17
  C:60E6H         LINE#         18
  C:60F6H         LINE#         20
  C:60FBH         LINE#         21
  C:6105H         LINE#         22
  -------         ENDPROC       PRINTANGLEDATA
  -------         PROC          DATAUPDATE
  C:5C8BH         LINE#         24
  C:5C8BH         LINE#         26
  C:5C8BH         LINE#         27
  C:5C8BH         LINE#         28
  C:5CA4H         LINE#         29
  C:5CBFH         LINE#         30
  C:5CDAH         LINE#         31
  C:5CE4H         LINE#         33
  -------         ENDPROC       DATAUPDATE
  -------         PROC          PRINTADS1115
  C:679BH         LINE#         36
  C:679BH         LINE#         38
  C:679BH         LINE#         39
  C:679BH         LINE#         40
  C:67AFH         LINE#         41
  C:67B4H         LINE#         42
  C:67BEH         LINE#         44
  -------         ENDPROC       PRINTADS1115
  -------         ENDMOD        ABSTASK

  -------         MODULE        SETUP
  C:0000H         SYMBOL        _ICE_DUMMY_
  D:0080H         PUBLIC        P0
  D:0090H         PUBLIC        P1
  D:00A0H         PUBLIC        P2
  D:00B0H         PUBLIC        P3
  D:00C0H         PUBLIC        P4
  D:00C8H         PUBLIC        P5
BL51 BANKED LINKER/LOCATER V6.00                                                      08/02/2017  18:22:39  PAGE 14


  C:6447H         PUBLIC        _UART1_init
  D:00E8H         PUBLIC        P6
  D:00F8H         PUBLIC        P7
  D:00A8H         PUBLIC        IE
  D:00B8H         PUBLIC        IP
  D:00D8H         PUBLIC        CCON
  C:6729H         PUBLIC        setup
  D:0098H         PUBLIC        SCON
  D:0088H         PUBLIC        TCON
  D:00F0H         PUBLIC        B
  C:717AH         PUBLIC        test
  X:064EH         SYMBOL        g_Button
  D:00E0H         PUBLIC        ACC
  D:00D0H         PUBLIC        PSW
  -------         PROC          _UART1_INIT
  D:0004H         SYMBOL        BandRate
  -------         DO            
  X:0333H         SYMBOL        COMx_InitStructure
  -------         ENDDO         
  C:6447H         LINE#         24
  C:6447H         LINE#         25
  C:6447H         LINE#         27
  C:644DH         LINE#         28
  C:6451H         LINE#         29
  C:6455H         LINE#         30
  C:645BH         LINE#         31
  C:645EH         LINE#         32
  C:6461H         LINE#         33
  C:6463H         LINE#         34
  C:6466H         LINE#         35
  C:6468H         LINE#         36
  C:6473H         LINE#         37
  -------         ENDPROC       _UART1_INIT
  -------         PROC          TEST
  C:717AH         LINE#         39
  C:717AH         LINE#         40
  C:717AH         LINE#         41
  -------         ENDPROC       TEST
  -------         PROC          SETUP
  C:6729H         LINE#         44
  C:6729H         LINE#         45
  C:6729H         LINE#         46
  C:6734H         LINE#         47
  C:6737H         LINE#         48
  C:673AH         LINE#         49
  C:673DH         LINE#         52
  C:6742H         LINE#         53
  C:6747H         LINE#         54
  C:674CH         LINE#         57
  -------         ENDPROC       SETUP
  -------         ENDMOD        SETUP

  -------         MODULE        MODE
  C:0000H         SYMBOL        _ICE_DUMMY_
  D:0080H         PUBLIC        P0
  D:0090H         PUBLIC        P1
  D:00A0H         PUBLIC        P2
BL51 BANKED LINKER/LOCATER V6.00                                                      08/02/2017  18:22:39  PAGE 15


  D:00B0H         PUBLIC        P3
  D:00C0H         PUBLIC        P4
  D:00C8H         PUBLIC        P5
  D:00E8H         PUBLIC        P6
  D:00F8H         PUBLIC        P7
  D:00A8H         PUBLIC        IE
  D:00B8H         PUBLIC        IP
  D:00D8H         PUBLIC        CCON
  D:0098H         PUBLIC        SCON
  D:0088H         PUBLIC        TCON
  D:00F0H         PUBLIC        B
  X:065EH         SYMBOL        g_Button
  D:00E0H         PUBLIC        ACC
  C:7186H         PUBLIC        mode1
  C:7187H         PUBLIC        mode2
  C:7188H         PUBLIC        mode3
  C:7189H         PUBLIC        mode4
  C:718AH         PUBLIC        modeLauncher
  D:00D0H         PUBLIC        PSW
  -------         PROC          MODE1
  C:7186H         LINE#         2
  C:7186H         LINE#         3
  C:7186H         LINE#         5
  -------         ENDPROC       MODE1
  -------         PROC          MODE2
  C:7187H         LINE#         7
  C:7187H         LINE#         8
  C:7187H         LINE#         10
  -------         ENDPROC       MODE2
  -------         PROC          MODE3
  C:7188H         LINE#         13
  C:7188H         LINE#         14
  C:7188H         LINE#         16
  -------         ENDPROC       MODE3
  -------         PROC          MODE4
  C:7189H         LINE#         18
  C:7189H         LINE#         19
  C:7189H         LINE#         21
  -------         ENDPROC       MODE4
  -------         PROC          MODELAUNCHER
  C:718AH         LINE#         22
  C:718AH         LINE#         23
  C:718AH         LINE#         25
  -------         ENDPROC       MODELAUNCHER
  -------         ENDMOD        MODE

  -------         MODULE        FILTER
  C:0000H         SYMBOL        _ICE_DUMMY_
  D:0080H         PUBLIC        P0
  D:0090H         PUBLIC        P1
  D:00A0H         PUBLIC        P2
  D:00B0H         PUBLIC        P3
  D:00C0H         PUBLIC        P4
  D:00C8H         PUBLIC        P5
  D:00E8H         PUBLIC        P6
  D:00F8H         PUBLIC        P7
  C:4636H         PUBLIC        _filter
BL51 BANKED LINKER/LOCATER V6.00                                                      08/02/2017  18:22:39  PAGE 16


  D:00A8H         PUBLIC        IE
  D:00B8H         PUBLIC        IP
  D:00D8H         PUBLIC        CCON
  D:0098H         PUBLIC        SCON
  D:0088H         PUBLIC        TCON
  D:00F0H         PUBLIC        B
  C:4261H         PUBLIC        _KalmanFilter
  X:0588H         SYMBOL        g_Button
  D:00E0H         PUBLIC        ACC
  D:00D0H         PUBLIC        PSW
  -------         PROC          _FILTER
  D:0001H         SYMBOL        ary
  X:0671H         SYMBOL        num
  X:0672H         SYMBOL        MaxValue
  X:0674H         SYMBOL        MinValue
  -------         DO            
  X:0676H         SYMBOL        angleDataloopTemp2
  X:0678H         SYMBOL        finalData
  X:067AH         SYMBOL        maxValue
  X:067CH         SYMBOL        minValue
  -------         ENDDO         
  C:4636H         LINE#         2
  C:463BH         LINE#         3
  C:463BH         LINE#         5
  C:4642H         LINE#         6
  C:4651H         LINE#         7
  C:4660H         LINE#         8
  C:4682H         LINE#         9
  C:4682H         LINE#         10
  C:469EH         LINE#         11
  C:469EH         LINE#         12
  C:46BBH         LINE#         13
  C:46BBH         LINE#         14
  C:46DDH         LINE#         15
  C:46DDH         LINE#         16
  C:46FAH         LINE#         17
  C:46FAH         LINE#         18
  C:471CH         LINE#         19
  C:4730H         LINE#         20
  C:4755H         LINE#         21
  C:476BH         LINE#         22
  C:476BH         LINE#         23
  -------         ENDPROC       _FILTER
  -------         PROC          _KALMANFILTER
  X:051BH         SYMBOL        ResrcData
  X:051FH         SYMBOL        ProcessNiose_Q
  X:0523H         SYMBOL        MeasureNoise_R
  X:0527H         SYMBOL        InitialPrediction
  -------         DO            
  X:052BH         SYMBOL        R
  X:052FH         SYMBOL        Q
  X:0580H         SYMBOL        x_last
  X:0533H         SYMBOL        x_mid
  X:0537H         SYMBOL        x_now
  X:0584H         SYMBOL        p_last
  X:053BH         SYMBOL        p_mid
  D:0004H         SYMBOL        p_now
BL51 BANKED LINKER/LOCATER V6.00                                                      08/02/2017  18:22:39  PAGE 17


  X:053FH         SYMBOL        kg
  -------         ENDDO         
  C:4261H         LINE#         24
  C:4267H         LINE#         26
  C:4267H         LINE#         27
  C:427BH         LINE#         28
  C:428FH         LINE#         32
  C:42A3H         LINE#         41
  C:42B7H         LINE#         42
  C:42DCH         LINE#         43
  C:431AH         LINE#         44
  C:4361H         LINE#         46
  C:438AH         LINE#         48
  C:4390H         LINE#         49
  C:43A4H         LINE#         51
  C:43B2H         LINE#         52
  -------         ENDPROC       _KALMANFILTER
  -------         ENDMOD        FILTER

  -------         MODULE        PID
  C:0000H         SYMBOL        _ICE_DUMMY_
  D:0080H         PUBLIC        P0
  D:0090H         PUBLIC        P1
  D:00A0H         PUBLIC        P2
  C:68D7H         PUBLIC        _setKi
  D:00B0H         PUBLIC        P3
  C:6C7CH         PUBLIC        _getErrLast
  C:695BH         PUBLIC        _setMaxError
  D:00C0H         PUBLIC        P4
  D:00C8H         PUBLIC        P5
  D:00E8H         PUBLIC        P6
  D:00F8H         PUBLIC        P7
  C:6895H         PUBLIC        _setParameterUpperLimit
  C:68F8H         PUBLIC        _setKp
  C:5FB7H         PUBLIC        _PosClassPID
  D:00A8H         PUBLIC        IE
  C:6EDAH         PUBLIC        _openPID
  C:39AEH         PUBLIC        _Position_PID
  D:00B8H         PUBLIC        IP
  D:00D8H         PUBLIC        CCON
  C:251FH         PUBLIC        _Anti_Windup_PID
  D:0098H         PUBLIC        SCON
  D:0088H         PUBLIC        TCON
  C:3F22H         PUBLIC        _Incremental_PID
  C:43B3H         PUBLIC        _PID_config
  C:3768H         PUBLIC        _Integral_Separa_PID
  C:6874H         PUBLIC        _setParameterInferiorLimit
  D:00F0H         PUBLIC        B
  X:03C9H         SYMBOL        g_Button
  D:00E0H         PUBLIC        ACC
  C:68B6H         PUBLIC        _setActualParameter
  C:6CE4H         PUBLIC        _getOutput
  C:213EH         PUBLIC        _Trapezoidal_Integral_PID
  X:03D9H         SYMBOL        g_pid_n_info
  C:6C48H         PUBLIC        _getParameter
  C:6C62H         PUBLIC        _getErr
  C:6CCAH         PUBLIC        _getKd
BL51 BANKED LINKER/LOCATER V6.00                                                      08/02/2017  18:22:39  PAGE 18


  C:6DB4H         PUBLIC        _IncClassPID
  C:693AH         PUBLIC        _setParameter
  C:6CB0H         PUBLIC        _getKi
  C:6F46H         PUBLIC        _closePID
  D:00D0H         PUBLIC        PSW
  C:6CFEH         PUBLIC        _getIntegral
  C:6C96H         PUBLIC        _getKp
  C:6919H         PUBLIC        _setKd
  -------         PROC          _PID_CONFIG
  D:0003H         SYMBOL        PID_N
  X:069CH         SYMBOL        kp
  X:06A0H         SYMBOL        ki
  X:06A4H         SYMBOL        kd
  C:43B3H         LINE#         53
  C:43B5H         LINE#         54
  C:43B5H         LINE#         55
  C:43CAH         LINE#         56
  C:43DFH         LINE#         57
  C:43F4H         LINE#         58
  C:4409H         LINE#         59
  C:441EH         LINE#         60
  C:443DH         LINE#         61
  C:445CH         LINE#         62
  C:447BH         LINE#         63
  C:44A5H         LINE#         64
  C:44CFH         LINE#         65
  -------         ENDPROC       _PID_CONFIG
  -------         PROC          _OPENPID
  D:0007H         SYMBOL        PID_N
  C:6EDAH         LINE#         76
  C:6EDAH         LINE#         77
  C:6EDAH         LINE#         78
  C:6EEBH         LINE#         80
  -------         ENDPROC       _OPENPID
  -------         PROC          _CLOSEPID
  D:0007H         SYMBOL        PID_N
  C:6F46H         LINE#         90
  C:6F46H         LINE#         91
  C:6F46H         LINE#         92
  C:6F56H         LINE#         95
  -------         ENDPROC       _CLOSEPID
  -------         PROC          _POSITION_PID
  X:076CH         SYMBOL        PID_N
  C:39AEH         LINE#         105
  C:39B3H         LINE#         106
  C:39B3H         LINE#         107
  C:39C6H         LINE#         108
  C:39C6H         LINE#         109
  C:3A14H         LINE#         110
  C:3A57H         LINE#         111
  C:3B5CH         LINE#         114
  C:3B86H         LINE#         115
  C:3B88H         LINE#         116
  C:3B88H         LINE#         117
  C:3B89H         LINE#         118
  -------         ENDPROC       _POSITION_PID
  -------         PROC          _INTEGRAL_SEPARA_PID
BL51 BANKED LINKER/LOCATER V6.00                                                      08/02/2017  18:22:39  PAGE 19


  X:0746H         SYMBOL        PID_N
  -------         DO            
  X:0747H         SYMBOL        multiple
  -------         ENDDO         
  C:3768H         LINE#         128
  C:376DH         LINE#         129
  C:376DH         LINE#         131
  C:37B8H         LINE#         132
  C:37CCH         LINE#         133
  C:37CCH         LINE#         134
  C:3805H         LINE#         135
  C:3805H         LINE#         136
  C:380CH         LINE#         137
  C:380EH         LINE#         139
  C:380EH         LINE#         140
  C:3816H         LINE#         141
  C:385CH         LINE#         142
  C:385CH         LINE#         144
  C:3980H         LINE#         147
  C:39AAH         LINE#         148
  C:39ACH         LINE#         149
  C:39ACH         LINE#         150
  C:39ADH         LINE#         151
  -------         ENDPROC       _INTEGRAL_SEPARA_PID
  -------         PROC          _ANTI_WINDUP_PID
  X:0749H         SYMBOL        PID_N
  -------         DO            
  X:074AH         SYMBOL        multiple
  -------         ENDDO         
  C:251FH         LINE#         161
  C:2524H         LINE#         162
  C:2524H         LINE#         164
  C:256FH         LINE#         165
  C:2583H         LINE#         166
  C:2583H         LINE#         167
  C:25BFH         LINE#         168
  C:25BFH         LINE#         169
  C:260AH         LINE#         170
  C:260AH         LINE#         171
  C:260AH         LINE#         172
  C:260DH         LINE#         174
  C:260DH         LINE#         175
  C:2615H         LINE#         176
  C:2640H         LINE#         177
  C:2640H         LINE#         178
  C:2640H         LINE#         179
  C:2640H         LINE#         180
  C:2640H         LINE#         181
  C:2643H         LINE#         182
  C:2683H         LINE#         183
  C:2683H         LINE#         184
  C:26CEH         LINE#         185
  C:26CEH         LINE#         186
  C:26CEH         LINE#         187
  C:26D0H         LINE#         189
  C:26D0H         LINE#         190
  C:26D8H         LINE#         191
BL51 BANKED LINKER/LOCATER V6.00                                                      08/02/2017  18:22:39  PAGE 20


  C:2701H         LINE#         192
  C:2701H         LINE#         193
  C:2701H         LINE#         194
  C:2701H         LINE#         195
  C:2701H         LINE#         196
  C:2703H         LINE#         198
  C:2703H         LINE#         199
  C:274EH         LINE#         200
  C:274EH         LINE#         201
  C:2755H         LINE#         202
  C:2757H         LINE#         204
  C:2757H         LINE#         205
  C:275FH         LINE#         206
  C:27A5H         LINE#         207
  C:27A5H         LINE#         208
  C:27A5H         LINE#         210
  C:28C9H         LINE#         213
  C:28F3H         LINE#         214
  C:28F5H         LINE#         215
  C:28F5H         LINE#         216
  C:28F6H         LINE#         217
  -------         ENDPROC       _ANTI_WINDUP_PID
  -------         PROC          _TRAPEZOIDAL_INTEGRAL_PID
  X:074CH         SYMBOL        PID_N
  -------         DO            
  X:074DH         SYMBOL        multiple
  -------         ENDDO         
  C:213EH         LINE#         227
  C:2143H         LINE#         228
  C:2143H         LINE#         230
  C:218EH         LINE#         231
  C:21A2H         LINE#         232
  C:21A2H         LINE#         233
  C:21DEH         LINE#         234
  C:21DEH         LINE#         235
  C:2229H         LINE#         236
  C:2229H         LINE#         237
  C:2229H         LINE#         238
  C:222CH         LINE#         240
  C:222CH         LINE#         241
  C:2234H         LINE#         242
  C:225FH         LINE#         243
  C:225FH         LINE#         244
  C:225FH         LINE#         245
  C:225FH         LINE#         246
  C:225FH         LINE#         247
  C:2262H         LINE#         248
  C:22A2H         LINE#         249
  C:22A2H         LINE#         250
  C:22EDH         LINE#         251
  C:22EDH         LINE#         252
  C:22EDH         LINE#         253
  C:22EFH         LINE#         255
  C:22EFH         LINE#         256
  C:22F7H         LINE#         257
  C:2320H         LINE#         258
  C:2320H         LINE#         259
BL51 BANKED LINKER/LOCATER V6.00                                                      08/02/2017  18:22:39  PAGE 21


  C:2320H         LINE#         260
  C:2320H         LINE#         261
  C:2320H         LINE#         262
  C:2322H         LINE#         264
  C:2322H         LINE#         265
  C:236DH         LINE#         266
  C:236DH         LINE#         267
  C:2374H         LINE#         268
  C:2376H         LINE#         270
  C:2376H         LINE#         271
  C:237EH         LINE#         272
  C:23C4H         LINE#         273
  C:23C4H         LINE#         274
  C:23C4H         LINE#         276
  C:24F1H         LINE#         279
  C:251BH         LINE#         280
  C:251DH         LINE#         281
  C:251DH         LINE#         282
  C:251EH         LINE#         283
  -------         ENDPROC       _TRAPEZOIDAL_INTEGRAL_PID
  -------         PROC          _INCREMENTAL_PID
  X:076DH         SYMBOL        PID_N
  C:3F22H         LINE#         293
  C:3F27H         LINE#         294
  C:3F27H         LINE#         295
  C:3F3AH         LINE#         296
  C:3F3AH         LINE#         297
  C:3F88H         LINE#         298
  C:406AH         LINE#         301
  C:4094H         LINE#         302
  C:40BEH         LINE#         303
  C:40C0H         LINE#         304
  C:40C0H         LINE#         305
  C:40C1H         LINE#         306
  -------         ENDPROC       _INCREMENTAL_PID
  -------         PROC          _SETPARAMETERINFERIORLIMIT
  D:0003H         SYMBOL        PID_N
  X:0700H         SYMBOL        value
  C:6874H         LINE#         317
  C:6876H         LINE#         318
  C:6876H         LINE#         319
  -------         ENDPROC       _SETPARAMETERINFERIORLIMIT
  -------         PROC          _SETPARAMETERUPPERLIMIT
  D:0003H         SYMBOL        PID_N
  X:0705H         SYMBOL        value
  C:6895H         LINE#         331
  C:6897H         LINE#         332
  C:6897H         LINE#         333
  -------         ENDPROC       _SETPARAMETERUPPERLIMIT
  -------         PROC          _SETACTUALPARAMETER
  D:0003H         SYMBOL        PID_N
  X:070AH         SYMBOL        value
  C:68B6H         LINE#         346
  C:68B8H         LINE#         347
  C:68B8H         LINE#         348
  -------         ENDPROC       _SETACTUALPARAMETER
  -------         PROC          _SETKI
BL51 BANKED LINKER/LOCATER V6.00                                                      08/02/2017  18:22:39  PAGE 22


  D:0003H         SYMBOL        PID_N
  X:070FH         SYMBOL        value
  C:68D7H         LINE#         361
  C:68D9H         LINE#         362
  C:68D9H         LINE#         363
  -------         ENDPROC       _SETKI
  -------         PROC          _SETKP
  D:0003H         SYMBOL        PID_N
  X:0714H         SYMBOL        value
  C:68F8H         LINE#         375
  C:68FAH         LINE#         376
  C:68FAH         LINE#         377
  -------         ENDPROC       _SETKP
  -------         PROC          _SETKD
  D:0003H         SYMBOL        PID_N
  X:0719H         SYMBOL        value
  C:6919H         LINE#         389
  C:691BH         LINE#         390
  C:691BH         LINE#         391
  -------         ENDPROC       _SETKD
  -------         PROC          _SETPARAMETER
  D:0003H         SYMBOL        PID_N
  X:071EH         SYMBOL        value
  C:693AH         LINE#         403
  C:693CH         LINE#         404
  C:693CH         LINE#         405
  -------         ENDPROC       _SETPARAMETER
  -------         PROC          _GETPARAMETER
  D:0007H         SYMBOL        PID_N
  C:6C48H         LINE#         417
  C:6C48H         LINE#         418
  C:6C48H         LINE#         419
  C:6C61H         LINE#         420
  -------         ENDPROC       _GETPARAMETER
  -------         PROC          _GETERR
  D:0007H         SYMBOL        PID_N
  C:6C62H         LINE#         430
  C:6C62H         LINE#         431
  C:6C62H         LINE#         432
  C:6C7BH         LINE#         433
  -------         ENDPROC       _GETERR
  -------         PROC          _GETERRLAST
  D:0007H         SYMBOL        PID_N
  C:6C7CH         LINE#         443
  C:6C7CH         LINE#         444
  C:6C7CH         LINE#         445
  C:6C95H         LINE#         446
  -------         ENDPROC       _GETERRLAST
  -------         PROC          _GETKP
  D:0007H         SYMBOL        PID_N
  C:6C96H         LINE#         456
  C:6C96H         LINE#         457
  C:6C96H         LINE#         458
  C:6CAFH         LINE#         459
  -------         ENDPROC       _GETKP
  -------         PROC          _GETKI
  D:0007H         SYMBOL        PID_N
BL51 BANKED LINKER/LOCATER V6.00                                                      08/02/2017  18:22:39  PAGE 23


  C:6CB0H         LINE#         469
  C:6CB0H         LINE#         470
  C:6CB0H         LINE#         471
  C:6CC9H         LINE#         472
  -------         ENDPROC       _GETKI
  -------         PROC          _GETKD
  D:0007H         SYMBOL        PID_N
  C:6CCAH         LINE#         482
  C:6CCAH         LINE#         483
  C:6CCAH         LINE#         484
  C:6CE3H         LINE#         485
  -------         ENDPROC       _GETKD
  -------         PROC          _GETOUTPUT
  D:0007H         SYMBOL        PID_N
  C:6CE4H         LINE#         495
  C:6CE4H         LINE#         496
  C:6CE4H         LINE#         497
  C:6CFDH         LINE#         498
  -------         ENDPROC       _GETOUTPUT
  -------         PROC          _GETINTEGRAL
  D:0007H         SYMBOL        PID_N
  C:6CFEH         LINE#         508
  C:6CFEH         LINE#         509
  C:6CFEH         LINE#         510
  C:6D17H         LINE#         511
  -------         ENDPROC       _GETINTEGRAL
  -------         PROC          _SETMAXERROR
  D:0003H         SYMBOL        PID_N
  X:0723H         SYMBOL        err_max
  C:695BH         LINE#         521
  C:695DH         LINE#         522
  C:695DH         LINE#         523
  -------         ENDPROC       _SETMAXERROR
  -------         PROC          _POSCLASSPID
  X:076EH         SYMBOL        PID_N
  D:0005H         SYMBOL        PID_MODE
  C:5FB7H         LINE#         535
  C:5FBCH         LINE#         536
  C:5FBCH         LINE#         537
  C:5FCCH         LINE#         538
  C:5FCCH         LINE#         539
  C:5FDBH         LINE#         540
  C:5FDBH         LINE#         541
  C:5FDBH         LINE#         542
  C:5FE3H         LINE#         543
  C:5FE3H         LINE#         544
  C:5FE3H         LINE#         545
  C:5FEBH         LINE#         546
  C:5FEBH         LINE#         547
  C:5FEBH         LINE#         548
  C:5FF3H         LINE#         549
  C:5FF3H         LINE#         550
  C:5FF3H         LINE#         551
  C:5FFBH         LINE#         552
  C:5FFBH         LINE#         553
  C:5FFBH         LINE#         554
  C:5FFBH         LINE#         555
BL51 BANKED LINKER/LOCATER V6.00                                                      08/02/2017  18:22:39  PAGE 24


  -------         ENDPROC       _POSCLASSPID
  -------         PROC          _INCCLASSPID
  D:0007H         SYMBOL        PID_N
  D:0005H         SYMBOL        PID_MODE
  C:6DB4H         LINE#         566
  C:6DB4H         LINE#         567
  C:6DB4H         LINE#         568
  C:6DC5H         LINE#         569
  C:6DC5H         LINE#         570
  C:6DC9H         LINE#         571
  C:6DC9H         LINE#         572
  C:6DC9H         LINE#         573
  C:6DCCH         LINE#         574
  C:6DCCH         LINE#         575
  C:6DCCH         LINE#         576
  C:6DCCH         LINE#         577
  -------         ENDPROC       _INCCLASSPID
  -------         ENDMOD        PID

  -------         MODULE        DATASCOPE_DP
  C:0000H         SYMBOL        _ICE_DUMMY_
  D:0080H         PUBLIC        P0
  D:0090H         PUBLIC        P1
  D:00A0H         PUBLIC        P2
  D:00B0H         PUBLIC        P3
  D:00C0H         PUBLIC        P4
  D:00C8H         PUBLIC        P5
  D:00E8H         PUBLIC        P6
  D:00F8H         PUBLIC        P7
  X:04E1H         PUBLIC        DataScope_OutPut_Buffer
  D:00A8H         PUBLIC        IE
  D:00B8H         PUBLIC        IP
  D:00D8H         PUBLIC        CCON
  C:64E1H         PUBLIC        _sendScopeData
  D:0098H         PUBLIC        SCON
  D:0088H         PUBLIC        TCON
  D:00F0H         PUBLIC        B
  C:5179H         PUBLIC        _Float2Byte
  X:050BH         SYMBOL        g_Button
  D:00E0H         PUBLIC        ACC
  C:5223H         PUBLIC        _DataScope_Data_Generate
  C:476CH         PUBLIC        _DataScope_Get_Channel_Data
  D:00D0H         PUBLIC        PSW
  -------         PROC          _FLOAT2BYTE
  D:0001H         SYMBOL        target
  X:03BAH         SYMBOL        buf
  X:03BDH         SYMBOL        beg
  -------         DO            
  X:03BEH         SYMBOL        point
  -------         ENDDO         
  C:5179H         LINE#         26
  C:5179H         LINE#         27
  C:5179H         LINE#         29
  C:5184H         LINE#         30
  C:51A2H         LINE#         31
  C:51CEH         LINE#         32
  C:51FAH         LINE#         33
BL51 BANKED LINKER/LOCATER V6.00                                                      08/02/2017  18:22:39  PAGE 25


  -------         ENDPROC       _FLOAT2BYTE
  -------         PROC          _SENDSCOPEDATA
  X:03B2H         SYMBOL        channe_num
  -------         DO            
  X:03B3H         SYMBOL        a
  -------         ENDDO         
  C:64E1H         LINE#         43
  C:64E6H         LINE#         44
  C:64E6H         LINE#         48
  C:64FAH         LINE#         49
  C:64FAH         LINE#         50
  C:6509H         LINE#         51
  C:6511H         LINE#         53
  -------         ENDPROC       _SENDSCOPEDATA
  -------         PROC          _DATASCOPE_GET_CHANNEL_DATA
  X:03B2H         SYMBOL        Data
  X:03B6H         SYMBOL        Channel
  C:476CH         LINE#         59
  C:4772H         LINE#         60
  C:4772H         LINE#         61
  C:4785H         LINE#         62
  C:4785H         LINE#         64
  C:4785H         LINE#         66
  C:4785H         LINE#         67
  C:47BBH         LINE#         68
  C:47BBH         LINE#         69
  C:47BBH         LINE#         70
  C:47CEH         LINE#         71
  C:47D1H         LINE#         72
  C:47D1H         LINE#         73
  C:47E5H         LINE#         74
  C:47E8H         LINE#         75
  C:47E8H         LINE#         76
  C:47FCH         LINE#         77
  C:47FFH         LINE#         78
  C:47FFH         LINE#         79
  C:4813H         LINE#         80
  C:4816H         LINE#         81
  C:4816H         LINE#         82
  C:482AH         LINE#         83
  C:482CH         LINE#         84
  C:482CH         LINE#         85
  C:4840H         LINE#         86
  C:4842H         LINE#         87
  C:4842H         LINE#         88
  C:4856H         LINE#         89
  C:4858H         LINE#         90
  C:4858H         LINE#         91
  C:486CH         LINE#         92
  C:486EH         LINE#         93
  C:486EH         LINE#         94
  C:4882H         LINE#         95
  C:4884H         LINE#         96
  C:4884H         LINE#         97
  C:489FH         LINE#         98
  C:489FH         LINE#         99
  C:489FH         LINE#         100
BL51 BANKED LINKER/LOCATER V6.00                                                      08/02/2017  18:22:39  PAGE 26


  C:489FH         LINE#         101
  -------         ENDPROC       _DATASCOPE_GET_CHANNEL_DATA
  -------         PROC          _DATASCOPE_DATA_GENERATE
  D:0007H         SYMBOL        Channel_Number
  C:5223H         LINE#         106
  C:5223H         LINE#         107
  C:5223H         LINE#         108
  C:522CH         LINE#         109
  C:522CH         LINE#         110
  C:522FH         LINE#         111
  C:522FH         LINE#         113
  C:522FH         LINE#         114
  C:5235H         LINE#         115
  C:526BH         LINE#         116
  C:526BH         LINE#         117
  C:526BH         LINE#         118
  C:5271H         LINE#         119
  C:5274H         LINE#         120
  C:5274H         LINE#         121
  C:5274H         LINE#         122
  C:527AH         LINE#         123
  C:527DH         LINE#         124
  C:527DH         LINE#         125
  C:527DH         LINE#         126
  C:5283H         LINE#         127
  C:5286H         LINE#         128
  C:5286H         LINE#         129
  C:5286H         LINE#         130
  C:528CH         LINE#         131
  C:528FH         LINE#         132
  C:528FH         LINE#         133
  C:528FH         LINE#         134
  C:5295H         LINE#         135
  C:5298H         LINE#         136
  C:5298H         LINE#         137
  C:5298H         LINE#         138
  C:529EH         LINE#         139
  C:52A1H         LINE#         140
  C:52A1H         LINE#         141
  C:52A1H         LINE#         142
  C:52A7H         LINE#         143
  C:52AAH         LINE#         144
  C:52AAH         LINE#         145
  C:52AAH         LINE#         146
  C:52B0H         LINE#         147
  C:52B3H         LINE#         148
  C:52B3H         LINE#         149
  C:52B3H         LINE#         150
  C:52B9H         LINE#         151
  C:52BCH         LINE#         152
  C:52BCH         LINE#         153
  C:52BCH         LINE#         154
  C:52C2H         LINE#         155
  C:52C5H         LINE#         156
  C:52C5H         LINE#         157
  C:52C5H         LINE#         158
  C:52C5H         LINE#         159
BL51 BANKED LINKER/LOCATER V6.00                                                      08/02/2017  18:22:39  PAGE 27


  C:52C7H         LINE#         160
  -------         ENDPROC       _DATASCOPE_DATA_GENERATE
  -------         ENDMOD        DATASCOPE_DP

  -------         MODULE        ?RTX51_TINY_KERNAL
  C:7135H         SEGMENT       ?RTX?TASKENT?S
  I:001AH         SEGMENT       ?RTX?TASKSP?S
  I:0063H         SEGMENT       ?RTX?TASKSTATE?S
  C:3024H         SEGMENT       ?RTX?CODE
  C:3070H         PUBLIC        ?RTX?SET_ISR
  D:000CH         PUBLIC        ?RTX_CURRENTTASK
  D:0007H         PUBLIC        ?RTX_NEXTID
  C:3086H         PUBLIC        ?RTX_NEXTTASK
  N:00FFH         PUBLIC        ?RTX_RAMTOP
  C:7135H         PUBLIC        ?RTX_TASKENTRY
  C:313AH         PUBLIC        ?RTX_TASKIDX
  I:001AH         PUBLIC        ?RTX_TASKSP
  I:0063H         PUBLIC        ?RTX_TASKSTATUS
  C:3101H         PUBLIC        MAIN
  C:3071H         PUBLIC        OS_SWITCH_TASK
  C:3078H         SYMBOL        ?C0001
  C:3082H         SYMBOL        ?C0003
  C:3087H         SYMBOL        ?C0005
  C:30A1H         SYMBOL        ?C0007
  C:30A3H         SYMBOL        ?C0009
  C:30ADH         SYMBOL        ?C0011
  C:30DAH         SYMBOL        ?C0012
  C:30C0H         SYMBOL        ?C0013
  C:30C5H         SYMBOL        ?C0015
  C:30D0H         SYMBOL        ?C0016
  N:0000H         SYMBOL        ?RTX51_TINY_KERNAL
  N:F63CH         SYMBOL        ?RTX_CLOCK
  N:0008H         SYMBOL        ?RTX_REGISTERBANK
  D:000AH         SYMBOL        ?RTX_SAVEACC
  D:000BH         SYMBOL        ?RTX_SAVEPSW
  C:3024H         SYMBOL        ?RTX_STACKERROR
  D:00E0H         SYMBOL        ACC
  D:00F0H         SYMBOL        B
  N:0005H         SYMBOL        B_ACTIVE
  N:0007H         SYMBOL        B_IVL
  N:0007H         SYMBOL        B_RDY
  N:0004H         SYMBOL        B_READY
  N:0006H         SYMBOL        B_ROBIN
  N:0002H         SYMBOL        B_SIGNAL
  N:0003H         SYMBOL        B_TIMEOUT
  N:0000H         SYMBOL        B_WAITSIG
  N:0001H         SYMBOL        B_WAITTIM
  C:304EH         SYMBOL        CHECKSTACK
  N:0000H         SYMBOL        CODE_BANKING
  N:0000H         SYMBOL        CPU_IDLE_CODE
  D:0083H         SYMBOL        DPH
  D:0082H         SYMBOL        DPL
  B:00A8H.7       SYMBOL        EA
  B:00A8H.4       SYMBOL        ES
  B:00A8H.1       SYMBOL        ET0
  B:00A8H.3       SYMBOL        ET1
  B:00A8H.0       SYMBOL        EX0
BL51 BANKED LINKER/LOCATER V6.00                                                      08/02/2017  18:22:39  PAGE 28


  B:00A8H.2       SYMBOL        EX1
  N:0014H         SYMBOL        FREE_STACK
  C:3028H         SYMBOL        HW_TIMER
  D:00A8H         SYMBOL        IE
  B:0088H.1       SYMBOL        IE0
  B:0088H.3       SYMBOL        IE1
  N:09C4H         SYMBOL        INT_CLOCK
  N:0001H         SYMBOL        INT_REGBANK
  B:0088H.0       SYMBOL        IT0
  B:0088H.2       SYMBOL        IT1
  N:0020H         SYMBOL        K_ACTIVE
  N:0080H         SYMBOL        K_IVL
  N:0080H         SYMBOL        K_RDY
  N:0010H         SYMBOL        K_READY
  N:0040H         SYMBOL        K_ROBIN
  N:0001H         SYMBOL        K_SIG
  N:0002H         SYMBOL        K_TMO
  N:0000H         SYMBOL        LONG_USR_INTR
  C:310AH         SYMBOL        MAIN1
  C:3114H         SYMBOL        MAIN1X
  C:310FH         SYMBOL        MAIN2
  C:30F7H         SYMBOL        NOEVENT
  C:306AH         SYMBOL        NOTIMEOUT
  C:3068H         SYMBOL        NOWAITTIMEOUT
  C:3071H         SYMBOL        OS_SWITCH_TASK1
  D:0087H         SYMBOL        PCON
  D:00D0H         SYMBOL        PSW
  N:00FFH         SYMBOL        RAMTOP
  N:0080H         SYMBOL        RDY_EVENT
  C:30EBH         SYMBOL        SIGNALOFF
  C:30F7H         SYMBOL        SIGNALON
  N:0004H         SYMBOL        SIG_EVENT
  D:0081H         SYMBOL        SP
  I:0064H         SYMBOL        TASKSTATE
  D:0088H         SYMBOL        TCON
  B:0088H.5       SYMBOL        TF0
  B:0088H.7       SYMBOL        TF1
  D:008CH         SYMBOL        TH0
  D:008DH         SYMBOL        TH1
  C:30F3H         SYMBOL        TIMEOUTON
  C:3029H         SYMBOL        TIMERINT
  C:305AH         SYMBOL        TIMERLOOP
  I:0063H         SYMBOL        TIMERVAL
  N:0000H         SYMBOL        TIMESHARING
  D:008AH         SYMBOL        TL0
  D:008BH         SYMBOL        TL1
  D:0089H         SYMBOL        TMOD
  N:0008H         SYMBOL        TMO_EVENT
  B:0088H.4       SYMBOL        TR0
  B:0088H.6       SYMBOL        TR1
  C:000BH         LINE#         271
  C:3024H         LINE#         279
  C:3028H         LINE#         282
  C:3029H         LINE#         299
  C:302CH         LINE#         301
  C:302FH         LINE#         302
  C:3032H         LINE#         303
BL51 BANKED LINKER/LOCATER V6.00                                                      08/02/2017  18:22:39  PAGE 29


  C:3034H         LINE#         305
  C:3036H         LINE#         306
  C:3038H         LINE#         307
  C:303AH         LINE#         308
  C:303CH         LINE#         309
  C:303EH         LINE#         310
  C:3040H         LINE#         311
  C:3042H         LINE#         312
  C:3044H         LINE#         316
  C:3045H         LINE#         317
  C:3047H         LINE#         318
  C:3048H         LINE#         319
  C:3049H         LINE#         320
  C:304CH         LINE#         321
  C:304EH         LINE#         322
  C:304FH         LINE#         323
  C:3051H         LINE#         324
  C:3054H         LINE#         325
  C:3056H         LINE#         329
  C:3058H         LINE#         330
  C:305AH         LINE#         331
  C:305BH         LINE#         332
  C:305CH         LINE#         333
  C:305DH         LINE#         334
  C:305FH         LINE#         335
  C:3061H         LINE#         336
  C:3062H         LINE#         337
  C:3065H         LINE#         338
  C:3067H         LINE#         339
  C:3068H         LINE#         340
  C:306AH         LINE#         341
  C:306BH         LINE#         342
  C:306DH         LINE#         344
  C:306EH         LINE#         345
  C:3070H         LINE#         354
  C:3071H         LINE#         426
  C:3073H         LINE#         427
  C:3074H         LINE#         429
  C:3075H         LINE#         430
  C:3077H         LINE#         431
  C:3078H         LINE#         434
  C:3079H         LINE#         435
  C:307AH         LINE#         436
  C:307BH         LINE#         444
  C:307EH         LINE#         445
  C:3080H         LINE#         446
  C:3082H         LINE#         449
  C:3083H         LINE#         450
  C:3086H         LINE#         458
  C:3087H         LINE#         462
  C:3089H         LINE#         463
  C:308AH         LINE#         464
  C:308BH         LINE#         465
  C:308DH         LINE#         468
  C:308FH         LINE#         470
  C:3091H         LINE#         471
  C:3093H         LINE#         472
BL51 BANKED LINKER/LOCATER V6.00                                                      08/02/2017  18:22:39  PAGE 30


  C:3094H         LINE#         473
  C:3095H         LINE#         474
  C:3096H         LINE#         476
  C:3098H         LINE#         478
  C:3099H         LINE#         479
  C:309AH         LINE#         480
  C:309CH         LINE#         481
  C:309FH         LINE#         482
  C:30A1H         LINE#         484
  C:30A2H         LINE#         485
  C:30A3H         LINE#         490
  C:30A4H         LINE#         491
  C:30A5H         LINE#         492
  C:30A7H         LINE#         496
  C:30A8H         LINE#         497
  C:30A9H         LINE#         498
  C:30ABH         LINE#         499
  C:30ADH         LINE#         505
  C:30AFH         LINE#         506
  C:30B0H         LINE#         507
  C:30B1H         LINE#         508
  C:30B3H         LINE#         510
  C:30B5H         LINE#         511
  C:30B7H         LINE#         512
  C:30B8H         LINE#         513
  C:30B9H         LINE#         516
  C:30BBH         LINE#         517
  C:30BEH         LINE#         518
  C:30C0H         LINE#         520
  C:30C1H         LINE#         522
  C:30C2H         LINE#         523
  C:30C3H         LINE#         524
  C:30C4H         LINE#         525
  C:30C5H         LINE#         529
  C:30C7H         LINE#         530
  C:30C8H         LINE#         531
  C:30CAH         LINE#         535
  C:30CCH         LINE#         536
  C:30CDH         LINE#         537
  C:30CEH         LINE#         539
  C:30D0H         LINE#         543
  C:30D2H         LINE#         544
  C:30D4H         LINE#         545
  C:30D5H         LINE#         546
  C:30D6H         LINE#         548
  C:30D8H         LINE#         549
  C:30DAH         LINE#         559
  C:30DCH         LINE#         560
  C:30DDH         LINE#         561
  C:30DFH         LINE#         562
  C:30E0H         LINE#         563
  C:30E2H         LINE#         564
  C:30E4H         LINE#         565
  C:30E5H         LINE#         571
  C:30E8H         LINE#         572
  C:30EBH         LINE#         576
  C:30EDH         LINE#         577
BL51 BANKED LINKER/LOCATER V6.00                                                      08/02/2017  18:22:39  PAGE 31


  C:30F0H         LINE#         578
  C:30F3H         LINE#         580
  C:30F5H         LINE#         581
  C:30F7H         LINE#         583
  C:30F9H         LINE#         584
  C:30FAH         LINE#         585
  C:30FCH         LINE#         587
  C:30FEH         LINE#         588
  C:3100H         LINE#         601
  C:3101H         LINE#         642
  C:3103H         LINE#         643
  C:3105H         LINE#         644
  C:3107H         LINE#         645
  C:3109H         LINE#         646
  C:310AH         LINE#         647
  C:310BH         LINE#         648
  C:310DH         LINE#         649
  C:310FH         LINE#         650
  C:3111H         LINE#         651
  C:3112H         LINE#         652
  C:3114H         LINE#         653
  C:3115H         LINE#         654
  C:3116H         LINE#         655
  C:3117H         LINE#         656
  C:3118H         LINE#         657
  C:311AH         LINE#         658
  C:311CH         LINE#         659
  C:311EH         LINE#         660
  C:3121H         LINE#         661
  C:3123H         LINE#         662
  C:3124H         LINE#         663
  C:3126H         LINE#         664
  C:3127H         LINE#         665
  C:3128H         LINE#         666
  C:312AH         LINE#         670
  C:312DH         LINE#         671
  C:3130H         LINE#         672
  C:3133H         LINE#         673
  C:3135H         LINE#         674
  C:3137H         LINE#         675
  C:3139H         LINE#         676
  -------         ENDMOD        ?RTX51_TINY_KERNAL

  -------         MODULE        BUTTON
  C:0000H         SYMBOL        _ICE_DUMMY_
  D:0080H         PUBLIC        P0
  D:0090H         PUBLIC        P1
  D:00A0H         PUBLIC        P2
  D:00B0H         PUBLIC        P3
  D:00C0H         PUBLIC        P4
  D:00C8H         PUBLIC        P5
  D:00E8H         PUBLIC        P6
  D:00F8H         PUBLIC        P7
  D:00A8H         PUBLIC        IE
  D:00B8H         PUBLIC        IP
  D:00D8H         PUBLIC        CCON
  C:61C5H         PUBLIC        buttonScan
BL51 BANKED LINKER/LOCATER V6.00                                                      08/02/2017  18:22:39  PAGE 32


  D:0098H         PUBLIC        SCON
  D:0088H         PUBLIC        TCON
  D:00F0H         PUBLIC        B
  C:7053H         PUBLIC        _getButtonState
  X:062EH         SYMBOL        g_Button
  D:00E0H         PUBLIC        ACC
  C:717DH         PUBLIC        Button_config
  D:00D0H         PUBLIC        PSW
  -------         PROC          BUTTON_CONFIG
  C:717DH         LINE#         24
  C:717DH         LINE#         25
  C:717DH         LINE#         26
  -------         ENDPROC       BUTTON_CONFIG
  -------         PROC          _GETBUTTONSTATE
  D:0007H         SYMBOL        BUTTON_data
  C:7053H         LINE#         53
  C:7053H         LINE#         54
  C:7053H         LINE#         55
  C:705FH         LINE#         56
  -------         ENDPROC       _GETBUTTONSTATE
  -------         PROC          BUTTONSCAN
  -------         DO            
  X:062DH         SYMBOL        wait
  D:0007H         SYMBOL        i
  D:0007H         SYMBOL        num
  -------         ENDDO         
  C:61C5H         LINE#         66
  C:61C5H         LINE#         67
  C:61C5H         LINE#         70
  C:61CBH         LINE#         71
  C:61CBH         LINE#         72
  C:61CEH         LINE#         73
  C:61D1H         LINE#         74
  C:61D1H         LINE#         75
  C:61DDH         LINE#         76
  C:61E2H         LINE#         77
  C:61E4H         LINE#         79
  C:61E4H         LINE#         80
  C:61F1H         LINE#         81
  C:61F1H         LINE#         82
  C:61F1H         LINE#         83
  C:61F1H         LINE#         84
  C:61FBH         LINE#         85
  C:61FBH         LINE#         86
  C:61FBH         LINE#         87
  C:61FBH         LINE#         88
  C:6201H         LINE#         89
  C:6201H         LINE#         90
  -------         ENDPROC       BUTTONSCAN
  -------         ENDMOD        BUTTON

  -------         MODULE        LCD5510_V2
  C:0000H         SYMBOL        _ICE_DUMMY_
  D:0080H         PUBLIC        P0
  D:0090H         PUBLIC        P1
  D:00A0H         PUBLIC        P2
  D:00B0H         PUBLIC        P3
BL51 BANKED LINKER/LOCATER V6.00                                                      08/02/2017  18:22:39  PAGE 33


  D:00C0H         PUBLIC        P4
  D:00C8H         PUBLIC        P5
  D:00E8H         PUBLIC        P6
  D:00F8H         PUBLIC        P7
  D:00A8H         PUBLIC        IE
  B:00C8H.0       PUBLIC        LCD_CLK
  B:00C8H.1       PUBLIC        LCD_DIN
  C:32B8H         PUBLIC        Font_code
  C:6084H         PUBLIC        LCD5510_Init
  D:00B8H         PUBLIC        IP
  C:6E41H         PUBLIC        _LCD_pos_byte
  C:697CH         PUBLIC        LCD_clr_scr
  D:00D8H         PUBLIC        CCON
  B:00C8H.4       PUBLIC        LCD_RST
  C:6E69H         PUBLIC        _LCD_clr_row
  D:0098H         PUBLIC        SCON
  D:0088H         PUBLIC        TCON
  B:00C8H.2       PUBLIC        LCD_DC
  C:5FFCH         PUBLIC        _LCD_printNum_F
  C:632EH         PUBLIC        _LCD_printNum_I
  D:00F0H         PUBLIC        B
  C:5E90H         PUBLIC        _LCD_printsl
  D:00E0H         PUBLIC        ACC
  C:6209H         PUBLIC        _LCD_printc
  B:00C8H.3       PUBLIC        LCD_CS
  C:62B8H         PUBLIC        _LCD_prints
  C:69BDH         PUBLIC        _LCD_write_byte
  D:00D0H         PUBLIC        PSW
  -------         PROC          _LCD_WRITE_BYTE
  D:0007H         SYMBOL        wbyte
  D:0005H         SYMBOL        dat_cmd
  -------         DO            
  D:0006H         SYMBOL        i
  -------         ENDDO         
  C:69BDH         LINE#         111
  C:69BDH         LINE#         112
  C:69BDH         LINE#         115
  C:69BFH         LINE#         116
  C:69C4H         LINE#         118
  C:69C6H         LINE#         119
  C:69C6H         LINE#         120
  C:69CEH         LINE#         121
  C:69D0H         LINE#         123
  C:69D2H         LINE#         124
  C:69D6H         LINE#         125
  C:69D8H         LINE#         126
  C:69DAH         LINE#         128
  C:69DCH         LINE#         129
  -------         ENDPROC       _LCD_WRITE_BYTE
  -------         PROC          LCD_CLR_SCR
  -------         DO            
  D:0002H         SYMBOL        i
  -------         ENDDO         
  C:697CH         LINE#         164
  C:697CH         LINE#         165
  C:697CH         LINE#         168
  C:6983H         LINE#         169
BL51 BANKED LINKER/LOCATER V6.00                                                      08/02/2017  18:22:39  PAGE 34


  C:6988H         LINE#         171
  C:699CH         LINE#         172
  -------         ENDPROC       LCD_CLR_SCR
  -------         PROC          _LCD_CLR_ROW
  D:0007H         SYMBOL        num
  -------         DO            
  D:0004H         SYMBOL        i
  -------         ENDDO         
  C:6E69H         LINE#         178
  C:6E69H         LINE#         179
  C:6E69H         LINE#         182
  C:6E70H         LINE#         183
  C:6E7BH         LINE#         184
  -------         ENDPROC       _LCD_CLR_ROW
  -------         PROC          _LCD_POS_BYTE
  D:0007H         SYMBOL        x
  D:0004H         SYMBOL        y
  C:6E41H         LINE#         192
  C:6E43H         LINE#         193
  C:6E43H         LINE#         194
  C:6E47H         LINE#         195
  C:6E4BH         LINE#         196
  C:6E50H         LINE#         197
  -------         ENDPROC       _LCD_POS_BYTE
  -------         PROC          L?0032
  -------         ENDPROC       L?0032
  -------         PROC          _LCD_PRINTC
  D:0007H         SYMBOL        x
  D:0005H         SYMBOL        y
  D:0003H         SYMBOL        c_dat
  -------         DO            
  D:0004H         SYMBOL        i
  -------         ENDDO         
  C:6209H         LINE#         205
  C:6209H         LINE#         206
  C:6209H         LINE#         209
  C:620DH         LINE#         210
  C:6213H         LINE#         212
  C:6216H         LINE#         213
  C:623EH         LINE#         214
  -------         ENDPROC       _LCD_PRINTC
  -------         PROC          _LCD_PRINTS
  X:0727H         SYMBOL        x
  X:0728H         SYMBOL        y
  X:0729H         SYMBOL        s_dat
  C:62B8H         LINE#         221
  C:62C9H         LINE#         222
  C:62C9H         LINE#         223
  C:62F2H         LINE#         224
  -------         ENDPROC       _LCD_PRINTS
  -------         PROC          _LCD_PRINTSL
  X:0382H         SYMBOL        x
  X:0383H         SYMBOL        y
  X:0384H         SYMBOL        s_dat
  C:5E90H         LINE#         231
  C:5EA1H         LINE#         232
  C:5EA1H         LINE#         233
BL51 BANKED LINKER/LOCATER V6.00                                                      08/02/2017  18:22:39  PAGE 35


  C:5EB2H         LINE#         234
  C:5EB2H         LINE#         235
  C:5EB8H         LINE#         236
  C:5EC2H         LINE#         237
  C:5ECFH         LINE#         238
  C:5ED8H         LINE#         239
  C:5EDAH         LINE#         240
  -------         ENDPROC       _LCD_PRINTSL
  -------         PROC          _LCD_PRINTNUM_I
  X:0376H         SYMBOL        x
  X:0377H         SYMBOL        y
  D:0006H         SYMBOL        num
  X:037AH         SYMBOL        numLength
  -------         DO            
  X:037BH         SYMBOL        str
  -------         ENDDO         
  C:632EH         LINE#         241
  C:633AH         LINE#         242
  C:633AH         LINE#         245
  C:6357H         LINE#         246
  -------         ENDPROC       _LCD_PRINTNUM_I
  -------         PROC          _LCD_PRINTNUM_F
  X:067EH         SYMBOL        x
  X:067FH         SYMBOL        y
  X:0680H         SYMBOL        num
  X:0684H         SYMBOL        numLength
  X:0685H         SYMBOL        accuracy
  -------         DO            
  X:0686H         SYMBOL        str
  -------         ENDDO         
  C:5FFCH         LINE#         249
  C:6004H         LINE#         250
  C:6004H         LINE#         253
  C:602FH         LINE#         254
  -------         ENDPROC       _LCD_PRINTNUM_F
  -------         PROC          LCD5510_INIT
  -------         DO            
  X:0333H         SYMBOL        GPIO_InitStructure
  -------         ENDDO         
  C:6084H         LINE#         278
  C:6084H         LINE#         279
  C:6084H         LINE#         281
  C:6089H         LINE#         282
  C:608CH         LINE#         283
  C:6096H         LINE#         284
  C:609AH         LINE#         287
  C:60A1H         LINE#         288
  C:60A6H         LINE#         289
  C:60ABH         LINE#         290
  C:60B0H         LINE#         292
  C:60B5H         LINE#         293
  C:60BAH         LINE#         294
  C:60BFH         LINE#         295
  C:60C4H         LINE#         296
  -------         ENDPROC       LCD5510_INIT
  -------         ENDMOD        LCD5510_V2

BL51 BANKED LINKER/LOCATER V6.00                                                      08/02/2017  18:22:39  PAGE 36


  -------         MODULE        LED
  C:0000H         SYMBOL        _ICE_DUMMY_
  D:0080H         PUBLIC        P0
  D:0090H         PUBLIC        P1
  D:00A0H         PUBLIC        P2
  D:00B0H         PUBLIC        P3
  D:00C0H         PUBLIC        P4
  D:00C8H         PUBLIC        P5
  B:0021H.7       SYMBOL        Board_LED_State
  D:00E8H         PUBLIC        P6
  D:00F8H         PUBLIC        P7
  D:00A8H         PUBLIC        IE
  C:6852H         PUBLIC        _blink
  C:65C5H         PUBLIC        Board_LED_Init
  D:00B8H         PUBLIC        IP
  C:716CH         PUBLIC        close_Board_LED
  D:00D8H         PUBLIC        CCON
  D:0098H         PUBLIC        SCON
  D:0088H         PUBLIC        TCON
  C:7167H         PUBLIC        open_Board_LED
  B:00C8H.5       PUBLIC        P55
  D:00F0H         PUBLIC        B
  D:00E0H         PUBLIC        ACC
  C:7180H         PUBLIC        getBoard_LED_State
  C:713DH         PUBLIC        _Board_LED_PWM
  D:00D0H         PUBLIC        PSW
  -------         PROC          BOARD_LED_INIT
  -------         DO            
  X:0333H         SYMBOL        GPIO_InitStructure
  -------         ENDDO         
  C:65C5H         LINE#         5
  C:65C5H         LINE#         6
  C:65C5H         LINE#         8
  C:65CBH         LINE#         9
  C:65D0H         LINE#         10
  C:65DBH         LINE#         11
  C:65DEH         LINE#         12
  C:65E3H         LINE#         13
  C:65E6H         LINE#         14
  C:65EBH         LINE#         15
  C:65ECH         LINE#         16
  -------         ENDPROC       BOARD_LED_INIT
  -------         PROC          OPEN_BOARD_LED
  C:7167H         LINE#         17
  C:7167H         LINE#         18
  C:7167H         LINE#         19
  C:7169H         LINE#         20
  C:716BH         LINE#         21
  -------         ENDPROC       OPEN_BOARD_LED
  -------         PROC          CLOSE_BOARD_LED
  C:716CH         LINE#         22
  C:716CH         LINE#         23
  C:716CH         LINE#         24
  C:716EH         LINE#         25
  C:7170H         LINE#         27
  -------         ENDPROC       CLOSE_BOARD_LED
  -------         PROC          _BLINK
BL51 BANKED LINKER/LOCATER V6.00                                                      08/02/2017  18:22:39  PAGE 37


  X:0333H         SYMBOL        time
  C:6852H         LINE#         28
  C:6857H         LINE#         29
  C:6857H         LINE#         30
  C:6861H         LINE#         31
  C:6861H         LINE#         32
  C:6864H         LINE#         33
  C:6869H         LINE#         34
  C:686CH         LINE#         35
  C:6871H         LINE#         37
  C:6873H         LINE#         38
  -------         ENDPROC       _BLINK
  -------         PROC          GETBOARD_LED_STATE
  C:7180H         LINE#         39
  C:7180H         LINE#         40
  C:7180H         LINE#         41
  C:7182H         LINE#         42
  -------         ENDPROC       GETBOARD_LED_STATE
  -------         PROC          _BOARD_LED_PWM
  X:076FH         SYMBOL        luminance
  C:713DH         LINE#         43
  C:7142H         LINE#         44
  C:7142H         LINE#         45
  C:7142H         LINE#         46
  C:7142H         LINE#         49
  C:7142H         LINE#         51
  -------         ENDPROC       _BOARD_LED_PWM
  -------         ENDMOD        LED

  -------         MODULE        MOTOR
  C:0000H         SYMBOL        _ICE_DUMMY_
  D:0080H         PUBLIC        P0
  D:0090H         PUBLIC        P1
  D:00A0H         PUBLIC        P2
  D:00B0H         PUBLIC        P3
  D:00C0H         PUBLIC        P4
  D:00C8H         PUBLIC        P5
  D:00E8H         PUBLIC        P6
  D:00F8H         PUBLIC        P7
  D:00BAH         PUBLIC        P_SW2
  D:00A8H         PUBLIC        IE
  C:6AD7H         PUBLIC        _open_DC_Motor
  D:00B8H         PUBLIC        IP
  D:00D8H         PUBLIC        CCON
  B:00A0H.2       PUBLIC        P22
  D:0098H         PUBLIC        SCON
  B:00A0H.3       PUBLIC        P23
  D:0088H         PUBLIC        TCON
  C:5667H         PUBLIC        _setDC_MotorSpeed
  D:00F0H         PUBLIC        B
  X:0736H         SYMBOL        g_DC_Motor
  C:6FCEH         PUBLIC        _getDC_MotorState
  D:00E0H         PUBLIC        ACC
  C:5A9BH         PUBLIC        DC_MOTOR_config
  C:6B13H         PUBLIC        _close_DC_Motor
  D:00D0H         PUBLIC        PSW
  -------         PROC          _SETDC_MOTORSPEED
BL51 BANKED LINKER/LOCATER V6.00                                                      08/02/2017  18:22:39  PAGE 38


  X:072CH         SYMBOL        motor
  X:072DH         SYMBOL        speed
  C:5667H         LINE#         36
  C:566CH         LINE#         37
  C:566CH         LINE#         39
  C:5687H         LINE#         40
  C:5687H         LINE#         41
  C:5691H         LINE#         42
  C:5691H         LINE#         43
  C:56ACH         LINE#         44
  C:56ACH         LINE#         46
  C:56B6H         LINE#         47
  C:56B6H         LINE#         50
  C:56D6H         LINE#         51
  C:56F8H         LINE#         52
  -------         ENDPROC       _SETDC_MOTORSPEED
  -------         PROC          _OPEN_DC_MOTOR
  X:0770H         SYMBOL        motor
  C:6AD7H         LINE#         53
  C:6ADCH         LINE#         54
  C:6ADCH         LINE#         55
  C:6AE2H         LINE#         56
  C:6AF4H         LINE#         57
  -------         ENDPROC       _OPEN_DC_MOTOR
  -------         PROC          _CLOSE_DC_MOTOR
  X:0771H         SYMBOL        motor
  C:6B13H         LINE#         58
  C:6B18H         LINE#         59
  C:6B18H         LINE#         60
  C:6B1EH         LINE#         61
  C:6B2FH         LINE#         65
  -------         ENDPROC       _CLOSE_DC_MOTOR
  -------         PROC          _GETDC_MOTORSTATE
  D:0007H         SYMBOL        motor
  C:6FCEH         LINE#         66
  C:6FCEH         LINE#         67
  C:6FCEH         LINE#         68
  C:6FDDH         LINE#         70
  -------         ENDPROC       _GETDC_MOTORSTATE
  -------         PROC          DC_MOTOR_CONFIG
  -------         DO            
  X:061BH         SYMBOL        GPIO_InitStructure
  X:061DH         SYMBOL        PWM_InitStructure
  -------         ENDDO         
  C:5A9BH         LINE#         78
  C:5A9BH         LINE#         79
  C:5A9BH         LINE#         83
  C:5AA0H         LINE#         86
  C:5AA4H         LINE#         87
  C:5AAFH         LINE#         91
  C:5AB5H         LINE#         92
  C:5AC0H         LINE#         93
  C:5AC2H         LINE#         94
  C:5AC4H         LINE#         97
  C:5AC7H         LINE#         98
  C:5ACCH         LINE#         99
  C:5ACEH         LINE#         100
BL51 BANKED LINKER/LOCATER V6.00                                                      08/02/2017  18:22:39  PAGE 39


  C:5AD0H         LINE#         101
  C:5AD3H         LINE#         102
  C:5AD6H         LINE#         103
  C:5AD8H         LINE#         104
  C:5ADAH         LINE#         105
  C:5ADCH         LINE#         106
  C:5ADEH         LINE#         107
  C:5AE0H         LINE#         108
  C:5AE2H         LINE#         109
  C:5AE4H         LINE#         110
  C:5AE6H         LINE#         111
  C:5AE8H         LINE#         112
  C:5AEAH         LINE#         113
  C:5AECH         LINE#         114
  C:5AF7H         LINE#         115
  C:5B02H         LINE#         117
  C:5B05H         LINE#         120
  -------         ENDPROC       DC_MOTOR_CONFIG
  -------         ENDMOD        MOTOR

  -------         MODULE        SERVO
  C:0000H         SYMBOL        _ICE_DUMMY_
  D:0080H         PUBLIC        P0
  D:0090H         PUBLIC        P1
  D:00A0H         PUBLIC        P2
  D:00B0H         PUBLIC        P3
  D:00C0H         PUBLIC        P4
  D:00C8H         PUBLIC        P5
  D:00E8H         PUBLIC        P6
  D:00F8H         PUBLIC        P7
  D:00BAH         PUBLIC        P_SW2
  D:00A8H         PUBLIC        IE
  C:69DDH         PUBLIC        _open_STR
  C:4AF8H         PUBLIC        _set_STR_angle
  D:00B8H         PUBLIC        IP
  D:00D8H         PUBLIC        CCON
  C:3B8AH         PUBLIC        _Init_Str_Motor
  D:0098H         PUBLIC        SCON
  D:0088H         PUBLIC        TCON
  B:00B0H.7       PUBLIC        P37
  D:00F0H         PUBLIC        B
  D:00E0H         PUBLIC        ACC
  C:6D18H         PUBLIC        _read_STR_angle
  X:045BH         SYMBOL        str_motor
  C:6A1DH         PUBLIC        _close_STR
  D:00D0H         PUBLIC        PSW
  -------         PROC          _INIT_STR_MOTOR
  X:0543H         SYMBOL        MOTOR
  X:0544H         SYMBOL        pl
  X:0548H         SYMBOL        ph
  X:054CH         SYMBOL        ma
  X:0550H         SYMBOL        n
  -------         DO            
  X:0552H         SYMBOL        GPIO_InitStructure
  X:0554H         SYMBOL        PWM_InitStructure
  -------         ENDDO         
  C:3B8AH         LINE#         41
BL51 BANKED LINKER/LOCATER V6.00                                                      08/02/2017  18:22:39  PAGE 40


  C:3B8FH         LINE#         42
  C:3B8FH         LINE#         45
  C:3B94H         LINE#         46
  C:3B98H         LINE#         47
  C:3BA3H         LINE#         52
  C:3BA5H         LINE#         54
  C:3BA8H         LINE#         55
  C:3BADH         LINE#         56
  C:3BAFH         LINE#         57
  C:3BB1H         LINE#         58
  C:3BB4H         LINE#         59
  C:3BB7H         LINE#         60
  C:3BB9H         LINE#         61
  C:3BBBH         LINE#         62
  C:3BBDH         LINE#         63
  C:3BBFH         LINE#         64
  C:3BC1H         LINE#         65
  C:3BC5H         LINE#         66
  C:3BC8H         LINE#         67
  C:3BCAH         LINE#         68
  C:3BCCH         LINE#         69
  C:3BCEH         LINE#         70
  C:3BD0H         LINE#         71
  C:3BDEH         LINE#         73
  C:3BE1H         LINE#         74
  C:3BEBH         LINE#         75
  C:3BF7H         LINE#         76
  C:3C1AH         LINE#         77
  C:3C39H         LINE#         78
  C:3C58H         LINE#         79
  C:3C73H         LINE#         80
  C:3CF5H         LINE#         81
  C:3D48H         LINE#         82
  C:3D5DH         LINE#         83
  -------         ENDPROC       _INIT_STR_MOTOR
  -------         PROC          _SET_STR_ANGLE
  X:06B3H         SYMBOL        MOTOR
  X:06B4H         SYMBOL        angle
  -------         DO            
  X:06B8H         SYMBOL        str_duty
  -------         ENDDO         
  C:4AF8H         LINE#         94
  C:4AFDH         LINE#         95
  C:4AFDH         LINE#         97
  C:4B1EH         LINE#         98
  C:4B9BH         LINE#         108
  C:4B9BH         LINE#         109
  C:4BC4H         LINE#         110
  C:4BE0H         LINE#         111
  C:4BE0H         LINE#         112
  -------         ENDPROC       _SET_STR_ANGLE
  -------         PROC          _READ_STR_ANGLE
  D:0007H         SYMBOL        MOTOR
  C:6D18H         LINE#         123
  C:6D18H         LINE#         124
  C:6D18H         LINE#         125
  C:6D31H         LINE#         126
BL51 BANKED LINKER/LOCATER V6.00                                                      08/02/2017  18:22:39  PAGE 41


  -------         ENDPROC       _READ_STR_ANGLE
  -------         PROC          _OPEN_STR
  X:0772H         SYMBOL        MOTOR
  C:69DDH         LINE#         127
  C:69E2H         LINE#         128
  C:69E2H         LINE#         129
  C:69E5H         LINE#         130
  C:69FBH         LINE#         131
  C:69FCH         LINE#         132
  -------         ENDPROC       _OPEN_STR
  -------         PROC          _CLOSE_STR
  X:0773H         SYMBOL        MOTOR
  C:6A1DH         LINE#         133
  C:6A22H         LINE#         134
  C:6A22H         LINE#         135
  C:6A25H         LINE#         136
  C:6A3AH         LINE#         137
  C:6A3BH         LINE#         138
  -------         ENDPROC       _CLOSE_STR
  -------         ENDMOD        SERVO

  -------         MODULE        STEP_MOTOR
  C:0000H         SYMBOL        _ICE_DUMMY_
  D:0080H         PUBLIC        P0
  D:0090H         PUBLIC        P1
  D:00A0H         PUBLIC        P2
  D:00B0H         PUBLIC        P3
  D:00C0H         PUBLIC        P4
  D:00C8H         PUBLIC        P5
  D:00E8H         PUBLIC        P6
  C:6FEEH         PUBLIC        _setStepMotorState
  D:00F8H         PUBLIC        P7
  C:5B06H         PUBLIC        _setStepMotorWithAngle
  D:00A8H         PUBLIC        IE
  B:00A0H.6       PUBLIC        StepMotor_1_LockControl
  B:00A0H.4       PUBLIC        StepMotor_2_LockControl
  D:00B8H         PUBLIC        IP
  X:0564H         SYMBOL        g_stepMotor
  D:00D8H         PUBLIC        CCON
  C:6B30H         PUBLIC        _close_StepMotor
  C:63A2H         PUBLIC        _setStepMotorWithRound
  C:67C0H         PUBLIC        _setStepMotorWithPulse
  D:0098H         PUBLIC        SCON
  D:0088H         PUBLIC        TCON
  C:6BF7H         PUBLIC        _setStepMotorDiversion
  D:00F0H         PUBLIC        B
  B:00A0H.7       PUBLIC        StepMotor_1_DiversionControl
  B:00A0H.5       PUBLIC        StepMotor_2_DiversionControl
  D:00E0H         PUBLIC        ACC
  C:6E7CH         PUBLIC        _open_StepMotor
  C:536BH         PUBLIC        _stepMotor_Init
  C:4DDEH         PUBLIC        _setStepMotorWithDistance
  C:6B87H         PUBLIC        _freeStepMotor
  C:6BA3H         PUBLIC        _lockStepMotor
  C:6F57H         PUBLIC        _getStepMotorState
  D:00D0H         PUBLIC        PSW
  -------         PROC          _SETSTEPMOTORWITHPULSE
BL51 BANKED LINKER/LOCATER V6.00                                                      08/02/2017  18:22:39  PAGE 42


  D:0007H         SYMBOL        motor
  X:06C5H         SYMBOL        pulse
  X:06C9H         SYMBOL        speed
  C:67C0H         LINE#         30
  C:67C0H         LINE#         31
  C:67C0H         LINE#         32
  C:67E3H         LINE#         33
  C:67E4H         LINE#         34
  -------         ENDPROC       _SETSTEPMOTORWITHPULSE
  -------         PROC          _SETSTEPMOTORWITHDISTANCE
  X:06CBH         SYMBOL        motor
  X:06CCH         SYMBOL        distance
  X:06D0H         SYMBOL        speed
  C:4DDEH         LINE#         45
  C:4DE3H         LINE#         46
  C:4DE3H         LINE#         49
  C:4EA3H         LINE#         51
  C:4EA4H         LINE#         53
  -------         ENDPROC       _SETSTEPMOTORWITHDISTANCE
  -------         PROC          _SETSTEPMOTORWITHANGLE
  X:06D2H         SYMBOL        motor
  X:06D3H         SYMBOL        angle
  X:06D7H         SYMBOL        speed
  C:5B06H         LINE#         64
  C:5B0BH         LINE#         65
  C:5B0BH         LINE#         67
  C:5B69H         LINE#         68
  C:5B6AH         LINE#         69
  -------         ENDPROC       _SETSTEPMOTORWITHANGLE
  -------         PROC          _SETSTEPMOTORWITHROUND
  D:0007H         SYMBOL        motor
  D:0004H         SYMBOL        round
  X:075EH         SYMBOL        speed
  C:63A2H         LINE#         80
  C:63AAH         LINE#         81
  C:63AAH         LINE#         82
  C:63D9H         LINE#         83
  C:63DAH         LINE#         84
  -------         ENDPROC       _SETSTEPMOTORWITHROUND
  -------         PROC          _SETSTEPMOTORSTATE
  D:0007H         SYMBOL        motor
  D:0005H         SYMBOL        state
  C:6FEEH         LINE#         85
  C:6FEEH         LINE#         86
  C:6FEEH         LINE#         87
  C:6FF1H         LINE#         88
  C:6FF1H         LINE#         89
  C:6FF6H         LINE#         90
  C:6FF7H         LINE#         92
  C:6FF7H         LINE#         93
  C:6FFCH         LINE#         94
  C:6FFCH         LINE#         95
  -------         ENDPROC       _SETSTEPMOTORSTATE
  -------         PROC          _GETSTEPMOTORSTATE
  D:0007H         SYMBOL        motor
  C:6F57H         LINE#         104
  C:6F57H         LINE#         105
BL51 BANKED LINKER/LOCATER V6.00                                                      08/02/2017  18:22:39  PAGE 43


  C:6F57H         LINE#         106
  C:6F67H         LINE#         107
  -------         ENDPROC       _GETSTEPMOTORSTATE
  -------         PROC          _SETSTEPMOTORDIVERSION
  D:0007H         SYMBOL        motor
  B:0022H.0       SYMBOL        diversion
  C:6BF7H         LINE#         109
  C:6BF7H         LINE#         110
  C:6BF7H         LINE#         112
  C:6BFAH         LINE#         113
  C:6BFAH         LINE#         114
  C:6BFDH         LINE#         115
  C:6BFDH         LINE#         116
  C:6BFFH         LINE#         117
  C:6C01H         LINE#         119
  C:6C01H         LINE#         120
  C:6C03H         LINE#         121
  C:6C03H         LINE#         122
  C:6C03H         LINE#         123
  C:6C07H         LINE#         124
  C:6C07H         LINE#         125
  C:6C0AH         LINE#         126
  C:6C0AH         LINE#         127
  C:6C0CH         LINE#         128
  C:6C0EH         LINE#         130
  C:6C0EH         LINE#         131
  C:6C10H         LINE#         132
  C:6C10H         LINE#         133
  C:6C10H         LINE#         136
  C:6C11H         LINE#         137
  -------         ENDPROC       _SETSTEPMOTORDIVERSION
  -------         PROC          _CLOSE_STEPMOTOR
  X:0774H         SYMBOL        motor
  C:6B30H         LINE#         146
  C:6B35H         LINE#         147
  C:6B35H         LINE#         148
  C:6B38H         LINE#         149
  C:6B4CH         LINE#         151
  -------         ENDPROC       _CLOSE_STEPMOTOR
  -------         PROC          _OPEN_STEPMOTOR
  D:0007H         SYMBOL        motor
  C:6E7CH         LINE#         160
  C:6E7CH         LINE#         161
  C:6E7CH         LINE#         162
  C:6E8CH         LINE#         163
  -------         ENDPROC       _OPEN_STEPMOTOR
  -------         PROC          _FREESTEPMOTOR
  D:0007H         SYMBOL        motor
  C:6B87H         LINE#         173
  C:6B87H         LINE#         174
  C:6B87H         LINE#         175
  C:6B8AH         LINE#         176
  C:6B8AH         LINE#         177
  C:6B8CH         LINE#         178
  C:6B8EH         LINE#         180
  C:6B8EH         LINE#         181
  C:6B90H         LINE#         182
BL51 BANKED LINKER/LOCATER V6.00                                                      08/02/2017  18:22:39  PAGE 44


  C:6B90H         LINE#         183
  C:6BA1H         LINE#         184
  C:6BA2H         LINE#         185
  -------         ENDPROC       _FREESTEPMOTOR
  -------         PROC          _LOCKSTEPMOTOR
  D:0007H         SYMBOL        motor
  C:6BA3H         LINE#         194
  C:6BA3H         LINE#         195
  C:6BA3H         LINE#         196
  C:6BA6H         LINE#         197
  C:6BA6H         LINE#         198
  C:6BA8H         LINE#         199
  C:6BAAH         LINE#         201
  C:6BAAH         LINE#         202
  C:6BACH         LINE#         203
  C:6BACH         LINE#         204
  C:6BBDH         LINE#         206
  C:6BBEH         LINE#         207
  -------         ENDPROC       _LOCKSTEPMOTOR
  -------         PROC          _STEPMOTOR_INIT
  X:068DH         SYMBOL        motor
  X:068EH         SYMBOL        div
  X:0692H         SYMBOL        driverDiv
  X:0693H         SYMBOL        maxPeriod
  X:0695H         SYMBOL        bearingDia
  -------         DO            
  X:0699H         SYMBOL        GPIO_InitStructure
  -------         ENDDO         
  C:536BH         LINE#         219
  C:5370H         LINE#         220
  C:5370H         LINE#         226
  C:5375H         LINE#         227
  C:5379H         LINE#         228
  C:5384H         LINE#         229
  C:53A7H         LINE#         230
  C:53BCH         LINE#         231
  C:53D7H         LINE#         232
  C:53F6H         LINE#         233
  C:5407H         LINE#         234
  -------         ENDPROC       _STEPMOTOR_INIT
  -------         ENDMOD        STEP_MOTOR

  -------         MODULE        ANGLE
  C:0000H         SYMBOL        _ICE_DUMMY_
  D:0080H         PUBLIC        P0
  D:0090H         PUBLIC        P1
  D:00A0H         PUBLIC        P2
  D:00B0H         PUBLIC        P3
  D:00C0H         PUBLIC        P4
  D:00C8H         PUBLIC        P5
  D:00E8H         PUBLIC        P6
  D:00F8H         PUBLIC        P7
  D:00A8H         PUBLIC        IE
  D:00B8H         PUBLIC        IP
  C:6BBFH         PUBLIC        _ADC_config
  D:00D8H         PUBLIC        CCON
  C:5D96H         PUBLIC        getAngle
BL51 BANKED LINKER/LOCATER V6.00                                                      08/02/2017  18:22:39  PAGE 45


  D:0098H         PUBLIC        SCON
  D:0088H         PUBLIC        TCON
  D:00F0H         PUBLIC        B
  D:00E0H         PUBLIC        ACC
  D:00D0H         PUBLIC        PSW
  -------         PROC          _ADC_CONFIG
  D:0007H         SYMBOL        pin
  D:0005H         SYMBOL        speed
  -------         DO            
  X:06E7H         SYMBOL        ADC_InitStructure
  -------         ENDDO         
  C:6BBFH         LINE#         26
  C:6BBFH         LINE#         27
  C:6BBFH         LINE#         29
  C:6BC4H         LINE#         30
  C:6BC7H         LINE#         31
  C:6BCBH         LINE#         32
  C:6BCEH         LINE#         33
  C:6BD0H         LINE#         34
  C:6BD2H         LINE#         35
  -------         ENDPROC       _ADC_CONFIG
  -------         PROC          GETANGLE
  B:0022H.1       SYMBOL        whichAngle
  -------         DO            
  X:05DEH         SYMBOL        angleData
  X:05F2H         SYMBOL        angleDataloopTemp1
  X:06BCH         SYMBOL        presentAngle
  X:06C0H         SYMBOL        lastAngle
  -------         ENDDO         
  C:5D96H         LINE#         52
  C:5D96H         LINE#         53
  C:5D96H         LINE#         55
  C:5D9BH         LINE#         57
  C:5D9EH         LINE#         58
  C:5D9EH         LINE#         60
  C:5D9FH         LINE#         61
  C:5D9FH         LINE#         62
  C:5DB8H         LINE#         63
  C:5DC4H         LINE#         66
  C:5DD6H         LINE#         67
  C:5DDBH         LINE#         68
  C:5DDBH         LINE#         70
  C:5DDBH         LINE#         71
  C:5DE9H         LINE#         72
  C:5DE9H         LINE#         73
  -------         ENDPROC       GETANGLE
  -------         ENDMOD        ANGLE

  -------         MODULE        74HC595
  C:0000H         SYMBOL        _ICE_DUMMY_
  D:0080H         PUBLIC        P0
  D:0090H         PUBLIC        P1
  D:00A0H         PUBLIC        P2
  D:00B0H         PUBLIC        P3
  D:00C0H         PUBLIC        P4
  D:00C8H         PUBLIC        P5
  D:00E8H         PUBLIC        P6
BL51 BANKED LINKER/LOCATER V6.00                                                      08/02/2017  18:22:39  PAGE 46


  D:00F8H         PUBLIC        P7
  D:00A8H         PUBLIC        IE
  D:00B8H         PUBLIC        IP
  D:00D8H         PUBLIC        CCON
  C:6DCDH         PUBLIC        _HC595_Init
  D:0098H         PUBLIC        SCON
  D:0088H         PUBLIC        TCON
  C:6F68H         PUBLIC        _HC595SendData
  D:00F0H         PUBLIC        B
  D:00E0H         PUBLIC        ACC
  D:00D0H         PUBLIC        PSW
  -------         PROC          _HC595_INIT
  D:0006H         SYMBOL        pin1
  X:073AH         SYMBOL        pin2
  -------         DO            
  X:073CH         SYMBOL        HC595_Pin
  -------         ENDDO         
  C:6DCDH         LINE#         15
  C:6DD5H         LINE#         16
  C:6DD5H         LINE#         18
  C:6DD8H         LINE#         19
  C:6DDBH         LINE#         20
  -------         ENDPROC       _HC595_INIT
  -------         PROC          _HC595SENDDATA
  X:0775H         SYMBOL        SendVal
  -------         DO            
  D:0007H         SYMBOL        i
  -------         ENDDO         
  C:6F68H         LINE#         23
  C:6F6DH         LINE#         24
  C:6F6DH         LINE#         26
  C:6F6FH         LINE#         27
  C:6F6FH         LINE#         28
  C:6F6FH         LINE#         29
  C:6F6FH         LINE#         31
  C:6F6FH         LINE#         33
  C:6F6FH         LINE#         35
  C:6F6FH         LINE#         37
  C:6F71H         LINE#         39
  C:6F76H         LINE#         41
  C:6F78H         LINE#         43
  -------         ENDPROC       _HC595SENDDATA
  -------         ENDMOD        74HC595

  -------         MODULE        FIXEDPULSER
  C:0000H         SYMBOL        _ICE_DUMMY_
  D:0080H         PUBLIC        P0
  D:0090H         PUBLIC        P1
  D:00A0H         PUBLIC        P2
  D:00B0H         PUBLIC        P3
  X:0598H         SYMBOL        pulser1Tmp
  D:00C0H         PUBLIC        P4
  X:059AH         SYMBOL        pulser2Tmp
  D:00C8H         PUBLIC        P5
  D:00E8H         PUBLIC        P6
  D:00F8H         PUBLIC        P7
  D:00A8H         PUBLIC        IE
BL51 BANKED LINKER/LOCATER V6.00                                                      08/02/2017  18:22:39  PAGE 47


  X:059CH         SYMBOL        count1Tmp
  X:059EH         SYMBOL        count2Tmp
  C:656FH         PUBLIC        PulserInit
  C:6B4DH         PUBLIC        _closePulser
  D:00B8H         PUBLIC        IP
  D:00D8H         PUBLIC        CCON
  B:0021H.5       SYMBOL        timer2UseBit
  B:0021H.6       SYMBOL        timer3UseBit
  C:6AF5H         PUBLIC        _openPulser
  D:0098H         PUBLIC        SCON
  D:0088H         PUBLIC        TCON
  C:59A5H         SYMBOL        Pulser_1Int
  C:5A20H         SYMBOL        Pulser_2Int
  D:00F0H         PUBLIC        B
  D:008EH         PUBLIC        AUXR
  C:6EECH         PUBLIC        _getPulserState
  D:00E0H         PUBLIC        ACC
  D:00D6H         PUBLIC        TH2
  D:00D4H         PUBLIC        TH3
  X:05A0H         SYMBOL        tmp
  D:00D7H         PUBLIC        TL2
  D:00D5H         PUBLIC        TL3
  C:4C0EH         PUBLIC        _setPulse
  D:00D1H         PUBLIC        T4T3M
  X:05A2H         SYMBOL        g_pulser
  D:008FH         PUBLIC        INT_CLKO
  D:00D0H         PUBLIC        PSW
  -------         PROC          _SETPULSE
  D:0003H         SYMBOL        pulser_num
  X:06A9H         SYMBOL        Hz
  X:06ABH         SYMBOL        count
  -------         DO            
  X:06AFH         SYMBOL        timerTmp
  X:06B1H         SYMBOL        TIM_Value
  -------         ENDDO         
  C:4C0EH         LINE#         37
  C:4C18H         LINE#         38
  C:4C18H         LINE#         39
  C:4C1FH         LINE#         41
  C:4C3AH         LINE#         42
  C:4C59H         LINE#         43
  C:4C5CH         LINE#         44
  C:4C5CH         LINE#         45
  C:4C6CH         LINE#         46
  C:4C6CH         LINE#         49
  C:4C93H         LINE#         50
  C:4C95H         LINE#         51
  C:4C98H         LINE#         52
  C:4CA3H         LINE#         53
  C:4CA5H         LINE#         55
  C:4CA7H         LINE#         57
  C:4CA7H         LINE#         58
  C:4CA9H         LINE#         60
  C:4CA9H         LINE#         61
  C:4CABH         LINE#         63
  C:4CABH         LINE#         64
  C:4CBBH         LINE#         65
BL51 BANKED LINKER/LOCATER V6.00                                                      08/02/2017  18:22:39  PAGE 48


  C:4CBBH         LINE#         66
  C:4CE2H         LINE#         67
  C:4CE4H         LINE#         68
  C:4CE7H         LINE#         69
  C:4CF2H         LINE#         70
  C:4CF4H         LINE#         72
  C:4CF6H         LINE#         74
  C:4CF6H         LINE#         75
  C:4CF8H         LINE#         76
  C:4CF8H         LINE#         77
  C:4CF8H         LINE#         79
  C:4CF9H         LINE#         80
  -------         ENDPROC       _SETPULSE
  -------         PROC          _OPENPULSER
  D:0007H         SYMBOL        pulser_num
  C:6AF5H         LINE#         81
  C:6AF5H         LINE#         82
  C:6AF5H         LINE#         83
  C:6B06H         LINE#         85
  C:6B09H         LINE#         86
  C:6B09H         LINE#         87
  C:6B0CH         LINE#         90
  C:6B0EH         LINE#         92
  C:6B0EH         LINE#         93
  C:6B11H         LINE#         94
  C:6B11H         LINE#         96
  C:6B12H         LINE#         97
  -------         ENDPROC       _OPENPULSER
  -------         PROC          _CLOSEPULSER
  D:0007H         SYMBOL        pulser_num
  C:6B4DH         LINE#         98
  C:6B4DH         LINE#         99
  C:6B4DH         LINE#         100
  C:6B50H         LINE#         101
  C:6B50H         LINE#         102
  C:6B53H         LINE#         105
  C:6B55H         LINE#         107
  C:6B55H         LINE#         108
  C:6B58H         LINE#         110
  C:6B58H         LINE#         111
  C:6B68H         LINE#         112
  C:6B69H         LINE#         114
  -------         ENDPROC       _CLOSEPULSER
  -------         PROC          _GETPULSERSTATE
  D:0007H         SYMBOL        pulser_num
  C:6EECH         LINE#         115
  C:6EECH         LINE#         116
  C:6EECH         LINE#         118
  C:6EFDH         LINE#         120
  -------         ENDPROC       _GETPULSERSTATE
  -------         PROC          PULSERINIT
  -------         DO            
  X:0760H         SYMBOL        GPIO_InitStructure
  -------         ENDDO         
  C:656FH         LINE#         121
  C:656FH         LINE#         122
  C:656FH         LINE#         126
BL51 BANKED LINKER/LOCATER V6.00                                                      08/02/2017  18:22:39  PAGE 49


  C:6574H         LINE#         127
  C:6577H         LINE#         128
  C:6581H         LINE#         129
  C:6587H         LINE#         130
  C:6592H         LINE#         131
  C:6597H         LINE#         132
  C:659BH         LINE#         136
  -------         ENDPROC       PULSERINIT
  -------         PROC          PULSER_1INT
  C:59A5H         LINE#         178
  C:59C2H         LINE#         180
  C:59F9H         LINE#         181
  C:59F9H         LINE#         182
  C:59FEH         LINE#         183
  C:5A05H         LINE#         184
  C:5A05H         LINE#         186
  -------         ENDPROC       PULSER_1INT
  -------         PROC          PULSER_2INT
  C:5A20H         LINE#         190
  C:5A3DH         LINE#         192
  C:5A74H         LINE#         193
  C:5A74H         LINE#         194
  C:5A79H         LINE#         195
  C:5A80H         LINE#         196
  C:5A80H         LINE#         198
  -------         ENDPROC       PULSER_2INT
  -------         ENDMOD        FIXEDPULSER

  -------         MODULE        MT_1_L298N
  C:0000H         SYMBOL        _ICE_DUMMY_
  D:0080H         PUBLIC        P0
  D:0090H         PUBLIC        P1
  D:00A0H         PUBLIC        P2
  D:00B0H         PUBLIC        P3
  D:00C0H         PUBLIC        P4
  D:00C8H         PUBLIC        P5
  D:00E8H         PUBLIC        P6
  D:00F8H         PUBLIC        P7
  D:00A8H         PUBLIC        IE
  C:70E4H         PUBLIC        setCarStop
  C:70FFH         PUBLIC        setCarRightTurn
  D:00B8H         PUBLIC        IP
  C:711AH         PUBLIC        setCarLeftTurn
  D:00D8H         PUBLIC        CCON
  D:0098H         PUBLIC        SCON
  D:0088H         PUBLIC        TCON
  C:70D2H         PUBLIC        setCarForward
  D:00F0H         PUBLIC        B
  C:70EDH         PUBLIC        setCarRightForward
  D:00E0H         PUBLIC        ACC
  B:0080H.0       PUBLIC        IN1
  B:0080H.1       PUBLIC        IN2
  B:0080H.2       PUBLIC        IN3
  B:0080H.3       PUBLIC        IN4
  C:7108H         PUBLIC        setCarLeftForward
  C:70DBH         PUBLIC        setCarBack
  C:70F6H         PUBLIC        setCarRightBack
BL51 BANKED LINKER/LOCATER V6.00                                                      08/02/2017  18:22:39  PAGE 50


  C:7111H         PUBLIC        setCarLeftBack
  D:00D0H         PUBLIC        PSW
  -------         PROC          SETCARFORWARD
  C:70D2H         LINE#         13
  C:70D2H         LINE#         14
  C:70D2H         LINE#         15
  C:70D4H         LINE#         16
  C:70D6H         LINE#         17
  C:70D8H         LINE#         18
  C:70DAH         LINE#         19
  -------         ENDPROC       SETCARFORWARD
  -------         PROC          SETCARBACK
  C:70DBH         LINE#         21
  C:70DBH         LINE#         22
  C:70DBH         LINE#         23
  C:70DDH         LINE#         24
  C:70DFH         LINE#         25
  C:70E1H         LINE#         26
  C:70E3H         LINE#         27
  -------         ENDPROC       SETCARBACK
  -------         PROC          SETCARSTOP
  C:70E4H         LINE#         29
  C:70E4H         LINE#         30
  C:70E4H         LINE#         31
  C:70E6H         LINE#         32
  C:70ECH         LINE#         35
  -------         ENDPROC       SETCARSTOP
  -------         PROC          SETCARRIGHTFORWARD
  C:70EDH         LINE#         37
  C:70EDH         LINE#         38
  C:70EDH         LINE#         39
  C:70EFH         LINE#         40
  C:70F1H         LINE#         41
  C:70F3H         LINE#         42
  C:70F5H         LINE#         43
  -------         ENDPROC       SETCARRIGHTFORWARD
  -------         PROC          SETCARRIGHTBACK
  C:70F6H         LINE#         45
  C:70F6H         LINE#         46
  C:70F6H         LINE#         47
  C:70F8H         LINE#         48
  C:70FAH         LINE#         49
  C:70FCH         LINE#         50
  C:70FEH         LINE#         51
  -------         ENDPROC       SETCARRIGHTBACK
  -------         PROC          SETCARRIGHTTURN
  C:70FFH         LINE#         53
  C:70FFH         LINE#         54
  C:70FFH         LINE#         55
  C:7101H         LINE#         56
  C:7103H         LINE#         57
  C:7105H         LINE#         58
  C:7107H         LINE#         59
  -------         ENDPROC       SETCARRIGHTTURN
  -------         PROC          SETCARLEFTFORWARD
  C:7108H         LINE#         61
  C:7108H         LINE#         62
BL51 BANKED LINKER/LOCATER V6.00                                                      08/02/2017  18:22:39  PAGE 51


  C:7108H         LINE#         63
  C:710AH         LINE#         64
  C:710CH         LINE#         65
  C:710EH         LINE#         66
  C:7110H         LINE#         67
  -------         ENDPROC       SETCARLEFTFORWARD
  -------         PROC          SETCARLEFTBACK
  C:7111H         LINE#         69
  C:7111H         LINE#         70
  C:7111H         LINE#         71
  C:7113H         LINE#         72
  C:7115H         LINE#         73
  C:7117H         LINE#         74
  C:7119H         LINE#         75
  -------         ENDPROC       SETCARLEFTBACK
  -------         PROC          SETCARLEFTTURN
  C:711AH         LINE#         77
  C:711AH         LINE#         78
  C:711AH         LINE#         79
  C:711CH         LINE#         80
  C:711EH         LINE#         81
  C:7120H         LINE#         82
  C:7122H         LINE#         83
  -------         ENDPROC       SETCARLEFTTURN
  -------         ENDMOD        MT_1_L298N

  -------         MODULE        MPU6050
  C:0000H         SYMBOL        _ICE_DUMMY_
  -------         ENDMOD        MPU6050

  -------         MODULE        MPU9250
  C:0000H         SYMBOL        _ICE_DUMMY_
  D:0080H         PUBLIC        P0
  D:0090H         PUBLIC        P1
  D:00A0H         PUBLIC        P2
  D:00B0H         PUBLIC        P3
  D:00C0H         PUBLIC        P4
  C:6368H         SYMBOL        _i2c_Mag_write
  D:00C8H         PUBLIC        P5
  D:00E8H         PUBLIC        P6
  D:00F8H         PUBLIC        P7
  D:00A8H         PUBLIC        IE
  D:00B8H         PUBLIC        IP
  C:7143H         SYMBOL        _SPI1_ReadWriteByte
  C:7060H         PUBLIC        _MPU9250_Read_Reg
  D:00D8H         PUBLIC        CCON
  C:6C12H         PUBLIC        _MPU9250_Write_Reg
  D:0098H         PUBLIC        SCON
  D:0088H         PUBLIC        TCON
  C:5CE6H         PUBLIC        Init_MPU9250
  D:00F0H         PUBLIC        B
  C:718BH         PUBLIC        spi_Init
  D:00E0H         PUBLIC        ACC
  X:05B0H         PUBLIC        mpu_value
  X:05C2H         PUBLIC        BUF
  C:4EA5H         PUBLIC        READ_MPU9250_GYRO
  C:6243H         SYMBOL        _i2c_Mag_read
BL51 BANKED LINKER/LOCATER V6.00                                                      08/02/2017  18:22:39  PAGE 52


  C:48A0H         PUBLIC        READ_MPU9250_MAG
  D:00D0H         PUBLIC        PSW
  C:540AH         PUBLIC        READ_MPU9250_ACCEL
  -------         PROC          SPI_INIT
  C:718BH         LINE#         9
  C:718BH         LINE#         10
  C:718BH         LINE#         12
  -------         ENDPROC       SPI_INIT
  -------         PROC          _MPU9250_WRITE_REG
  D:0007H         SYMBOL        reg
  X:0762H         SYMBOL        value
  -------         DO            
  X:0763H         SYMBOL        status
  -------         ENDDO         
  C:6C12H         LINE#         19
  C:6C17H         LINE#         20
  C:6C17H         LINE#         23
  C:6C1FH         LINE#         24
  C:6C27H         LINE#         26
  C:6C2CH         LINE#         27
  -------         ENDPROC       _MPU9250_WRITE_REG
  -------         PROC          _MPU9250_READ_REG
  D:0007H         SYMBOL        reg
  -------         DO            
  D:0007H         SYMBOL        reg_val
  -------         ENDDO         
  C:7060H         LINE#         31
  C:7060H         LINE#         32
  C:7060H         LINE#         35
  C:7067H         LINE#         36
  C:706CH         LINE#         38
  C:706CH         LINE#         39
  -------         ENDPROC       _MPU9250_READ_REG
  -------         PROC          INIT_MPU9250
  C:5CE6H         LINE#         41
  C:5CE6H         LINE#         42
  C:5CE6H         LINE#         43
  C:5CEDH         LINE#         44
  C:5CF4H         LINE#         48
  C:5CFBH         LINE#         49
  C:5D02H         LINE#         50
  C:5D09H         LINE#         51
  C:5D10H         LINE#         52
  C:5D17H         LINE#         55
  C:5D1EH         LINE#         56
  C:5D25H         LINE#         57
  C:5D2CH         LINE#         58
  C:5D33H         LINE#         61
  C:5D3AH         LINE#         62
  -------         ENDPROC       INIT_MPU9250
  -------         PROC          READ_MPU9250_ACCEL
  C:540AH         LINE#         66
  C:540AH         LINE#         67
  C:540AH         LINE#         69
  C:5414H         LINE#         70
  C:541EH         LINE#         71
  C:542EH         LINE#         72
BL51 BANKED LINKER/LOCATER V6.00                                                      08/02/2017  18:22:39  PAGE 53


  C:543DH         LINE#         73
  C:5447H         LINE#         74
  C:5451H         LINE#         75
  C:5461H         LINE#         76
  C:5470H         LINE#         77
  C:547AH         LINE#         78
  C:5484H         LINE#         79
  C:5494H         LINE#         80
  C:54A3H         LINE#         81
  -------         ENDPROC       READ_MPU9250_ACCEL
  -------         PROC          READ_MPU9250_GYRO
  C:4EA5H         LINE#         83
  C:4EA5H         LINE#         84
  C:4EA5H         LINE#         86
  C:4EAFH         LINE#         87
  C:4EB9H         LINE#         88
  C:4EC9H         LINE#         89
  C:4EE5H         LINE#         91
  C:4EEFH         LINE#         92
  C:4EF9H         LINE#         93
  C:4F09H         LINE#         94
  C:4F25H         LINE#         95
  C:4F2FH         LINE#         96
  C:4F39H         LINE#         97
  C:4F49H         LINE#         98
  C:4F65H         LINE#         99
  -------         ENDPROC       READ_MPU9250_GYRO
  -------         PROC          READ_MPU9250_MAG
  -------         DO            
  X:074FH         SYMBOL        x_axis
  X:0750H         SYMBOL        y_axis
  X:0751H         SYMBOL        z_axis
  -------         ENDDO         
  C:48A0H         LINE#         108
  C:48A0H         LINE#         109
  C:48A0H         LINE#         112
  C:48AAH         LINE#         113
  C:48B4H         LINE#         114
  C:48BEH         LINE#         116
  C:48CAH         LINE#         117
  C:48CAH         LINE#         119
  C:48D2H         LINE#         120
  C:48DCH         LINE#         121
  C:48DCH         LINE#         122
  C:48E6H         LINE#         123
  C:48E6H         LINE#         124
  C:48EEH         LINE#         125
  C:48F8H         LINE#         126
  C:48F8H         LINE#         127
  C:4902H         LINE#         128
  C:4902H         LINE#         129
  C:4920H         LINE#         132
  C:4928H         LINE#         133
  C:4932H         LINE#         134
  C:4932H         LINE#         135
  C:493CH         LINE#         136
  C:493CH         LINE#         137
BL51 BANKED LINKER/LOCATER V6.00                                                      08/02/2017  18:22:39  PAGE 54


  C:4944H         LINE#         138
  C:494EH         LINE#         139
  C:494EH         LINE#         140
  C:4958H         LINE#         141
  C:4958H         LINE#         142
  C:4976H         LINE#         145
  C:497EH         LINE#         146
  C:4988H         LINE#         147
  C:4988H         LINE#         148
  C:4992H         LINE#         149
  C:4992H         LINE#         150
  C:499AH         LINE#         151
  C:49A4H         LINE#         152
  C:49A4H         LINE#         153
  C:49AEH         LINE#         154
  C:49AEH         LINE#         155
  C:49CCH         LINE#         156
  C:49CCH         LINE#         157
  -------         ENDPROC       READ_MPU9250_MAG
  -------         PROC          _SPI1_READWRITEBYTE
  X:0776H         SYMBOL        TxData
  C:7143H         LINE#         167
  C:7148H         LINE#         168
  C:7148H         LINE#         184
  -------         ENDPROC       _SPI1_READWRITEBYTE
  C:623FH         SYMBOL        L?0023
  -------         PROC          L?0022
  -------         ENDPROC       L?0022
  C:623FH         SYMBOL        L?0023
  -------         PROC          _I2C_MAG_READ
  X:0752H         SYMBOL        reg
  -------         DO            
  X:0753H         SYMBOL        j
  -------         ENDDO         
  C:6243H         LINE#         191
  C:6248H         LINE#         192
  C:6248H         LINE#         193
  C:6250H         LINE#         194
  C:6257H         LINE#         195
  C:6261H         LINE#         196
  C:6268H         LINE#         197
  C:6276H         LINE#         198
  C:627BH         LINE#         199
  -------         ENDPROC       _I2C_MAG_READ
  -------         PROC          _I2C_MAG_WRITE
  X:073EH         SYMBOL        reg
  X:073FH         SYMBOL        value
  -------         DO            
  X:0740H         SYMBOL        j
  -------         ENDDO         
  C:6368H         LINE#         207
  C:6370H         LINE#         208
  C:6370H         LINE#         209
  C:6378H         LINE#         210
  C:637FH         LINE#         211
  C:6389H         LINE#         212
  C:6393H         LINE#         213
BL51 BANKED LINKER/LOCATER V6.00                                                      08/02/2017  18:22:39  PAGE 55


  C:63A1H         LINE#         214
  -------         ENDPROC       _I2C_MAG_WRITE
  -------         ENDMOD        MPU9250

  -------         MODULE        MPU9250_SBUF
  C:0000H         SYMBOL        _ICE_DUMMY_
  D:0080H         PUBLIC        P0
  D:0090H         PUBLIC        P1
  D:00A0H         PUBLIC        P2
  D:00B0H         PUBLIC        P3
  D:00C0H         PUBLIC        P4
  D:00C8H         PUBLIC        P5
  D:00E8H         PUBLIC        P6
  D:00F8H         PUBLIC        P7
  C:6EFEH         PUBLIC        _EnableJY901
  D:00A8H         PUBLIC        IE
  C:6F10H         PUBLIC        _openJY901SbufMode
  D:00B8H         PUBLIC        IP
  C:5F25H         PUBLIC        _getJY901Palstance
  D:00D8H         PUBLIC        CCON
  C:63DBH         PUBLIC        _getJY901Magnetic
  D:0098H         PUBLIC        SCON
  D:0088H         PUBLIC        TCON
  D:00F0H         PUBLIC        B
  X:029DH         SYMBOL        MPU9250
  D:00E0H         PUBLIC        ACC
  C:5EDBH         PUBLIC        _getJY901Acceleration
  C:62F3H         PUBLIC        _InitJY901
  C:55D4H         PUBLIC        _CharToLong
  C:1821H         PUBLIC        _CopeSerialData
  C:64AFH         PUBLIC        _getJY901Angle
  C:6F8AH         PUBLIC        _closeJY901SbufMode
  C:6F79H         PUBLIC        _DisableJY901
  D:00D0H         PUBLIC        PSW
  -------         PROC          _INITJY901
  D:0007H         SYMBOL        JY901_N
  C:62F3H         LINE#         103
  C:62F3H         LINE#         104
  C:62F3H         LINE#         105
  C:6303H         LINE#         106
  C:6313H         LINE#         107
  C:6323H         LINE#         108
  -------         ENDPROC       _INITJY901
  -------         PROC          _ENABLEJY901
  D:0007H         SYMBOL        JY901_N
  C:6EFEH         LINE#         120
  C:6EFEH         LINE#         121
  C:6EFEH         LINE#         122
  C:6F0FH         LINE#         123
  -------         ENDPROC       _ENABLEJY901
  -------         PROC          _DISABLEJY901
  D:0007H         SYMBOL        JY901_N
  C:6F79H         LINE#         133
  C:6F79H         LINE#         134
  C:6F79H         LINE#         135
  C:6F89H         LINE#         136
  -------         ENDPROC       _DISABLEJY901
BL51 BANKED LINKER/LOCATER V6.00                                                      08/02/2017  18:22:39  PAGE 56


  -------         PROC          _OPENJY901SBUFMODE
  D:0007H         SYMBOL        JY901_N
  C:6F10H         LINE#         146
  C:6F10H         LINE#         147
  C:6F10H         LINE#         148
  C:6F21H         LINE#         149
  -------         ENDPROC       _OPENJY901SBUFMODE
  -------         PROC          _CLOSEJY901SBUFMODE
  D:0007H         SYMBOL        JY901_N
  C:6F8AH         LINE#         159
  C:6F8AH         LINE#         160
  C:6F8AH         LINE#         161
  C:6F9AH         LINE#         162
  -------         ENDPROC       _CLOSEJY901SBUFMODE
  -------         PROC          _GETJY901ACCELERATION
  D:0007H         SYMBOL        JY901_N
  D:0005H         SYMBOL        axis
  C:5EDBH         LINE#         173
  C:5EDBH         LINE#         174
  C:5EDBH         LINE#         175
  C:5EEEH         LINE#         176
  C:5EEEH         LINE#         177
  C:5F1FH         LINE#         178
  C:5F1FH         LINE#         179
  C:5F24H         LINE#         180
  -------         ENDPROC       _GETJY901ACCELERATION
  -------         PROC          _GETJY901PALSTANCE
  D:0007H         SYMBOL        JY901_N
  D:0005H         SYMBOL        axis
  C:5F25H         LINE#         191
  C:5F25H         LINE#         192
  C:5F25H         LINE#         193
  C:5F38H         LINE#         194
  C:5F38H         LINE#         195
  C:5F69H         LINE#         196
  C:5F69H         LINE#         197
  C:5F6EH         LINE#         198
  -------         ENDPROC       _GETJY901PALSTANCE
  -------         PROC          _GETJY901ANGLE
  D:0007H         SYMBOL        JY901_N
  D:0005H         SYMBOL        axis
  C:64AFH         LINE#         209
  C:64AFH         LINE#         210
  C:64AFH         LINE#         212
  C:64AFH         LINE#         213
  C:64E0H         LINE#         214
  C:64E0H         LINE#         216
  -------         ENDPROC       _GETJY901ANGLE
  -------         PROC          _GETJY901MAGNETIC
  D:0007H         SYMBOL        JY901_N
  D:0005H         SYMBOL        axis
  C:63DBH         LINE#         227
  C:63DBH         LINE#         228
  C:63DBH         LINE#         229
  C:63EDH         LINE#         230
  C:63EDH         LINE#         231
  C:640BH         LINE#         232
BL51 BANKED LINKER/LOCATER V6.00                                                      08/02/2017  18:22:39  PAGE 57


  C:640BH         LINE#         233
  C:6410H         LINE#         234
  -------         ENDPROC       _GETJY901MAGNETIC
  -------         PROC          _CHARTOLONG
  X:0361H         SYMBOL        Dest
  X:0364H         SYMBOL        Source
  C:55D4H         LINE#         237
  C:55DFH         LINE#         238
  C:55DFH         LINE#         239
  C:55FEH         LINE#         240
  C:5622H         LINE#         241
  C:5646H         LINE#         242
  -------         ENDPROC       _CHARTOLONG
  -------         PROC          _COPESERIALDATA
  X:0333H         SYMBOL        JY901_N
  -------         DO            
  X:0334H         SYMBOL        str_0
  X:0343H         SYMBOL        str_1
  X:0352H         SYMBOL        str_2
  X:0290H         SYMBOL        ucRxBuffer
  X:029CH         SYMBOL        ucRxCnt
  -------         ENDDO         
  C:1821H         LINE#         245
  C:1826H         LINE#         246
  C:1826H         LINE#         250
  C:1839H         LINE#         251
  C:1839H         LINE#         252
  C:1851H         LINE#         253
  C:1851H         LINE#         254
  C:1861H         LINE#         255
  C:1869H         LINE#         256
  C:1869H         LINE#         257
  C:186EH         LINE#         258
  C:1873H         LINE#         262
  C:1873H         LINE#         264
  C:188FH         LINE#         266
  C:189BH         LINE#         267
  C:189BH         LINE#         271
  C:189BH         LINE#         283
  C:189BH         LINE#         285
  C:18D2H         LINE#         286
  C:18D2H         LINE#         287
  C:18D2H         LINE#         288
  C:18EBH         LINE#         289
  C:1900H         LINE#         290
  C:1915H         LINE#         291
  C:192AH         LINE#         292
  C:193FH         LINE#         293
  C:1954H         LINE#         294
  C:196FH         LINE#         297
  C:1972H         LINE#         298
  C:1972H         LINE#         299
  C:1995H         LINE#         300
  C:19B4H         LINE#         301
  C:19CFH         LINE#         305
  C:19D2H         LINE#         306
  C:19D2H         LINE#         307
BL51 BANKED LINKER/LOCATER V6.00                                                      08/02/2017  18:22:39  PAGE 58


  C:19F5H         LINE#         308
  C:1A14H         LINE#         309
  C:1A2FH         LINE#         312
  C:1A32H         LINE#         313
  C:1A32H         LINE#         314
  C:1A55H         LINE#         315
  C:1A74H         LINE#         316
  C:1A97H         LINE#         317
  C:1AAFH         LINE#         326
  C:1AB2H         LINE#         327
  C:1AB2H         LINE#         328
  C:1AD5H         LINE#         329
  C:1AF4H         LINE#         330
  C:1B17H         LINE#         331
  C:1B2FH         LINE#         334
  C:1B31H         LINE#         335
  C:1B31H         LINE#         336
  C:1B54H         LINE#         337
  C:1B73H         LINE#         338
  C:1B96H         LINE#         339
  C:1BB5H         LINE#         340
  C:1BB8H         LINE#         341
  C:1BB8H         LINE#         342
  C:1BBEH         LINE#         343
  C:1BC2H         LINE#         344
  C:1BC6H         LINE#         345
  C:1BCAH         LINE#         346
  C:1BF0H         LINE#         347
  C:1BFDH         LINE#         348
  C:1C00H         LINE#         349
  C:1C00H         LINE#         350
  C:1C26H         LINE#         351
  C:1C33H         LINE#         352
  C:1C35H         LINE#         353
  C:1C35H         LINE#         354
  C:1C58H         LINE#         355
  C:1C77H         LINE#         356
  C:1C9DH         LINE#         357
  C:1C9DH         LINE#         358
  C:1C9DH         LINE#         359
  C:1C9DH         LINE#         360
  C:1CA2H         LINE#         361
  C:1CA6H         LINE#         362
  C:1CBAH         LINE#         370
  C:1CBAH         LINE#         371
  C:1CBAH         LINE#         372
  -------         ENDPROC       _COPESERIALDATA
  -------         ENDMOD        MPU9250_SBUF

  -------         MODULE        RELAY
  C:0000H         SYMBOL        _ICE_DUMMY_
  D:0080H         PUBLIC        P0
  D:0090H         PUBLIC        P1
  D:00A0H         PUBLIC        P2
  D:00B0H         PUBLIC        P3
  D:00C0H         PUBLIC        P4
  D:00C8H         PUBLIC        P5
BL51 BANKED LINKER/LOCATER V6.00                                                      08/02/2017  18:22:39  PAGE 59


  D:00E8H         PUBLIC        P6
  D:00F8H         PUBLIC        P7
  D:00A8H         PUBLIC        IE
  C:701BH         PUBLIC        _unSetRelay
  C:718CH         PUBLIC        relay_Init
  D:00B8H         PUBLIC        IP
  X:0755H         PUBLIC        relay
  D:00D8H         PUBLIC        CCON
  D:0098H         PUBLIC        SCON
  D:0088H         PUBLIC        TCON
  D:00F0H         PUBLIC        B
  D:00E0H         PUBLIC        ACC
  C:6FFDH         PUBLIC        _setRelay
  D:00D0H         PUBLIC        PSW
  -------         PROC          _SETRELAY
  D:0007H         SYMBOL        RELAY
  C:6FFDH         LINE#         10
  C:6FFDH         LINE#         11
  C:6FFDH         LINE#         12
  C:700AH         LINE#         13
  C:700BH         LINE#         14
  -------         ENDPROC       _SETRELAY
  -------         PROC          _UNSETRELAY
  D:0007H         SYMBOL        RELAY
  C:701BH         LINE#         15
  C:701BH         LINE#         16
  C:701BH         LINE#         17
  C:7027H         LINE#         18
  C:7028H         LINE#         19
  -------         ENDPROC       _UNSETRELAY
  -------         PROC          RELAY_INIT
  C:718CH         LINE#         20
  C:718CH         LINE#         21
  C:718CH         LINE#         23
  -------         ENDPROC       RELAY_INIT
  -------         ENDMOD        RELAY

  -------         MODULE        TM1638
  C:0000H         SYMBOL        _ICE_DUMMY_
  D:000DH         PUBLIC        DisBuffer
  D:0080H         PUBLIC        P0
  D:0090H         PUBLIC        P1
  D:00A0H         PUBLIC        P2
  D:00B0H         PUBLIC        P3
  D:00C0H         PUBLIC        P4
  D:00C8H         PUBLIC        P5
  D:00E8H         PUBLIC        P6
  D:00F8H         PUBLIC        P7
  D:00A8H         PUBLIC        IE
  D:00B8H         PUBLIC        IP
  C:6A3CH         PUBLIC        _setTM1638COM
  D:00D8H         PUBLIC        CCON
  B:0090H.1       PUBLIC        TM1638_CLK
  B:0090H.0       PUBLIC        TM1638_DIO
  D:0098H         PUBLIC        SCON
  D:0088H         PUBLIC        TCON
  C:6107H         PUBLIC        getTM1638Read
BL51 BANKED LINKER/LOCATER V6.00                                                      08/02/2017  18:22:39  PAGE 60


  C:6F22H         PUBLIC        tab
  B:0090H.2       PUBLIC        TM1638_STB
  D:00F0H         PUBLIC        B
  D:00E0H         PUBLIC        ACC
  C:7171H         PUBLIC        CloseTM1638Display
  C:627CH         PUBLIC        _setTM1638Write
  C:2C91H         PUBLIC        _TM1638LedDisplay
  C:6512H         PUBLIC        Init_TM1638
  C:49CDH         PUBLIC        getButtonNum
  D:00D0H         PUBLIC        PSW
  -------         PROC          _SETTM1638WRITE
  X:0764H         SYMBOL        DATA
  -------         DO            
  X:0765H         SYMBOL        i
  -------         ENDDO         
  C:627CH         LINE#         32
  C:6281H         LINE#         33
  C:6281H         LINE#         35
  C:6284H         LINE#         36
  C:6284H         LINE#         37
  C:6286H         LINE#         38
  C:628DH         LINE#         39
  C:6295H         LINE#         40
  C:6299H         LINE#         42
  C:629BH         LINE#         43
  C:62A2H         LINE#         44
  C:62A4H         LINE#         45
  C:62ABH         LINE#         46
  C:62B7H         LINE#         47
  -------         ENDPROC       _SETTM1638WRITE
  -------         PROC          GETTM1638READ
  -------         DO            
  X:0766H         SYMBOL        i
  X:0767H         SYMBOL        temp
  -------         ENDDO         
  C:6107H         LINE#         57
  C:6107H         LINE#         58
  C:6107H         LINE#         60
  C:610CH         LINE#         61
  C:610EH         LINE#         62
  C:6112H         LINE#         63
  C:6112H         LINE#         64
  C:6119H         LINE#         65
  C:611BH         LINE#         66
  C:6122H         LINE#         67
  C:6125H         LINE#         68
  C:612CH         LINE#         69
  C:612EH         LINE#         70
  C:6135H         LINE#         71
  C:6141H         LINE#         72
  C:6146H         LINE#         73
  -------         ENDPROC       GETTM1638READ
  -------         PROC          _SETTM1638COM
  X:0777H         SYMBOL        cmd
  C:6A3CH         LINE#         83
  C:6A41H         LINE#         84
  C:6A41H         LINE#         85
BL51 BANKED LINKER/LOCATER V6.00                                                      08/02/2017  18:22:39  PAGE 61


  C:6A43H         LINE#         86
  C:6A4AH         LINE#         87
  C:6A52H         LINE#         88
  C:6A54H         LINE#         89
  -------         ENDPROC       _SETTM1638COM
  -------         PROC          GETBUTTONNUM
  -------         DO            
  X:06EDH         SYMBOL        c
  X:06F1H         SYMBOL        i
  X:06F2H         SYMBOL        key_value
  -------         ENDDO         
  C:49CDH         LINE#         100
  C:49CDH         LINE#         101
  C:49CDH         LINE#         102
  C:49D2H         LINE#         103
  C:49D4H         LINE#         104
  C:49D9H         LINE#         105
  C:49DEH         LINE#         106
  C:49E3H         LINE#         107
  C:4A01H         LINE#         108
  C:4A03H         LINE#         109
  C:4A14H         LINE#         110
  C:4A21H         LINE#         111
  C:4A32H         LINE#         112
  C:4A3FH         LINE#         113
  C:4A50H         LINE#         114
  C:4A5DH         LINE#         115
  C:4A6EH         LINE#         116
  C:4A7AH         LINE#         117
  C:4A8AH         LINE#         118
  C:4A96H         LINE#         119
  C:4AA6H         LINE#         120
  C:4AB2H         LINE#         121
  C:4AC2H         LINE#         122
  C:4ACEH         LINE#         123
  C:4ADEH         LINE#         124
  C:4AEAH         LINE#         125
  C:4AEDH         LINE#         126
  C:4AF2H         LINE#         127
  C:4AF7H         LINE#         128
  -------         ENDPROC       GETBUTTONNUM
  -------         PROC          INIT_TM1638
  -------         DO            
  X:0778H         SYMBOL        i
  -------         ENDDO         
  C:6512H         LINE#         138
  C:6512H         LINE#         139
  C:6512H         LINE#         141
  C:6517H         LINE#         142
  C:651CH         LINE#         143
  C:6521H         LINE#         144
  C:6523H         LINE#         145
  C:6528H         LINE#         146
  C:652DH         LINE#         147
  C:653EH         LINE#         148
  C:6540H         LINE#         149
  -------         ENDPROC       INIT_TM1638
BL51 BANKED LINKER/LOCATER V6.00                                                      08/02/2017  18:22:39  PAGE 62


  -------         PROC          _TM1638LEDDISPLAY
  D:0007H         SYMBOL        ddata0
  D:0005H         SYMBOL        ddata1
  D:0003H         SYMBOL        ddata2
  X:060BH         SYMBOL        ddata3
  X:060CH         SYMBOL        ddata4
  X:060DH         SYMBOL        ddata5
  X:060EH         SYMBOL        ddata6
  X:060FH         SYMBOL        ddata7
  -------         DO            
  X:0610H         SYMBOL        writedata0
  X:0611H         SYMBOL        writedata1
  X:0612H         SYMBOL        writedata2
  X:0613H         SYMBOL        writedata3
  X:0614H         SYMBOL        writedata4
  X:0615H         SYMBOL        writedata5
  X:0616H         SYMBOL        writedata6
  X:0617H         SYMBOL        writedata7
  X:0618H         SYMBOL        data0
  X:0619H         SYMBOL        data1
  X:061AH         SYMBOL        data2
  D:0001H         SYMBOL        data3
  D:0002H         SYMBOL        data4
  D:0003H         SYMBOL        data5
  D:0004H         SYMBOL        data6
  D:0005H         SYMBOL        data7
  -------         ENDDO         
  C:2C91H         LINE#         230
  C:2C91H         LINE#         233
  C:2C91H         LINE#         236
  C:2C99H         LINE#         237
  C:2CA1H         LINE#         238
  C:2CA9H         LINE#         239
  C:2CAEH         LINE#         240
  C:2CB3H         LINE#         241
  C:2CB3H         LINE#         242
  C:2CB7H         LINE#         243
  C:2CB9H         LINE#         245
  C:2D1AH         LINE#         248
  C:2D77H         LINE#         251
  C:2DD3H         LINE#         254
  C:2E30H         LINE#         257
  C:2E8DH         LINE#         260
  C:2EE9H         LINE#         263
  C:2F46H         LINE#         266
  C:2FA8H         LINE#         269
  C:2FADH         LINE#         270
  C:2FB2H         LINE#         271
  C:2FB4H         LINE#         272
  C:2FB9H         LINE#         274
  C:2FC1H         LINE#         275
  C:2FC6H         LINE#         276
  C:2FCEH         LINE#         277
  C:2FD3H         LINE#         278
  C:2FDBH         LINE#         279
  C:2FE0H         LINE#         280
  C:2FE8H         LINE#         281
BL51 BANKED LINKER/LOCATER V6.00                                                      08/02/2017  18:22:39  PAGE 63


  C:2FEDH         LINE#         282
  C:2FF5H         LINE#         283
  C:2FFAH         LINE#         284
  C:3002H         LINE#         285
  C:3007H         LINE#         286
  C:300FH         LINE#         287
  C:3014H         LINE#         288
  C:301CH         LINE#         289
  C:3021H         LINE#         291
  C:3023H         LINE#         294
  -------         ENDPROC       _TM1638LEDDISPLAY
  -------         PROC          CLOSETM1638DISPLAY
  C:7171H         LINE#         304
  C:7171H         LINE#         305
  C:7171H         LINE#         306
  -------         ENDPROC       CLOSETM1638DISPLAY
  -------         ENDMOD        TM1638

  -------         MODULE        ADS1115
  C:0000H         SYMBOL        _ICE_DUMMY_
  D:0080H         PUBLIC        P0
  D:0090H         PUBLIC        P1
  D:00A0H         PUBLIC        P2
  D:00B0H         PUBLIC        P3
  D:00C0H         PUBLIC        P4
  D:00C8H         PUBLIC        P5
  D:00E8H         PUBLIC        P6
  D:00F8H         PUBLIC        P7
  D:00A8H         PUBLIC        IE
  C:647CH         SYMBOL        readConversionRegister
  D:00B8H         PUBLIC        IP
  D:00D8H         PUBLIC        CCON
  D:0098H         PUBLIC        SCON
  C:6E16H         SYMBOL        changeRegister
  D:0088H         PUBLIC        TCON
  C:700CH         PUBLIC        _getADS1115ConvsionData
  D:00F0H         PUBLIC        B
  D:00E0H         PUBLIC        ACC
  C:674FH         SYMBOL        writeConfigRegister
  C:6D32H         PUBLIC        _ADS1115_Config
  D:00D0H         PUBLIC        PSW
  -------         PROC          WRITECONFIGREGISTER
  C:674FH         LINE#         8
  C:674FH         LINE#         9
  C:674FH         LINE#         10
  C:6752H         LINE#         11
  C:6757H         LINE#         12
  C:675AH         LINE#         14
  C:675FH         LINE#         15
  C:6762H         LINE#         17
  C:6767H         LINE#         18
  C:676AH         LINE#         20
  C:676FH         LINE#         21
  C:6772H         LINE#         23
  -------         ENDPROC       WRITECONFIGREGISTER
  -------         PROC          CHANGEREGISTER
  C:6E16H         LINE#         26
BL51 BANKED LINKER/LOCATER V6.00                                                      08/02/2017  18:22:39  PAGE 64


  C:6E16H         LINE#         27
  C:6E16H         LINE#         28
  C:6E19H         LINE#         29
  C:6E1EH         LINE#         30
  C:6E21H         LINE#         32
  C:6E26H         LINE#         33
  C:6E29H         LINE#         35
  -------         ENDPROC       CHANGEREGISTER
  -------         PROC          READCONVERSIONREGISTER
  -------         DO            
  X:03B5H         SYMBOL        str
  D:0006H         SYMBOL        result
  X:03BFH         SYMBOL        resultH
  X:03C0H         SYMBOL        resultL
  -------         ENDDO         
  C:647CH         LINE#         37
  C:647CH         LINE#         38
  C:647CH         LINE#         41
  C:6483H         LINE#         42
  C:6486H         LINE#         43
  C:648BH         LINE#         44
  C:648EH         LINE#         45
  C:6496H         LINE#         46
  C:6499H         LINE#         47
  C:64A1H         LINE#         51
  C:64A4H         LINE#         52
  C:64AEH         LINE#         58
  C:64AEH         LINE#         59
  -------         ENDPROC       READCONVERSIONREGISTER
  -------         PROC          _ADS1115_CONFIG
  X:0333H         SYMBOL        speed
  X:0334H         SYMBOL        mode
  -------         DO            
  X:0335H         SYMBOL        IIC_GPIO_Init
  -------         ENDDO         
  C:6D32H         LINE#         62
  C:6D3AH         LINE#         63
  C:6D3AH         LINE#         65
  C:6D3DH         LINE#         66
  C:6D41H         LINE#         67
  -------         ENDPROC       _ADS1115_CONFIG
  -------         PROC          _GETADS1115CONVSIONDATA
  X:03B2H         SYMBOL        channl
  -------         DO            
  X:03B3H         SYMBOL        Data
  -------         ENDDO         
  C:700CH         LINE#         70
  C:7011H         LINE#         71
  C:7011H         LINE#         73
  C:7014H         LINE#         75
  C:7017H         LINE#         78
  C:701AH         LINE#         79
  -------         ENDPROC       _GETADS1115CONVSIONDATA
  -------         ENDMOD        ADS1115

  -------         MODULE        ADC
  C:0000H         SYMBOL        _ICE_DUMMY_
BL51 BANKED LINKER/LOCATER V6.00                                                      08/02/2017  18:22:39  PAGE 65


  D:0080H         PUBLIC        P0
  D:0090H         PUBLIC        P1
  C:5DEAH         PUBLIC        _ADC_Inilize
  D:00A0H         PUBLIC        P2
  D:00B0H         PUBLIC        P3
  D:00C0H         PUBLIC        P4
  D:00C8H         PUBLIC        P5
  D:00E8H         PUBLIC        P6
  D:00F8H         PUBLIC        P7
  B:00A8H.5       PUBLIC        EADC
  D:00A8H         PUBLIC        IE
  D:00BDH         PUBLIC        ADC_RES
  B:00B8H.5       PUBLIC        PADC
  D:00B8H         PUBLIC        IP
  C:7087H         PUBLIC        _ADC_PowerControl
  D:00D8H         PUBLIC        CCON
  D:00BCH         PUBLIC        ADC_CONTR
  D:0098H         PUBLIC        SCON
  D:0088H         PUBLIC        TCON
  D:00F0H         PUBLIC        B
  D:00E0H         PUBLIC        ACC
  D:009DH         PUBLIC        P1ASF
  D:00BEH         PUBLIC        ADC_RESL
  D:0097H         PUBLIC        PCON2
  C:5C2DH         PUBLIC        _Get_ADC10bitResult
  C:7176H         PUBLIC        ADC_int
  D:00D0H         PUBLIC        PSW
  -------         PROC          _ADC_INILIZE
  D:0001H         SYMBOL        ADCx
  C:5DEAH         LINE#         22
  C:5DEAH         LINE#         23
  C:5DEAH         LINE#         24
  C:5DEFH         LINE#         25
  C:5DFDH         LINE#         26
  C:5E06H         LINE#         27
  C:5E06H         LINE#         28
  C:5E09H         LINE#         29
  C:5E0BH         LINE#         31
  C:5E0BH         LINE#         32
  C:5E0EH         LINE#         33
  C:5E0EH         LINE#         34
  C:5E17H         LINE#         35
  C:5E17H         LINE#         36
  C:5E1AH         LINE#         37
  C:5E1CH         LINE#         39
  C:5E1CH         LINE#         40
  C:5E1FH         LINE#         41
  C:5E1FH         LINE#         42
  C:5E28H         LINE#         43
  C:5E28H         LINE#         44
  C:5E2AH         LINE#         45
  C:5E2CH         LINE#         47
  C:5E2CH         LINE#         48
  C:5E2EH         LINE#         49
  C:5E2EH         LINE#         50
  C:5E37H         LINE#         51
  C:5E37H         LINE#         52
BL51 BANKED LINKER/LOCATER V6.00                                                      08/02/2017  18:22:39  PAGE 66


  C:5E39H         LINE#         53
  C:5E3AH         LINE#         55
  C:5E3AH         LINE#         56
  C:5E3CH         LINE#         57
  C:5E3CH         LINE#         58
  -------         ENDPROC       _ADC_INILIZE
  -------         PROC          _ADC_POWERCONTROL
  D:0007H         SYMBOL        pwr
  C:7087H         LINE#         66
  C:7087H         LINE#         67
  C:7087H         LINE#         68
  C:708BH         LINE#         69
  C:708BH         LINE#         70
  C:708EH         LINE#         71
  C:708FH         LINE#         73
  C:708FH         LINE#         74
  C:7092H         LINE#         75
  C:7092H         LINE#         76
  -------         ENDPROC       _ADC_POWERCONTROL
  -------         PROC          _GET_ADC10BITRESULT
  D:0007H         SYMBOL        channel
  -------         DO            
  D:0004H         SYMBOL        adc
  D:0003H         SYMBOL        i
  -------         ENDDO         
  C:5C2DH         LINE#         84
  C:5C2DH         LINE#         85
  C:5C2DH         LINE#         88
  C:5C33H         LINE#         89
  C:5C33H         LINE#         90
  C:5C35H         LINE#         91
  C:5C35H         LINE#         92
  C:5C38H         LINE#         93
  C:5C3AH         LINE#         94
  C:5C43H         LINE#         95
  C:5C47H         LINE#         96
  C:5C49H         LINE#         97
  C:5C49H         LINE#         98
  C:5C4EH         LINE#         99
  C:5C4EH         LINE#         100
  C:5C51H         LINE#         101
  C:5C56H         LINE#         102
  C:5C56H         LINE#         103
  C:5C5AH         LINE#         104
  C:5C5DH         LINE#         105
  C:5C5FH         LINE#         107
  C:5C5FH         LINE#         108
  C:5C65H         LINE#         109
  C:5C7CH         LINE#         110
  C:5C7CH         LINE#         111
  C:5C81H         LINE#         112
  C:5C81H         LINE#         113
  C:5C86H         LINE#         114
  C:5C8AH         LINE#         115
  -------         ENDPROC       _GET_ADC10BITRESULT
  -------         PROC          ADC_INT
  C:7176H         LINE#         123
BL51 BANKED LINKER/LOCATER V6.00                                                      08/02/2017  18:22:39  PAGE 67


  C:7176H         LINE#         125
  C:7179H         LINE#         126
  -------         ENDPROC       ADC_INT
  -------         ENDMOD        ADC

  -------         MODULE        DELAY
  C:0000H         SYMBOL        _ICE_DUMMY_
  D:0080H         PUBLIC        P0
  D:0090H         PUBLIC        P1
  D:00A0H         PUBLIC        P2
  D:00B0H         PUBLIC        P3
  D:00C0H         PUBLIC        P4
  D:00C8H         PUBLIC        P5
  D:00E8H         PUBLIC        P6
  D:00F8H         PUBLIC        P7
  D:00A8H         PUBLIC        IE
  D:00B8H         PUBLIC        IP
  D:00D8H         PUBLIC        CCON
  D:0098H         PUBLIC        SCON
  D:0088H         PUBLIC        TCON
  D:00F0H         PUBLIC        B
  D:00E0H         PUBLIC        ACC
  C:6FDEH         PUBLIC        _delay_ms
  C:6541H         PUBLIC        _delay_us
  D:00D0H         PUBLIC        PSW
  -------         PROC          _DELAY_MS
  D:0007H         SYMBOL        ms
  -------         DO            
  D:0004H         SYMBOL        i
  -------         ENDDO         
  C:6FDEH         LINE#         26
  C:6FDEH         LINE#         27
  C:6FDEH         LINE#         30
  C:6FDEH         LINE#         31
  C:6FE2H         LINE#         32
  C:6FEBH         LINE#         33
  C:6FEBH         LINE#         35
  C:6FEBH         LINE#         36
  C:6FEBH         LINE#         37
  C:6FEDH         LINE#         38
  -------         ENDPROC       _DELAY_MS
  -------         PROC          _DELAY_US
  D:0006H         SYMBOL        us
  -------         DO            
  D:0006H         SYMBOL        j
  -------         ENDDO         
  C:6541H         LINE#         39
  C:6541H         LINE#         40
  C:6541H         LINE#         42
  C:6562H         LINE#         43
  C:6562H         LINE#         44
  C:6566H         LINE#         45
  C:6566H         LINE#         46
  C:6567H         LINE#         47
  C:656EH         LINE#         48
  -------         ENDPROC       _DELAY_US
  -------         ENDMOD        DELAY
BL51 BANKED LINKER/LOCATER V6.00                                                      08/02/2017  18:22:39  PAGE 68



  -------         MODULE        STC15_EEPROM
  C:0000H         SYMBOL        _ICE_DUMMY_
  D:0080H         PUBLIC        P0
  D:0090H         PUBLIC        P1
  D:00A0H         PUBLIC        P2
  D:00B0H         PUBLIC        P3
  C:7029H         PUBLIC        DisableEEPROM
  D:00C0H         PUBLIC        P4
  D:00C8H         PUBLIC        P5
  D:00C6H         PUBLIC        ISP_TRIG
  B:00A8H.7       PUBLIC        EA
  D:00E8H         PUBLIC        P6
  D:00F8H         PUBLIC        P7
  D:00A8H         PUBLIC        IE
  C:69FDH         PUBLIC        _EEPROM_SectorErase
  C:6147H         PUBLIC        _EEPROM_read_n
  D:00B8H         PUBLIC        IP
  D:00C5H         PUBLIC        ISP_CMD
  D:00D8H         PUBLIC        CCON
  C:6186H         PUBLIC        _EEPROM_write_n
  D:00C3H         PUBLIC        ISP_ADDRH
  D:0098H         PUBLIC        SCON
  D:0088H         PUBLIC        TCON
  D:00C4H         PUBLIC        ISP_ADDRL
  D:00F0H         PUBLIC        B
  D:00E0H         PUBLIC        ACC
  D:00C7H         PUBLIC        ISP_CONTR
  D:00C2H         PUBLIC        ISP_DATA
  D:00D0H         PUBLIC        PSW
  -------         PROC          DISABLEEEPROM
  C:7029H         LINE#         30
  C:7029H         LINE#         31
  C:7029H         LINE#         32
  C:702CH         LINE#         33
  C:702EH         LINE#         34
  C:7030H         LINE#         35
  C:7033H         LINE#         36
  C:7036H         LINE#         37
  -------         ENDPROC       DISABLEEEPROM
  -------         PROC          _EEPROM_READ_N
  D:0004H         SYMBOL        EE_address
  D:0001H         SYMBOL        DataAddress
  X:06DEH         SYMBOL        number
  C:6147H         LINE#         49
  C:614BH         LINE#         50
  C:614BH         LINE#         51
  C:614DH         LINE#         52
  C:6150H         LINE#         53
  C:6153H         LINE#         55
  C:6153H         LINE#         56
  C:6156H         LINE#         57
  C:615AH         LINE#         58
  C:6160H         LINE#         61
  C:6161H         LINE#         62
  C:6166H         LINE#         63
  C:616BH         LINE#         64
BL51 BANKED LINKER/LOCATER V6.00                                                      08/02/2017  18:22:39  PAGE 69


  C:6172H         LINE#         65
  C:6180H         LINE#         67
  C:6183H         LINE#         68
  C:6185H         LINE#         69
  -------         ENDPROC       _EEPROM_READ_N
  -------         PROC          _EEPROM_SECTORERASE
  D:0004H         SYMBOL        EE_address
  C:69FDH         LINE#         80
  C:6A01H         LINE#         81
  C:6A01H         LINE#         82
  C:6A03H         LINE#         85
  C:6A06H         LINE#         86
  C:6A0AH         LINE#         87
  C:6A0DH         LINE#         88
  C:6A10H         LINE#         89
  C:6A16H         LINE#         90
  C:6A17H         LINE#         91
  C:6A1AH         LINE#         92
  C:6A1CH         LINE#         93
  -------         ENDPROC       _EEPROM_SECTORERASE
  -------         PROC          _EEPROM_WRITE_N
  D:0004H         SYMBOL        EE_address
  D:0001H         SYMBOL        DataAddress
  X:06E5H         SYMBOL        number
  C:6186H         LINE#         104
  C:618AH         LINE#         105
  C:618AH         LINE#         106
  C:618CH         LINE#         108
  C:618FH         LINE#         109
  C:6192H         LINE#         111
  C:6192H         LINE#         112
  C:6195H         LINE#         113
  C:6199H         LINE#         114
  C:619EH         LINE#         115
  C:61A4H         LINE#         116
  C:61A5H         LINE#         117
  C:61AAH         LINE#         118
  C:61B1H         LINE#         119
  C:61BFH         LINE#         121
  C:61C2H         LINE#         122
  C:61C4H         LINE#         123
  -------         ENDPROC       _EEPROM_WRITE_N
  -------         ENDMOD        STC15_EEPROM

  -------         MODULE        STC15_EXTI
  C:0000H         SYMBOL        _ICE_DUMMY_
  D:0080H         PUBLIC        P0
  D:0090H         PUBLIC        P1
  D:00A0H         PUBLIC        P2
  D:00B0H         PUBLIC        P3
  D:00C0H         PUBLIC        P4
  D:00C8H         PUBLIC        P5
  D:00E8H         PUBLIC        P6
  D:00F8H         PUBLIC        P7
  D:00A8H         PUBLIC        IE
  D:00B8H         PUBLIC        IP
  D:00D8H         PUBLIC        CCON
BL51 BANKED LINKER/LOCATER V6.00                                                      08/02/2017  18:22:39  PAGE 70


  C:718DH         PUBLIC        Ext_INT0
  C:718EH         PUBLIC        Ext_INT1
  C:718FH         PUBLIC        Ext_INT2
  C:7190H         PUBLIC        Ext_INT3
  C:7191H         PUBLIC        Ext_INT4
  D:0098H         PUBLIC        SCON
  D:0088H         PUBLIC        TCON
  D:00F0H         PUBLIC        B
  D:00E0H         PUBLIC        ACC
  B:00A8H.0       PUBLIC        EX0
  B:0088H.0       PUBLIC        IT0
  B:00A8H.2       PUBLIC        EX1
  B:0088H.2       PUBLIC        IT1
  B:00B8H.0       PUBLIC        PX0
  B:00B8H.2       PUBLIC        PX1
  C:4F66H         PUBLIC        _Ext_Inilize
  D:008FH         PUBLIC        INT_CLKO
  D:00D0H         PUBLIC        PSW
  -------         PROC          EXT_INT0
  C:718DH         LINE#         23
  C:718DH         LINE#         26
  -------         ENDPROC       EXT_INT0
  -------         PROC          EXT_INT1
  C:718EH         LINE#         29
  C:718EH         LINE#         32
  -------         ENDPROC       EXT_INT1
  -------         PROC          EXT_INT2
  C:718FH         LINE#         35
  C:718FH         LINE#         38
  -------         ENDPROC       EXT_INT2
  -------         PROC          EXT_INT3
  C:7190H         LINE#         41
  C:7190H         LINE#         44
  -------         ENDPROC       EXT_INT3
  -------         PROC          EXT_INT4
  C:7191H         LINE#         47
  C:7191H         LINE#         50
  -------         ENDPROC       EXT_INT4
  -------         PROC          _EXT_INILIZE
  D:0007H         SYMBOL        EXT
  D:0001H         SYMBOL        INTx
  C:4F66H         LINE#         60
  C:4F66H         LINE#         61
  C:4F66H         LINE#         62
  C:4F6FH         LINE#         64
  C:4F72H         LINE#         65
  C:4F72H         LINE#         66
  C:4F7FH         LINE#         67
  C:4F81H         LINE#         68
  C:4F8EH         LINE#         69
  C:4F90H         LINE#         70
  C:4F9AH         LINE#         71
  C:4F9CH         LINE#         72
  C:4F9FH         LINE#         73
  C:4F9FH         LINE#         75
  C:4FA4H         LINE#         76
  C:4FA4H         LINE#         77
BL51 BANKED LINKER/LOCATER V6.00                                                      08/02/2017  18:22:39  PAGE 71


  C:4FB1H         LINE#         78
  C:4FB3H         LINE#         79
  C:4FC0H         LINE#         80
  C:4FC2H         LINE#         81
  C:4FCCH         LINE#         82
  C:4FCEH         LINE#         83
  C:4FD1H         LINE#         84
  C:4FD1H         LINE#         86
  C:4FD5H         LINE#         87
  C:4FD5H         LINE#         88
  C:4FE3H         LINE#         89
  C:4FE6H         LINE#         90
  C:4FE9H         LINE#         91
  C:4FE9H         LINE#         93
  C:4FEDH         LINE#         94
  C:4FEDH         LINE#         95
  C:4FFBH         LINE#         96
  C:4FFEH         LINE#         97
  C:5001H         LINE#         98
  C:5001H         LINE#         100
  C:5005H         LINE#         101
  C:5005H         LINE#         102
  C:5013H         LINE#         103
  C:5016H         LINE#         104
  C:5019H         LINE#         105
  C:5019H         LINE#         106
  C:501BH         LINE#         107
  -------         ENDPROC       _EXT_INILIZE
  -------         ENDMOD        STC15_EXTI

  -------         MODULE        GPIO
  C:0000H         SYMBOL        _ICE_DUMMY_
  D:0093H         PUBLIC        P0M1
  D:0092H         PUBLIC        P1M0
  D:0096H         PUBLIC        P2M0
  D:0091H         PUBLIC        P1M1
  D:0080H         PUBLIC        P0
  D:00B2H         PUBLIC        P3M0
  D:0095H         PUBLIC        P2M1
  D:0090H         PUBLIC        P1
  D:00B4H         PUBLIC        P4M0
  D:00B1H         PUBLIC        P3M1
  D:00A0H         PUBLIC        P2
  D:00CAH         PUBLIC        P5M0
  D:00B3H         PUBLIC        P4M1
  D:00B0H         PUBLIC        P3
  D:00C9H         PUBLIC        P5M1
  D:00C0H         PUBLIC        P4
  D:00C8H         PUBLIC        P5
  D:00E8H         PUBLIC        P6
  D:00F8H         PUBLIC        P7
  D:00A8H         PUBLIC        IE
  D:00B8H         PUBLIC        IP
  D:00D8H         PUBLIC        CCON
  D:0098H         PUBLIC        SCON
  D:0088H         PUBLIC        TCON
  D:00F0H         PUBLIC        B
BL51 BANKED LINKER/LOCATER V6.00                                                      08/02/2017  18:22:39  PAGE 72


  D:00E0H         PUBLIC        ACC
  C:3D5EH         PUBLIC        _GPIO_Inilize
  D:00D0H         PUBLIC        PSW
  C:7183H         PUBLIC        _setPinState
  D:0094H         PUBLIC        P0M0
  -------         PROC          _SETPINSTATE
  D:0007H         SYMBOL        Pin
  B:0022H.2       SYMBOL        State
  C:7183H         LINE#         18
  C:7183H         LINE#         19
  C:7183H         LINE#         20
  C:7185H         LINE#         23
  -------         ENDPROC       _SETPINSTATE
  -------         PROC          _GPIO_INILIZE
  D:0007H         SYMBOL        GPIO
  D:0001H         SYMBOL        GPIOx
  C:3D5EH         LINE#         31
  C:3D5EH         LINE#         32
  C:3D5EH         LINE#         33
  C:3D64H         LINE#         34
  C:3D64H         LINE#         35
  C:3D67H         LINE#         36
  C:3D67H         LINE#         37
  C:3D70H         LINE#         38
  C:3D70H         LINE#         39
  C:3D73H         LINE#         40
  C:3D73H         LINE#         41
  C:3D76H         LINE#         42
  C:3D76H         LINE#         43
  C:3D79H         LINE#         44
  C:3D79H         LINE#         45
  C:3D84H         LINE#         46
  C:3D84H         LINE#         47
  C:3D8AH         LINE#         48
  C:3D8AH         LINE#         49
  C:3D95H         LINE#         50
  C:3D95H         LINE#         51
  C:3D9CH         LINE#         52
  C:3D9CH         LINE#         53
  C:3DA6H         LINE#         54
  C:3DA6H         LINE#         55
  C:3DAAH         LINE#         56
  C:3DAAH         LINE#         57
  C:3DB7H         LINE#         58
  C:3DB7H         LINE#         59
  C:3DB7H         LINE#         60
  C:3DBCH         LINE#         61
  C:3DBCH         LINE#         62
  C:3DC2H         LINE#         63
  C:3DC2H         LINE#         64
  C:3DCDH         LINE#         65
  C:3DCDH         LINE#         66
  C:3DD1H         LINE#         67
  C:3DD1H         LINE#         68
  C:3DDCH         LINE#         69
  C:3DDCH         LINE#         70
  C:3DE2H         LINE#         71
BL51 BANKED LINKER/LOCATER V6.00                                                      08/02/2017  18:22:39  PAGE 73


  C:3DE2H         LINE#         72
  C:3DECH         LINE#         73
  C:3DECH         LINE#         74
  C:3DF2H         LINE#         75
  C:3DF2H         LINE#         76
  C:3DFFH         LINE#         77
  C:3DFFH         LINE#         78
  C:3DFFH         LINE#         79
  C:3E04H         LINE#         80
  C:3E04H         LINE#         81
  C:3E0AH         LINE#         82
  C:3E0AH         LINE#         83
  C:3E15H         LINE#         84
  C:3E15H         LINE#         85
  C:3E19H         LINE#         86
  C:3E19H         LINE#         87
  C:3E24H         LINE#         88
  C:3E24H         LINE#         89
  C:3E2AH         LINE#         90
  C:3E2AH         LINE#         91
  C:3E34H         LINE#         92
  C:3E34H         LINE#         93
  C:3E3AH         LINE#         94
  C:3E3AH         LINE#         95
  C:3E47H         LINE#         96
  C:3E47H         LINE#         97
  C:3E47H         LINE#         98
  C:3E4CH         LINE#         99
  C:3E4CH         LINE#         100
  C:3E52H         LINE#         101
  C:3E52H         LINE#         102
  C:3E5DH         LINE#         103
  C:3E5DH         LINE#         104
  C:3E61H         LINE#         105
  C:3E61H         LINE#         106
  C:3E6CH         LINE#         107
  C:3E6CH         LINE#         108
  C:3E72H         LINE#         109
  C:3E72H         LINE#         110
  C:3E7CH         LINE#         111
  C:3E7CH         LINE#         112
  C:3E82H         LINE#         113
  C:3E82H         LINE#         114
  C:3E8FH         LINE#         115
  C:3E8FH         LINE#         116
  C:3E8FH         LINE#         117
  C:3E94H         LINE#         118
  C:3E94H         LINE#         119
  C:3E9AH         LINE#         120
  C:3E9AH         LINE#         121
  C:3EA5H         LINE#         122
  C:3EA5H         LINE#         123
  C:3EA9H         LINE#         124
  C:3EA9H         LINE#         125
  C:3EB4H         LINE#         126
  C:3EB4H         LINE#         127
  C:3EBAH         LINE#         128
BL51 BANKED LINKER/LOCATER V6.00                                                      08/02/2017  18:22:39  PAGE 74


  C:3EBAH         LINE#         129
  C:3EC4H         LINE#         130
  C:3EC4H         LINE#         131
  C:3ECAH         LINE#         132
  C:3ECAH         LINE#         133
  C:3ED7H         LINE#         134
  C:3ED7H         LINE#         135
  C:3ED7H         LINE#         136
  C:3EDCH         LINE#         137
  C:3EDCH         LINE#         138
  C:3EE2H         LINE#         139
  C:3EE2H         LINE#         140
  C:3EEDH         LINE#         141
  C:3EEDH         LINE#         142
  C:3EF1H         LINE#         143
  C:3EF1H         LINE#         144
  C:3EFCH         LINE#         145
  C:3EFCH         LINE#         146
  C:3F02H         LINE#         147
  C:3F02H         LINE#         148
  C:3F0CH         LINE#         149
  C:3F0CH         LINE#         150
  C:3F12H         LINE#         151
  C:3F12H         LINE#         152
  C:3F1FH         LINE#         153
  C:3F1FH         LINE#         154
  C:3F1FH         LINE#         155
  C:3F21H         LINE#         156
  -------         ENDPROC       _GPIO_INILIZE
  -------         ENDMOD        GPIO

  -------         MODULE        STC15_IIC
  C:0000H         SYMBOL        _ICE_DUMMY_
  D:0080H         PUBLIC        P0
  D:0090H         PUBLIC        P1
  D:00A0H         PUBLIC        P2
  D:00B0H         PUBLIC        P3
  D:00C0H         PUBLIC        P4
  D:00C8H         PUBLIC        P5
  D:00E8H         PUBLIC        P6
  D:00F8H         PUBLIC        P7
  D:00A8H         PUBLIC        IE
  D:00B8H         PUBLIC        IP
  D:00D8H         PUBLIC        CCON
  C:5E3DH         PUBLIC        _IIC_RdDatFromAdd
  D:0098H         PUBLIC        SCON
  C:70B4H         PUBLIC        IIC_Nack
  D:0088H         PUBLIC        TCON
  D:00F0H         PUBLIC        B
  C:706DH         PUBLIC        IIC_Ack
  C:70AAH         PUBLIC        IIC_Start
  D:00E0H         PUBLIC        ACC
  C:6775H         PUBLIC        _InputOneByte
  C:680AH         PUBLIC        OutputOneByte
  C:703EH         PUBLIC        Delay5US
  B:00A0H.3       PUBLIC        SDA
  C:7149H         PUBLIC        IIC_Stop
BL51 BANKED LINKER/LOCATER V6.00                                                      08/02/2017  18:22:39  PAGE 75


  B:00A0H.4       PUBLIC        SCL
  C:6DE6H         PUBLIC        _IIC_WrDevAddAndDatAdd
  C:6411H         PUBLIC        _IIC_WrDatToAdd
  D:00D0H         PUBLIC        PSW
  C:6691H         PUBLIC        IIC_RdAck
  C:7039H         SYMBOL        L?0032
  -------         PROC          L?0031
  -------         ENDPROC       L?0031
  C:7039H         SYMBOL        L?0032
  -------         PROC          DELAY5US
  -------         DO            
  D:0007H         SYMBOL        i
  -------         ENDDO         
  C:703EH         LINE#         23
  C:703EH         LINE#         24
  C:703EH         LINE#         28
  C:703FH         LINE#         29
  C:7040H         LINE#         30
  C:7042H         LINE#         31
  C:7044H         LINE#         32
  -------         ENDPROC       DELAY5US
  -------         PROC          IIC_START
  C:70AAH         LINE#         39
  C:70AAH         LINE#         40
  C:70AAH         LINE#         41
  C:70ACH         LINE#         42
  C:70ACH         LINE#         43
  C:70ACH         LINE#         44
  C:70AFH         LINE#         45
  C:70B1H         LINE#         46
  -------         ENDPROC       IIC_START
  -------         PROC          IIC_STOP
  C:7149H         LINE#         54
  C:7149H         LINE#         55
  C:7149H         LINE#         56
  C:7149H         LINE#         57
  C:7149H         LINE#         58
  C:7149H         LINE#         59
  C:714CH         LINE#         60
  C:714EH         LINE#         61
  -------         ENDPROC       IIC_STOP
  -------         PROC          IIC_ACK
  C:706DH         LINE#         68
  C:706DH         LINE#         69
  C:706DH         LINE#         70
  C:706FH         LINE#         71
  C:706FH         LINE#         72
  C:706FH         LINE#         73
  C:706FH         LINE#         74
  C:7072H         LINE#         75
  C:7074H         LINE#         76
  C:7077H         LINE#         77
  C:7079H         LINE#         78
  -------         ENDPROC       IIC_ACK
  -------         PROC          L?0033
  -------         ENDPROC       L?0033
  -------         PROC          IIC_RDACK
BL51 BANKED LINKER/LOCATER V6.00                                                      08/02/2017  18:22:39  PAGE 76


  -------         DO            
  B:0021H.1       SYMBOL        AckFlag
  D:0006H         SYMBOL        uiVal
  -------         ENDDO         
  C:6691H         LINE#         85
  C:6691H         LINE#         86
  C:6691H         LINE#         88
  C:6693H         LINE#         89
  C:6695H         LINE#         90
  C:6698H         LINE#         91
  C:669AH         LINE#         92
  C:669CH         LINE#         93
  C:669FH         LINE#         94
  C:66A8H         LINE#         95
  C:66A8H         LINE#         96
  C:66A9H         LINE#         97
  C:66ADH         LINE#         98
  C:66AFH         LINE#         99
  C:66B1H         LINE#         100
  C:66B3H         LINE#         101
  -------         ENDPROC       IIC_RDACK
  -------         PROC          IIC_NACK
  C:70B4H         LINE#         108
  C:70B4H         LINE#         109
  C:70B4H         LINE#         110
  C:70B6H         LINE#         111
  C:70B8H         LINE#         112
  C:70B8H         LINE#         113
  C:70B8H         LINE#         114
  C:70BBH         LINE#         115
  C:70BDH         LINE#         116
  -------         ENDPROC       IIC_NACK
  -------         PROC          OUTPUTONEBYTE
  -------         DO            
  X:03C1H         SYMBOL        str
  D:0005H         SYMBOL        i
  D:0006H         SYMBOL        Data
  -------         ENDDO         
  C:680AH         LINE#         123
  C:680AH         LINE#         124
  C:680AH         LINE#         144
  C:680CH         LINE#         145
  C:680DH         LINE#         146
  C:680DH         LINE#         147
  C:680FH         LINE#         148
  C:6812H         LINE#         149
  C:6816H         LINE#         150
  C:6819H         LINE#         151
  C:681CH         LINE#         152
  C:681CH         LINE#         153
  C:681FH         LINE#         154
  C:6821H         LINE#         156
  C:6821H         LINE#         157
  C:6821H         LINE#         158
  C:6821H         LINE#         160
  C:6823H         LINE#         161
  C:6826H         LINE#         162
BL51 BANKED LINKER/LOCATER V6.00                                                      08/02/2017  18:22:39  PAGE 77


  C:682BH         LINE#         164
  C:682DH         LINE#         165
  -------         ENDPROC       OUTPUTONEBYTE
  -------         PROC          _INPUTONEBYTE
  D:0006H         SYMBOL        uByteVal
  -------         DO            
  D:0005H         SYMBOL        iCount
  -------         ENDDO         
  C:6775H         LINE#         172
  C:6777H         LINE#         173
  C:6777H         LINE#         175
  C:6779H         LINE#         176
  C:6779H         LINE#         177
  C:677BH         LINE#         178
  C:677EH         LINE#         179
  C:678CH         LINE#         180
  C:678CH         LINE#         181
  C:678CH         LINE#         182
  C:678FH         LINE#         183
  C:6793H         LINE#         184
  C:6798H         LINE#         185
  C:679AH         LINE#         186
  -------         ENDPROC       _INPUTONEBYTE
  -------         PROC          _IIC_WRDEVADDANDDATADD
  D:0006H         SYMBOL        uDevAdd
  D:0004H         SYMBOL        uDatAdd
  C:6DE6H         LINE#         193
  C:6DEAH         LINE#         194
  C:6DEAH         LINE#         195
  C:6DEDH         LINE#         196
  C:6DF2H         LINE#         197
  C:6DF5H         LINE#         198
  C:6DFAH         LINE#         199
  C:6DFDH         LINE#         200
  C:6DFEH         LINE#         201
  -------         ENDPROC       _IIC_WRDEVADDANDDATADD
  -------         PROC          _IIC_WRDATTOADD
  D:0007H         SYMBOL        uDevID
  D:0005H         SYMBOL        uStaAddVal
  X:06F5H         SYMBOL        p
  X:06F8H         SYMBOL        ucLenVal
  -------         DO            
  D:0004H         SYMBOL        iCount
  -------         ENDDO         
  C:6411H         LINE#         209
  C:641CH         LINE#         210
  C:641CH         LINE#         212
  C:641FH         LINE#         214
  C:642BH         LINE#         215
  C:642BH         LINE#         216
  C:643EH         LINE#         217
  C:6441H         LINE#         218
  C:6444H         LINE#         219
  -------         ENDPROC       _IIC_WRDATTOADD
  -------         PROC          _IIC_RDDATFROMADD
  X:06F9H         SYMBOL        uDevID
  D:0005H         SYMBOL        uStaAddVal
BL51 BANKED LINKER/LOCATER V6.00                                                      08/02/2017  18:22:39  PAGE 78


  X:06FBH         SYMBOL        p
  X:06FEH         SYMBOL        uiLenVal
  -------         DO            
  D:0004H         SYMBOL        iCount
  -------         ENDDO         
  C:5E3DH         LINE#         228
  C:5E4DH         LINE#         229
  C:5E4DH         LINE#         231
  C:5E50H         LINE#         232
  C:5E53H         LINE#         233
  C:5E56H         LINE#         235
  C:5E59H         LINE#         236
  C:5E65H         LINE#         237
  C:5E65H         LINE#         238
  C:5E7CH         LINE#         239
  C:5E84H         LINE#         240
  C:5E84H         LINE#         241
  C:5E87H         LINE#         242
  C:5E87H         LINE#         243
  C:5E8AH         LINE#         244
  C:5E8DH         LINE#         245
  -------         ENDPROC       _IIC_RDDATFROMADD
  -------         ENDMOD        STC15_IIC

  -------         MODULE        PCA
  C:0000H         SYMBOL        _ICE_DUMMY_
  B:00D8H.2       PUBLIC        CCF2
  D:0080H         PUBLIC        P0
  D:0090H         PUBLIC        P1
  D:00A0H         PUBLIC        P2
  D:00B0H         PUBLIC        P3
  D:00C0H         PUBLIC        P4
  D:00C8H         PUBLIC        P5
  D:00E8H         PUBLIC        P6
  D:00F8H         PUBLIC        P7
  D:00F9H         PUBLIC        CH
  X:05F3H         PUBLIC        PCA0_mode
  X:05F4H         PUBLIC        PCA1_mode
  D:00A8H         PUBLIC        IE
  X:05F5H         PUBLIC        PCA2_mode
  D:00E9H         PUBLIC        CL
  D:00FAH         PUBLIC        CCAP0H
  D:00FBH         PUBLIC        CCAP1H
  D:00FCH         PUBLIC        CCAP2H
  B:00D8H.6       PUBLIC        CR
  D:00EAH         PUBLIC        CCAP0L
  D:00EBH         PUBLIC        CCAP1L
  D:00DAH         PUBLIC        CCAPM0
  D:00ECH         PUBLIC        CCAP2L
  D:00DBH         PUBLIC        CCAPM1
  D:00DCH         PUBLIC        CCAPM2
  D:00B8H         PUBLIC        IP
  D:00D9H         PUBLIC        CMOD
  D:00D8H         PUBLIC        CCON
  B:00B8H.7       PUBLIC        PPCA
  C:50CBH         PUBLIC        _PWMn_Update
  B:0021H.2       PUBLIC        B_Capture0
BL51 BANKED LINKER/LOCATER V6.00                                                      08/02/2017  18:22:39  PAGE 79


  B:0021H.3       PUBLIC        B_Capture1
  B:0021H.4       PUBLIC        B_Capture2
  D:0098H         PUBLIC        SCON
  D:0088H         PUBLIC        TCON
  B:00A0H.5       PUBLIC        P25
  B:00A0H.6       PUBLIC        P26
  B:00A0H.7       PUBLIC        P27
  D:00F0H         PUBLIC        B
  D:00E0H         PUBLIC        ACC
  C:44F9H         PUBLIC        _pwmOutPut
  C:40C2H         PUBLIC        _PCA_Init
  X:05F6H         PUBLIC        PWM0_low
  X:05F8H         PUBLIC        PWM1_low
  D:00F2H         PUBLIC        PCA_PWM0
  X:05FAH         PUBLIC        PWM2_low
  D:00F3H         PUBLIC        PCA_PWM1
  D:00F4H         PUBLIC        PCA_PWM2
  X:05FCH         PUBLIC        PCA_Timer0
  X:05FEH         PUBLIC        PCA_Timer1
  X:0600H         PUBLIC        PCA_Timer2
  D:00A2H         PUBLIC        AUXR1
  C:52C8H         PUBLIC        PCA_Handler
  D:00D0H         PUBLIC        PSW
  X:0602H         PUBLIC        CCAP0_tmp
  X:0604H         PUBLIC        CCAP1_tmp
  B:00D8H.0       PUBLIC        CCF0
  X:0606H         PUBLIC        CCAP2_tmp
  B:00D8H.1       PUBLIC        CCF1
  -------         PROC          _PWMN_UPDATE
  D:0007H         SYMBOL        PCA_id
  D:0004H         SYMBOL        high
  C:50CBH         LINE#         34
  C:50CBH         LINE#         35
  C:50CBH         LINE#         36
  C:50CEH         LINE#         37
  C:50CEH         LINE#         38
  C:50D7H         LINE#         39
  C:50D7H         LINE#         40
  C:50DBH         LINE#         41
  C:50DBH         LINE#         42
  C:50E4H         LINE#         43
  C:50E4H         LINE#         44
  C:50E8H         LINE#         45
  C:50E8H         LINE#         46
  C:50EAH         LINE#         47
  C:50F2H         LINE#         48
  C:5100H         LINE#         49
  C:5100H         LINE#         50
  C:5102H         LINE#         51
  C:5107H         LINE#         52
  C:5107H         LINE#         53
  C:5110H         LINE#         54
  C:5110H         LINE#         55
  C:5114H         LINE#         56
  C:5114H         LINE#         57
  C:511DH         LINE#         58
  C:511DH         LINE#         59
BL51 BANKED LINKER/LOCATER V6.00                                                      08/02/2017  18:22:39  PAGE 80


  C:5121H         LINE#         60
  C:5121H         LINE#         61
  C:5123H         LINE#         62
  C:512BH         LINE#         63
  C:5139H         LINE#         64
  C:5139H         LINE#         65
  C:513BH         LINE#         66
  C:5140H         LINE#         67
  C:5140H         LINE#         68
  C:5149H         LINE#         69
  C:5149H         LINE#         70
  C:514DH         LINE#         71
  C:514DH         LINE#         72
  C:5156H         LINE#         73
  C:5156H         LINE#         74
  C:515AH         LINE#         75
  C:515AH         LINE#         76
  C:515CH         LINE#         77
  C:5164H         LINE#         78
  C:5176H         LINE#         79
  C:5178H         LINE#         80
  C:5178H         LINE#         81
  -------         ENDPROC       _PWMN_UPDATE
  -------         PROC          _PCA_INIT
  D:0005H         SYMBOL        PCA_id
  X:0758H         SYMBOL        PCAx
  C:40C2H         LINE#         106
  C:40CFH         LINE#         107
  C:40CFH         LINE#         108
  C:40D8H         LINE#         109
  C:40D8H         LINE#         111
  C:40D8H         LINE#         112
  C:40DDH         LINE#         113
  C:40DDH         LINE#         114
  C:40DFH         LINE#         115
  C:40E1H         LINE#         116
  C:40E3H         LINE#         117
  C:40F9H         LINE#         118
  C:4107H         LINE#         119
  C:4117H         LINE#         120
  C:4120H         LINE#         121
  C:4120H         LINE#         122
  C:4122H         LINE#         123
  C:4124H         LINE#         125
  C:4124H         LINE#         126
  C:4126H         LINE#         127
  C:4126H         LINE#         128
  C:4129H         LINE#         130
  C:4129H         LINE#         131
  C:4141H         LINE#         132
  C:4157H         LINE#         133
  C:4157H         LINE#         134
  C:4166H         LINE#         135
  C:4166H         LINE#         136
  C:4169H         LINE#         137
  C:4169H         LINE#         138
  C:4185H         LINE#         139
BL51 BANKED LINKER/LOCATER V6.00                                                      08/02/2017  18:22:39  PAGE 81


  C:4193H         LINE#         140
  C:41A4H         LINE#         141
  C:41A6H         LINE#         142
  C:41ABH         LINE#         143
  C:41B3H         LINE#         144
  C:41B5H         LINE#         145
  C:41B8H         LINE#         146
  C:41B8H         LINE#         147
  C:41BDH         LINE#         148
  C:41BDH         LINE#         149
  C:41D9H         LINE#         150
  C:41E7H         LINE#         151
  C:41F8H         LINE#         152
  C:41FAH         LINE#         153
  C:41FFH         LINE#         154
  C:4207H         LINE#         155
  C:4209H         LINE#         156
  C:420CH         LINE#         157
  C:420CH         LINE#         158
  C:4211H         LINE#         159
  C:4211H         LINE#         160
  C:422DH         LINE#         161
  C:423BH         LINE#         162
  C:424CH         LINE#         163
  C:424EH         LINE#         164
  C:4253H         LINE#         165
  C:425BH         LINE#         166
  C:425DH         LINE#         167
  C:4260H         LINE#         168
  C:4260H         LINE#         169
  -------         ENDPROC       _PCA_INIT
  -------         PROC          _PWMOUTPUT
  X:075BH         SYMBOL        PCA_id
  X:075CH         SYMBOL        T
  D:0002H         SYMBOL        duty
  C:44F9H         LINE#         170
  C:4506H         LINE#         171
  C:4506H         LINE#         172
  C:4508H         LINE#         173
  C:4508H         LINE#         174
  C:4511H         LINE#         175
  C:4511H         LINE#         176
  C:4515H         LINE#         177
  C:4515H         LINE#         178
  C:451EH         LINE#         179
  C:451EH         LINE#         180
  C:4522H         LINE#         181
  C:4522H         LINE#         182
  C:4524H         LINE#         183
  C:4542H         LINE#         184
  C:4563H         LINE#         185
  C:4563H         LINE#         186
  C:4566H         LINE#         187
  C:456EH         LINE#         188
  C:456EH         LINE#         189
  C:4577H         LINE#         190
  C:4577H         LINE#         191
BL51 BANKED LINKER/LOCATER V6.00                                                      08/02/2017  18:22:39  PAGE 82


  C:457BH         LINE#         192
  C:457BH         LINE#         193
  C:4584H         LINE#         194
  C:4584H         LINE#         195
  C:4588H         LINE#         196
  C:4588H         LINE#         197
  C:458AH         LINE#         198
  C:45A8H         LINE#         199
  C:45C9H         LINE#         200
  C:45C9H         LINE#         201
  C:45CBH         LINE#         202
  C:45D3H         LINE#         203
  C:45D3H         LINE#         204
  C:45DCH         LINE#         205
  C:45DCH         LINE#         206
  C:45E0H         LINE#         207
  C:45E0H         LINE#         208
  C:45E9H         LINE#         209
  C:45E9H         LINE#         210
  C:45EDH         LINE#         211
  C:45EDH         LINE#         212
  C:45EFH         LINE#         213
  C:460DH         LINE#         214
  C:4633H         LINE#         215
  C:4635H         LINE#         216
  C:4635H         LINE#         217
  -------         ENDPROC       _PWMOUTPUT
  -------         PROC          PCA_HANDLER
  C:52C8H         LINE#         225
  C:52D7H         LINE#         227
  C:52DAH         LINE#         228
  C:52DAH         LINE#         229
  C:52DCH         LINE#         230
  C:52DFH         LINE#         231
  C:52DFH         LINE#         232
  C:52E2H         LINE#         233
  C:52E4H         LINE#         235
  C:52E4H         LINE#         236
  C:52F8H         LINE#         237
  C:52F8H         LINE#         238
  C:5301H         LINE#         239
  C:5304H         LINE#         240
  C:5304H         LINE#         241
  C:5307H         LINE#         242
  C:5307H         LINE#         243
  C:5309H         LINE#         244
  C:530CH         LINE#         245
  C:530CH         LINE#         246
  C:530FH         LINE#         247
  C:5311H         LINE#         249
  C:5311H         LINE#         250
  C:5325H         LINE#         251
  C:5325H         LINE#         252
  C:532EH         LINE#         253
  C:5331H         LINE#         254
  C:5331H         LINE#         255
  C:5334H         LINE#         256
BL51 BANKED LINKER/LOCATER V6.00                                                      08/02/2017  18:22:39  PAGE 83


  C:5334H         LINE#         257
  C:5336H         LINE#         258
  C:5339H         LINE#         259
  C:5339H         LINE#         260
  C:533CH         LINE#         261
  C:533EH         LINE#         263
  C:533EH         LINE#         264
  C:5352H         LINE#         265
  C:5352H         LINE#         266
  C:535BH         LINE#         267
  C:535EH         LINE#         268
  C:535EH         LINE#         274
  -------         ENDPROC       PCA_HANDLER
  -------         ENDMOD        PCA

  -------         MODULE        STC15_PWM
  C:0000H         SYMBOL        _ICE_DUMMY_
  C:6D4CH         PUBLIC        _get_PWM_period
  D:0080H         PUBLIC        P0
  C:54A4H         SYMBOL        _PWM_SET_T12_PERIOD
  D:0090H         PUBLIC        P1
  D:00A0H         PUBLIC        P2
  D:00B0H         PUBLIC        P3
  D:00C0H         PUBLIC        P4
  D:00C8H         PUBLIC        P5
  D:00E8H         PUBLIC        P6
  D:00F8H         PUBLIC        P7
  C:6F9BH         PUBLIC        _setPWM_DIV
  C:5B6BH         PUBLIC        _set_PWM_period
  D:00F5H         PUBLIC        PWMCR
  D:00BAH         PUBLIC        P_SW2
  D:00A8H         PUBLIC        IE
  D:00F7H         PUBLIC        PWMFDCR
  D:00B8H         PUBLIC        IP
  C:67E5H         PUBLIC        _close_PWM_N
  D:00D8H         PUBLIC        CCON
  C:70C8H         PUBLIC        close_PWM_ALL
  C:28F7H         PUBLIC        _PWM_Inilize
  X:04A5H         SYMBOL        PWM_N_INFO
  D:0098H         PUBLIC        SCON
  D:0088H         PUBLIC        TCON
  C:65EDH         PUBLIC        _open_PWM_N
  D:00F0H         PUBLIC        B
  C:70BEH         PUBLIC        open_PWM_ALL
  D:00F1H         PUBLIC        PWMCFG
  D:00E0H         PUBLIC        ACC
  C:6F34H         PUBLIC        _get_PWM_N_state
  C:4CFAH         PUBLIC        _set_PWM_duty
  C:6A5BH         SYMBOL        _PWM_SET_PERIOD
  C:6D66H         PUBLIC        _get_PWM_N_duty
  D:00D0H         PUBLIC        PSW
  C:6FACH         PUBLIC        _getPWM_DIV
  -------         PROC          _SET_PWM_PERIOD
  D:0003H         SYMBOL        PWM_N
  X:0768H         SYMBOL        Hz
  C:5B6BH         LINE#         51
  C:5B75H         LINE#         52
BL51 BANKED LINKER/LOCATER V6.00                                                      08/02/2017  18:22:39  PAGE 84


  C:5B75H         LINE#         53
  C:5B91H         LINE#         54
  C:5B94H         LINE#         55
  C:5B97H         LINE#         56
  C:5BC8H         LINE#         59
  C:5BCBH         LINE#         62
  -------         ENDPROC       _SET_PWM_PERIOD
  -------         PROC          _GET_PWM_PERIOD
  D:0007H         SYMBOL        PWM_N
  C:6D4CH         LINE#         72
  C:6D4CH         LINE#         73
  C:6D4CH         LINE#         74
  C:6D65H         LINE#         75
  -------         ENDPROC       _GET_PWM_PERIOD
  -------         PROC          _SET_PWM_DUTY
  X:0731H         SYMBOL        PWM_N
  X:0732H         SYMBOL        duty
  C:4CFAH         LINE#         89
  C:4CFFH         LINE#         90
  C:4CFFH         LINE#         91
  C:4D1AH         LINE#         92
  C:4D1AH         LINE#         93
  C:4D24H         LINE#         94
  C:4D24H         LINE#         95
  C:4D3FH         LINE#         96
  C:4D3FH         LINE#         97
  C:4D49H         LINE#         98
  C:4D49H         LINE#         99
  C:4D6CH         LINE#         100
  C:4D6FH         LINE#         101
  C:4DDAH         LINE#         104
  C:4DDDH         LINE#         105
  -------         ENDPROC       _SET_PWM_DUTY
  -------         PROC          _GET_PWM_N_DUTY
  D:0007H         SYMBOL        PWM_N
  C:6D66H         LINE#         114
  C:6D66H         LINE#         115
  C:6D66H         LINE#         116
  C:6D7FH         LINE#         117
  -------         ENDPROC       _GET_PWM_N_DUTY
  -------         PROC          _SETPWM_DIV
  D:0007H         SYMBOL        PWM_N
  D:0005H         SYMBOL        DIV
  C:6F9BH         LINE#         128
  C:6F9BH         LINE#         129
  C:6F9BH         LINE#         130
  C:6FABH         LINE#         131
  -------         ENDPROC       _SETPWM_DIV
  -------         PROC          _GETPWM_DIV
  D:0007H         SYMBOL        PWM_N
  C:6FACH         LINE#         140
  C:6FACH         LINE#         141
  C:6FACH         LINE#         142
  C:6FBCH         LINE#         143
  -------         ENDPROC       _GETPWM_DIV
  -------         PROC          OPEN_PWM_ALL
  C:70BEH         LINE#         152
BL51 BANKED LINKER/LOCATER V6.00                                                      08/02/2017  18:22:39  PAGE 85


  C:70BEH         LINE#         153
  C:70BEH         LINE#         154
  C:70C1H         LINE#         155
  C:70C4H         LINE#         156
  C:70C7H         LINE#         157
  -------         ENDPROC       OPEN_PWM_ALL
  -------         PROC          CLOSE_PWM_ALL
  C:70C8H         LINE#         166
  C:70C8H         LINE#         167
  C:70C8H         LINE#         168
  C:70CBH         LINE#         169
  C:70CEH         LINE#         170
  C:70D1H         LINE#         172
  -------         ENDPROC       CLOSE_PWM_ALL
  -------         PROC          _OPEN_PWM_N
  D:0007H         SYMBOL        PWM_N
  C:65EDH         LINE#         181
  C:65EDH         LINE#         182
  C:65EDH         LINE#         183
  C:65F0H         LINE#         184
  C:65FDH         LINE#         185
  C:660EH         LINE#         186
  C:6611H         LINE#         187
  C:6614H         LINE#         190
  -------         ENDPROC       _OPEN_PWM_N
  -------         PROC          _CLOSE_PWM_N
  D:0007H         SYMBOL        PWM_N
  C:67E5H         LINE#         199
  C:67E5H         LINE#         200
  C:67E5H         LINE#         201
  C:67E8H         LINE#         202
  C:67F6H         LINE#         203
  C:6806H         LINE#         204
  C:6809H         LINE#         206
  -------         ENDPROC       _CLOSE_PWM_N
  -------         PROC          _GET_PWM_N_STATE
  D:0007H         SYMBOL        PWM_N
  C:6F34H         LINE#         215
  C:6F34H         LINE#         216
  C:6F34H         LINE#         218
  C:6F45H         LINE#         219
  -------         ENDPROC       _GET_PWM_N_STATE
  -------         PROC          _PWM_INILIZE
  X:076AH         SYMBOL        PWM_N
  D:0001H         SYMBOL        PWMx
  -------         DO            
  X:076BH         SYMBOL        i
  -------         ENDDO         
  C:28F7H         LINE#         227
  C:28FCH         LINE#         228
  C:28FCH         LINE#         229
  C:28FFH         LINE#         230
  C:2909H         LINE#         231
  C:2909H         LINE#         232
  C:291EH         LINE#         233
  C:2932H         LINE#         234
  C:2947H         LINE#         235
BL51 BANKED LINKER/LOCATER V6.00                                                      08/02/2017  18:22:39  PAGE 86


  C:295BH         LINE#         236
  C:2963H         LINE#         238
  C:2966H         LINE#         239
  C:296CH         LINE#         240
  C:296CH         LINE#         241
  C:296FH         LINE#         242
  C:2971H         LINE#         244
  C:2971H         LINE#         245
  C:2974H         LINE#         246
  C:2974H         LINE#         247
  C:297DH         LINE#         248
  C:297DH         LINE#         249
  C:298FH         LINE#         250
  C:2991H         LINE#         252
  C:2991H         LINE#         253
  C:29A4H         LINE#         254
  C:29A4H         LINE#         255
  C:29ADH         LINE#         256
  C:29ADH         LINE#         257
  C:29B0H         LINE#         258
  C:29B2H         LINE#         260
  C:29B2H         LINE#         261
  C:29B5H         LINE#         262
  C:29B5H         LINE#         263
  C:29BEH         LINE#         264
  C:29BEH         LINE#         265
  C:29D0H         LINE#         266
  C:29D2H         LINE#         268
  C:29D2H         LINE#         269
  C:29E5H         LINE#         270
  C:29E5H         LINE#         271
  C:29EEH         LINE#         272
  C:29EEH         LINE#         273
  C:29F1H         LINE#         274
  C:29F3H         LINE#         276
  C:29F3H         LINE#         277
  C:29F6H         LINE#         278
  C:29F6H         LINE#         279
  C:29FFH         LINE#         280
  C:29FFH         LINE#         281
  C:2A02H         LINE#         282
  C:2A04H         LINE#         284
  C:2A04H         LINE#         285
  C:2A07H         LINE#         286
  C:2A07H         LINE#         287
  C:2A10H         LINE#         288
  C:2A10H         LINE#         289
  C:2A13H         LINE#         290
  C:2A15H         LINE#         292
  C:2A15H         LINE#         293
  C:2A18H         LINE#         294
  C:2A18H         LINE#         295
  C:2A21H         LINE#         296
  C:2A21H         LINE#         297
  C:2A24H         LINE#         298
  C:2A26H         LINE#         300
  C:2A26H         LINE#         301
BL51 BANKED LINKER/LOCATER V6.00                                                      08/02/2017  18:22:39  PAGE 87


  C:2A29H         LINE#         302
  C:2A29H         LINE#         303
  C:2A32H         LINE#         304
  C:2A32H         LINE#         305
  C:2A35H         LINE#         306
  C:2A37H         LINE#         308
  C:2A37H         LINE#         309
  C:2A3AH         LINE#         310
  C:2A3AH         LINE#         312
  C:2A45H         LINE#         313
  C:2A45H         LINE#         314
  C:2A49H         LINE#         315
  C:2A4BH         LINE#         317
  C:2A4BH         LINE#         318
  C:2A4FH         LINE#         319
  C:2A4FH         LINE#         321
  C:2A66H         LINE#         322
  C:2A8CH         LINE#         323
  C:2A8CH         LINE#         324
  C:2A8CH         LINE#         325
  C:2A8CH         LINE#         326
  C:2A97H         LINE#         327
  C:2A97H         LINE#         328
  C:2A9BH         LINE#         329
  C:2A9DH         LINE#         331
  C:2A9DH         LINE#         332
  C:2AA1H         LINE#         333
  C:2AA1H         LINE#         334
  C:2AADH         LINE#         335
  C:2AADH         LINE#         336
  C:2AB1H         LINE#         337
  C:2AB3H         LINE#         339
  C:2AB3H         LINE#         340
  C:2AB7H         LINE#         341
  C:2AB7H         LINE#         342
  C:2AC3H         LINE#         343
  C:2AC3H         LINE#         344
  C:2AC7H         LINE#         345
  C:2AC9H         LINE#         347
  C:2AC9H         LINE#         348
  C:2ACDH         LINE#         349
  C:2ACDH         LINE#         350
  C:2AD9H         LINE#         351
  C:2AD9H         LINE#         352
  C:2AD9H         LINE#         353
  C:2ADCH         LINE#         355
  C:2ADCH         LINE#         356
  C:2ADCH         LINE#         357
  C:2ADCH         LINE#         358
  C:2ADCH         LINE#         359
  C:2ADFH         LINE#         360
  C:2ADFH         LINE#         361
  C:2ADFH         LINE#         362
  C:2AEAH         LINE#         363
  C:2AEAH         LINE#         364
  C:2AEEH         LINE#         365
  C:2AF0H         LINE#         367
BL51 BANKED LINKER/LOCATER V6.00                                                      08/02/2017  18:22:39  PAGE 88


  C:2AF0H         LINE#         368
  C:2AF4H         LINE#         369
  C:2AF4H         LINE#         370
  C:2B00H         LINE#         371
  C:2B00H         LINE#         372
  C:2B04H         LINE#         373
  C:2B06H         LINE#         375
  C:2B06H         LINE#         376
  C:2B0AH         LINE#         377
  C:2B0AH         LINE#         378
  C:2B16H         LINE#         379
  C:2B16H         LINE#         380
  C:2B1AH         LINE#         381
  C:2B1CH         LINE#         383
  C:2B1CH         LINE#         384
  C:2B20H         LINE#         385
  C:2B20H         LINE#         386
  C:2B2CH         LINE#         387
  C:2B2CH         LINE#         388
  C:2B2CH         LINE#         389
  C:2B2FH         LINE#         391
  C:2B2FH         LINE#         392
  C:2B2FH         LINE#         393
  C:2B2FH         LINE#         394
  C:2B2FH         LINE#         395
  C:2B32H         LINE#         396
  C:2B32H         LINE#         397
  C:2B32H         LINE#         398
  C:2B3DH         LINE#         399
  C:2B3DH         LINE#         400
  C:2B41H         LINE#         401
  C:2B43H         LINE#         403
  C:2B43H         LINE#         404
  C:2B47H         LINE#         405
  C:2B47H         LINE#         406
  C:2B53H         LINE#         407
  C:2B53H         LINE#         408
  C:2B57H         LINE#         409
  C:2B59H         LINE#         411
  C:2B59H         LINE#         412
  C:2B5DH         LINE#         413
  C:2B5DH         LINE#         414
  C:2B69H         LINE#         415
  C:2B69H         LINE#         416
  C:2B6DH         LINE#         417
  C:2B6FH         LINE#         419
  C:2B6FH         LINE#         420
  C:2B73H         LINE#         421
  C:2B73H         LINE#         422
  C:2B7FH         LINE#         423
  C:2B7FH         LINE#         424
  C:2B7FH         LINE#         425
  C:2B82H         LINE#         427
  C:2B82H         LINE#         428
  C:2B82H         LINE#         429
  C:2B82H         LINE#         430
  C:2B82H         LINE#         431
BL51 BANKED LINKER/LOCATER V6.00                                                      08/02/2017  18:22:39  PAGE 89


  C:2B85H         LINE#         432
  C:2B85H         LINE#         433
  C:2B85H         LINE#         434
  C:2B90H         LINE#         435
  C:2B90H         LINE#         436
  C:2B94H         LINE#         437
  C:2B96H         LINE#         439
  C:2B96H         LINE#         440
  C:2B9AH         LINE#         441
  C:2B9AH         LINE#         442
  C:2BA6H         LINE#         443
  C:2BA6H         LINE#         444
  C:2BAAH         LINE#         445
  C:2BACH         LINE#         447
  C:2BACH         LINE#         448
  C:2BB0H         LINE#         449
  C:2BB0H         LINE#         450
  C:2BBCH         LINE#         451
  C:2BBCH         LINE#         452
  C:2BC0H         LINE#         453
  C:2BC2H         LINE#         455
  C:2BC2H         LINE#         456
  C:2BC6H         LINE#         457
  C:2BC6H         LINE#         458
  C:2BD2H         LINE#         459
  C:2BD2H         LINE#         460
  C:2BD2H         LINE#         461
  C:2BD5H         LINE#         463
  C:2BD5H         LINE#         464
  C:2BD5H         LINE#         465
  C:2BD5H         LINE#         466
  C:2BD5H         LINE#         467
  C:2BD8H         LINE#         468
  C:2BD8H         LINE#         469
  C:2BD8H         LINE#         470
  C:2BE3H         LINE#         471
  C:2BE3H         LINE#         472
  C:2BE7H         LINE#         473
  C:2BE9H         LINE#         475
  C:2BE9H         LINE#         476
  C:2BEDH         LINE#         477
  C:2BEDH         LINE#         478
  C:2BF9H         LINE#         479
  C:2BF9H         LINE#         480
  C:2BFDH         LINE#         481
  C:2BFFH         LINE#         483
  C:2BFFH         LINE#         484
  C:2C03H         LINE#         485
  C:2C03H         LINE#         486
  C:2C0FH         LINE#         487
  C:2C0FH         LINE#         488
  C:2C13H         LINE#         489
  C:2C15H         LINE#         491
  C:2C15H         LINE#         492
  C:2C19H         LINE#         493
  C:2C19H         LINE#         494
  C:2C25H         LINE#         495
BL51 BANKED LINKER/LOCATER V6.00                                                      08/02/2017  18:22:39  PAGE 90


  C:2C25H         LINE#         496
  C:2C25H         LINE#         497
  C:2C27H         LINE#         499
  C:2C27H         LINE#         500
  C:2C27H         LINE#         501
  C:2C27H         LINE#         502
  C:2C27H         LINE#         503
  C:2C29H         LINE#         504
  C:2C29H         LINE#         505
  C:2C29H         LINE#         506
  C:2C34H         LINE#         507
  C:2C34H         LINE#         508
  C:2C38H         LINE#         509
  C:2C3AH         LINE#         511
  C:2C3AH         LINE#         512
  C:2C3EH         LINE#         513
  C:2C3EH         LINE#         514
  C:2C4AH         LINE#         515
  C:2C4AH         LINE#         516
  C:2C4EH         LINE#         517
  C:2C50H         LINE#         519
  C:2C50H         LINE#         520
  C:2C54H         LINE#         521
  C:2C54H         LINE#         522
  C:2C60H         LINE#         523
  C:2C60H         LINE#         524
  C:2C64H         LINE#         525
  C:2C66H         LINE#         527
  C:2C66H         LINE#         528
  C:2C6AH         LINE#         529
  C:2C6AH         LINE#         530
  C:2C76H         LINE#         531
  C:2C76H         LINE#         532
  C:2C7AH         LINE#         533
  C:2C7CH         LINE#         535
  C:2C7CH         LINE#         536
  C:2C80H         LINE#         537
  C:2C80H         LINE#         538
  C:2C80H         LINE#         539
  C:2C80H         LINE#         540
  C:2C80H         LINE#         542
  C:2C80H         LINE#         543
  C:2C80H         LINE#         544
  C:2C89H         LINE#         545
  C:2C89H         LINE#         546
  C:2C8CH         LINE#         547
  C:2C8DH         LINE#         549
  C:2C8DH         LINE#         550
  C:2C90H         LINE#         551
  C:2C90H         LINE#         552
  -------         ENDPROC       _PWM_INILIZE
  -------         PROC          _PWM_SET_PERIOD
  D:0006H         SYMBOL        period
  C:6A5BH         LINE#         563
  C:6A5BH         LINE#         564
  C:6A5BH         LINE#         565
  C:6A66H         LINE#         566
BL51 BANKED LINKER/LOCATER V6.00                                                      08/02/2017  18:22:39  PAGE 91


  C:6A66H         LINE#         567
  C:6A68H         LINE#         568
  C:6A6DH         LINE#         569
  C:6A70H         LINE#         570
  C:6A70H         LINE#         572
  C:6A70H         LINE#         573
  C:6A73H         LINE#         574
  C:6A79H         LINE#         575
  C:6A79H         LINE#         576
  -------         ENDPROC       _PWM_SET_PERIOD
  -------         PROC          _PWM_SET_T12_PERIOD
  D:0007H         SYMBOL        PWM_N
  D:0004H         SYMBOL        period1
  D:0002H         SYMBOL        period2
  C:54A4H         LINE#         589
  C:54A4H         LINE#         590
  C:54A4H         LINE#         591
  C:54BBH         LINE#         592
  C:54BBH         LINE#         593
  C:54BBH         LINE#         594
  C:54C0H         LINE#         595
  C:54C5H         LINE#         596
  C:54CAH         LINE#         597
  C:54CEH         LINE#         598
  C:54D0H         LINE#         599
  C:54D0H         LINE#         600
  C:54D0H         LINE#         601
  C:54D5H         LINE#         602
  C:54DAH         LINE#         603
  C:54DFH         LINE#         604
  C:54E3H         LINE#         605
  C:54E5H         LINE#         606
  C:54E5H         LINE#         607
  C:54E5H         LINE#         608
  C:54EAH         LINE#         609
  C:54EFH         LINE#         610
  C:54F4H         LINE#         611
  C:54F8H         LINE#         612
  C:54FAH         LINE#         613
  C:54FAH         LINE#         614
  C:54FAH         LINE#         615
  C:54FFH         LINE#         616
  C:5504H         LINE#         617
  C:5509H         LINE#         618
  C:550DH         LINE#         619
  C:550FH         LINE#         620
  C:550FH         LINE#         621
  C:550FH         LINE#         622
  C:5514H         LINE#         623
  C:5519H         LINE#         624
  C:551EH         LINE#         625
  C:5522H         LINE#         626
  C:5524H         LINE#         627
  C:5524H         LINE#         628
  C:5524H         LINE#         629
  C:5529H         LINE#         630
  C:552EH         LINE#         631
BL51 BANKED LINKER/LOCATER V6.00                                                      08/02/2017  18:22:39  PAGE 92


  C:5533H         LINE#         632
  C:5538H         LINE#         633
  C:553BH         LINE#         634
  C:553BH         LINE#         635
  C:553BH         LINE#         636
  C:553DH         LINE#         637
  C:553DH         LINE#         638
  C:553DH         LINE#         639
  -------         ENDPROC       _PWM_SET_T12_PERIOD
  -------         ENDMOD        STC15_PWM

  -------         MODULE        STC15_SPI
  C:0000H         SYMBOL        _ICE_DUMMY_
  D:0080H         PUBLIC        P0
  D:0090H         PUBLIC        P1
  C:5D41H         PUBLIC        SPI_Transivion
  D:00A0H         PUBLIC        P2
  C:709FH         PUBLIC        _SPI_SetMode
  D:00B0H         PUBLIC        P3
  D:00C0H         PUBLIC        P4
  D:00C8H         PUBLIC        P5
  D:00E8H         PUBLIC        P6
  D:00F8H         PUBLIC        P7
  D:00CEH         PUBLIC        SPCTL
  D:00A8H         PUBLIC        IE
  X:0742H         SYMBOL        SPI_RxRead
  X:0743H         SYMBOL        SPI_TxRead
  D:00B8H         PUBLIC        IP
  C:6E55H         PUBLIC        _SPI_WriteByteToTxBuf
  D:00D8H         PUBLIC        CCON
  X:0744H         SYMBOL        SPI_RxWrite
  X:0745H         SYMBOL        SPI_TxWrite
  C:66B4H         PUBLIC        SPI_TrigTx
  D:0098H         PUBLIC        SCON
  D:0088H         PUBLIC        TCON
  D:00AFH         PUBLIC        IE2
  D:00F0H         PUBLIC        B
  D:00E0H         PUBLIC        ACC
  C:6C2DH         PUBLIC        _SPI_SPI_ReadTheNByteToRxBuf
  C:682EH         PUBLIC        SPI_SPI_ReadByteToRxBuf
  D:00CDH         PUBLIC        SPSTAT
  C:56F9H         PUBLIC        _SPI_Init
  C:6A7AH         PUBLIC        _SPI_WriteNByteToTxBuf
  D:00A2H         PUBLIC        AUXR1
  I:0023H         SYMBOL        SPI_RxBuffer
  I:0043H         SYMBOL        SPI_TxBuffer
  D:00D0H         PUBLIC        PSW
  D:00CFH         PUBLIC        SPDAT
  -------         PROC          _SPI_INIT
  D:0001H         SYMBOL        SPIx
  C:56F9H         LINE#         52
  C:56F9H         LINE#         53
  C:56F9H         LINE#         54
  C:5702H         LINE#         55
  C:5702H         LINE#         56
  C:5705H         LINE#         57
  C:5707H         LINE#         59
BL51 BANKED LINKER/LOCATER V6.00                                                      08/02/2017  18:22:39  PAGE 93


  C:5707H         LINE#         60
  C:570AH         LINE#         61
  C:570AH         LINE#         62
  C:5710H         LINE#         63
  C:5710H         LINE#         64
  C:5713H         LINE#         65
  C:5715H         LINE#         67
  C:5715H         LINE#         68
  C:5718H         LINE#         69
  C:5718H         LINE#         70
  C:5721H         LINE#         71
  C:5721H         LINE#         72
  C:5724H         LINE#         73
  C:5726H         LINE#         75
  C:5726H         LINE#         76
  C:5729H         LINE#         77
  C:5729H         LINE#         78
  C:5731H         LINE#         79
  C:5731H         LINE#         80
  C:5734H         LINE#         81
  C:5736H         LINE#         83
  C:5736H         LINE#         84
  C:5739H         LINE#         85
  C:5739H         LINE#         86
  C:5742H         LINE#         87
  C:5742H         LINE#         88
  C:5745H         LINE#         89
  C:5747H         LINE#         91
  C:5747H         LINE#         92
  C:574AH         LINE#         93
  C:574AH         LINE#         94
  C:5752H         LINE#         95
  C:5752H         LINE#         96
  C:5755H         LINE#         97
  C:5757H         LINE#         99
  C:5757H         LINE#         100
  C:575AH         LINE#         101
  C:575AH         LINE#         102
  C:5763H         LINE#         103
  C:5763H         LINE#         104
  C:5766H         LINE#         105
  C:5768H         LINE#         107
  C:5768H         LINE#         108
  C:576BH         LINE#         109
  C:576BH         LINE#         110
  C:577BH         LINE#         111
  C:5789H         LINE#         112
  -------         ENDPROC       _SPI_INIT
  -------         PROC          _SPI_SETMODE
  D:0007H         SYMBOL        mode
  C:709FH         LINE#         118
  C:709FH         LINE#         119
  C:709FH         LINE#         120
  C:70A2H         LINE#         121
  C:70A2H         LINE#         122
  C:70A5H         LINE#         123
  C:70A6H         LINE#         125
BL51 BANKED LINKER/LOCATER V6.00                                                      08/02/2017  18:22:39  PAGE 94


  C:70A6H         LINE#         126
  C:70A9H         LINE#         127
  C:70A9H         LINE#         128
  -------         ENDPROC       _SPI_SETMODE
  -------         PROC          _SPI_WRITEBYTETOTXBUF
  D:0007H         SYMBOL        dat
  C:6E55H         LINE#         133
  C:6E55H         LINE#         134
  C:6E55H         LINE#         135
  C:6E5EH         LINE#         136
  C:6E66H         LINE#         137
  C:6E66H         LINE#         138
  C:6E68H         LINE#         139
  C:6E68H         LINE#         140
  -------         ENDPROC       _SPI_WRITEBYTETOTXBUF
  -------         PROC          _SPI_WRITENBYTETOTXBUF
  D:0001H         SYMBOL        sp
  D:0005H         SYMBOL        num
  -------         DO            
  D:0006H         SYMBOL        i
  D:0001H         SYMBOL        spp
  -------         ENDDO         
  C:6A7AH         LINE#         147
  C:6A7AH         LINE#         148
  C:6A7AH         LINE#         149
  C:6A7AH         LINE#         150
  C:6A7AH         LINE#         151
  C:6A80H         LINE#         152
  C:6A80H         LINE#         154
  C:6A80H         LINE#         156
  C:6A80H         LINE#         157
  C:6A87H         LINE#         158
  C:6A87H         LINE#         159
  C:6A8EH         LINE#         160
  C:6A95H         LINE#         161
  C:6A98H         LINE#         162
  C:6A98H         LINE#         163
  -------         ENDPROC       _SPI_WRITENBYTETOTXBUF
  -------         PROC          SPI_TRIGTX
  -------         DO            
  D:0007H         SYMBOL        i
  -------         ENDDO         
  C:66B4H         LINE#         167
  C:66B4H         LINE#         168
  C:66B4H         LINE#         170
  C:66C0H         LINE#         171
  C:66C0H         LINE#         173
  C:66C0H         LINE#         175
  C:66C0H         LINE#         176
  C:66C5H         LINE#         177
  C:66CEH         LINE#         178
  C:66D6H         LINE#         179
  C:66D6H         LINE#         180
  C:66D8H         LINE#         181
  C:66D8H         LINE#         182
  C:66DAH         LINE#         183
  C:66DAH         LINE#         184
BL51 BANKED LINKER/LOCATER V6.00                                                      08/02/2017  18:22:39  PAGE 95


  -------         ENDPROC       SPI_TRIGTX
  -------         PROC          SPI_SPI_READBYTETORXBUF
  -------         DO            
  D:0007H         SYMBOL        dat
  -------         ENDDO         
  C:682EH         LINE#         190
  C:682EH         LINE#         191
  C:682EH         LINE#         193
  C:683BH         LINE#         194
  C:683BH         LINE#         195
  C:683EH         LINE#         196
  C:683EH         LINE#         198
  C:683EH         LINE#         199
  C:6844H         LINE#         200
  C:684FH         LINE#         201
  C:684FH         LINE#         202
  C:6851H         LINE#         203
  C:6851H         LINE#         204
  C:6851H         LINE#         205
  C:6851H         LINE#         206
  -------         ENDPROC       SPI_SPI_READBYTETORXBUF
  -------         PROC          _SPI_SPI_READTHENBYTETORXBUF
  D:0007H         SYMBOL        num
  -------         DO            
  D:0005H         SYMBOL        i
  D:0007H         SYMBOL        dat
  -------         ENDDO         
  C:6C2DH         LINE#         213
  C:6C2DH         LINE#         214
  C:6C2DH         LINE#         215
  C:6C2FH         LINE#         217
  C:6C35H         LINE#         218
  C:6C35H         LINE#         219
  C:6C38H         LINE#         220
  C:6C38H         LINE#         222
  C:6C38H         LINE#         223
  C:6C3EH         LINE#         224
  C:6C3EH         LINE#         225
  C:6C41H         LINE#         226
  C:6C42H         LINE#         227
  C:6C44H         LINE#         228
  C:6C47H         LINE#         229
  C:6C47H         LINE#         230
  C:6C47H         LINE#         231
  -------         ENDPROC       _SPI_SPI_READTHENBYTETORXBUF
  -------         PROC          SPI_TRANSIVION
  C:5D41H         LINE#         235
  C:5D52H         LINE#         237
  C:5D5FH         LINE#         238
  C:5D5FH         LINE#         240
  C:5D66H         LINE#         241
  C:5D6EH         LINE#         242
  C:5D6EH         LINE#         243
  C:5D70H         LINE#         244
  C:5D70H         LINE#         245
  C:5D77H         LINE#         246
  C:5D82H         LINE#         247
BL51 BANKED LINKER/LOCATER V6.00                                                      08/02/2017  18:22:39  PAGE 96


  C:5D82H         LINE#         248
  C:5D84H         LINE#         249
  C:5D84H         LINE#         250
  C:5D84H         LINE#         251
  C:5D87H         LINE#         252
  -------         ENDPROC       SPI_TRANSIVION
  -------         ENDMOD        STC15_SPI

  -------         MODULE        TIMER
  C:0000H         SYMBOL        _ICE_DUMMY_
  D:0080H         PUBLIC        P0
  D:0090H         PUBLIC        P1
  D:00A0H         PUBLIC        P2
  D:00B0H         PUBLIC        P3
  D:00C0H         PUBLIC        P4
  D:00C8H         PUBLIC        P5
  C:5F6FH         SYMBOL        timer4_int
  D:00E8H         PUBLIC        P6
  D:00F8H         PUBLIC        P7
  X:05C8H         SYMBOL        minutes
  X:05C9H         SYMBOL        millis
  D:00A8H         PUBLIC        IE
  C:6E2CH         PUBLIC        _restartTimer
  X:05CBH         SYMBOL        micros
  C:714FH         PUBLIC        getSeconds
  D:00B8H         PUBLIC        IP
  C:6D80H         PUBLIC        _getTimerout
  D:00D8H         PUBLIC        CCON
  C:7155H         PUBLIC        getMinutes
  C:712CH         PUBLIC        getMillis
  X:05CDH         SYMBOL        days
  C:7123H         PUBLIC        getMicros
  X:05CEH         SYMBOL        hours
  D:0098H         PUBLIC        SCON
  D:0089H         PUBLIC        TMOD
  D:0088H         PUBLIC        TCON
  C:6AB8H         PUBLIC        _isExpiredTimer
  X:05CFH         PUBLIC        Timer1_state
  C:659CH         PUBLIC        _setTimeout
  X:05D0H         PUBLIC        Timer2_state
  C:5BCCH         PUBLIC        timerInit
  C:3516H         SYMBOL        _Timer_Inilize
  D:00AFH         PUBLIC        IE2
  C:6B6AH         PUBLIC        _isStopped
  D:00F0H         PUBLIC        B
  D:008EH         PUBLIC        AUXR
  C:6A99H         PUBLIC        _isActiveTimer
  D:00E0H         PUBLIC        ACC
  B:00A8H.1       PUBLIC        ET0
  B:00A8H.3       PUBLIC        ET1
  D:008CH         PUBLIC        TH0
  C:7045H         PUBLIC        _onRestartTimer
  C:707AH         PUBLIC        _stopTimer
  D:008DH         PUBLIC        TH1
  X:05D1H         SYMBOL        Timer1_temp
  D:00D6H         PUBLIC        TH2
  X:05D3H         SYMBOL        Timer2_temp
BL51 BANKED LINKER/LOCATER V6.00                                                      08/02/2017  18:22:39  PAGE 97


  D:00D4H         PUBLIC        TH3
  D:00D2H         PUBLIC        TH4
  D:008AH         PUBLIC        TL0
  D:008BH         PUBLIC        TL1
  D:00D7H         PUBLIC        TL2
  D:00D5H         PUBLIC        TL3
  B:00B8H.1       PUBLIC        PT0
  D:00D3H         PUBLIC        TL4
  C:7161H         PUBLIC        getDays
  B:00B8H.3       PUBLIC        PT1
  C:715BH         PUBLIC        getHours
  B:0088H.4       PUBLIC        TR0
  C:6D9AH         PUBLIC        _getTimerHertz
  B:0088H.6       PUBLIC        TR1
  D:00D1H         PUBLIC        T4T3M
  X:05D5H         PUBLIC        timer1_struct
  X:05D9H         PUBLIC        timer2_struct
  C:6BDBH         PUBLIC        _setTimerHertz
  X:05DDH         SYMBOL        seconds
  D:008FH         PUBLIC        INT_CLKO
  D:00D0H         PUBLIC        PSW
  -------         PROC          TIMERINIT
  -------         DO            
  X:0333H         SYMBOL        USER_Timer
  X:033BH         SYMBOL        Pulser_1_Timer
  X:0343H         SYMBOL        Pulser_2_Timer
  X:034BH         SYMBOL        Error_Code
  -------         ENDDO         
  C:5BCCH         LINE#         87
  C:5BCCH         LINE#         88
  C:5BCCH         LINE#         92
  C:5BD1H         LINE#         95
  C:5BD5H         LINE#         96
  C:5BD8H         LINE#         97
  C:5BDAH         LINE#         98
  C:5BDDH         LINE#         99
  C:5BDFH         LINE#         100
  C:5BE3H         LINE#         101
  C:5BEDH         LINE#         103
  C:5BF2H         LINE#         104
  C:5BF5H         LINE#         105
  C:5BF7H         LINE#         106
  C:5BF9H         LINE#         108
  C:5BFEH         LINE#         111
  C:5C00H         LINE#         112
  C:5C03H         LINE#         113
  C:5C05H         LINE#         114
  C:5C07H         LINE#         116
  C:5C0CH         LINE#         117
  C:5C17H         LINE#         118
  C:5C22H         LINE#         119
  -------         ENDPROC       TIMERINIT
  -------         PROC          _SETTIMEOUT
  D:0007H         SYMBOL        whichTimer
  D:0004H         SYMBOL        time
  C:659CH         LINE#         175
  C:659CH         LINE#         176
BL51 BANKED LINKER/LOCATER V6.00                                                      08/02/2017  18:22:39  PAGE 98


  C:659CH         LINE#         177
  C:65AAH         LINE#         178
  C:65AAH         LINE#         179
  C:65B2H         LINE#         180
  C:65B2H         LINE#         182
  C:65B2H         LINE#         183
  C:65B2H         LINE#         184
  C:65BAH         LINE#         188
  C:65BAH         LINE#         189
  C:65BAH         LINE#         190
  C:65BAH         LINE#         191
  C:65C4H         LINE#         192
  C:65C4H         LINE#         193
  C:65C4H         LINE#         194
  C:65C4H         LINE#         195
  C:65C4H         LINE#         196
  C:65C4H         LINE#         197
  -------         ENDPROC       _SETTIMEOUT
  -------         PROC          _GETTIMEROUT
  D:0007H         SYMBOL        whichTimer
  C:6D80H         LINE#         206
  C:6D80H         LINE#         207
  C:6D80H         LINE#         208
  C:6D88H         LINE#         209
  C:6D88H         LINE#         211
  C:6D88H         LINE#         212
  C:6D88H         LINE#         213
  C:6D8DH         LINE#         214
  C:6D8DH         LINE#         215
  C:6D8DH         LINE#         216
  C:6D8DH         LINE#         217
  C:6D8DH         LINE#         218
  C:6D96H         LINE#         219
  C:6D96H         LINE#         220
  C:6D96H         LINE#         222
  C:6D99H         LINE#         223
  C:6D99H         LINE#         225
  -------         ENDPROC       _GETTIMEROUT
  -------         PROC          _SETTIMERHERTZ
  D:0007H         SYMBOL        whichTimer
  D:0004H         SYMBOL        Hz
  C:6BDBH         LINE#         236
  C:6BDBH         LINE#         237
  C:6BDBH         LINE#         238
  C:6BE3H         LINE#         239
  C:6BE3H         LINE#         241
  C:6BE3H         LINE#         242
  C:6BE3H         LINE#         243
  C:6BEBH         LINE#         244
  C:6BEBH         LINE#         245
  C:6BECH         LINE#         246
  C:6BECH         LINE#         247
  C:6BECH         LINE#         248
  C:6BF6H         LINE#         249
  C:6BF6H         LINE#         250
  C:6BF6H         LINE#         252
  C:6BF6H         LINE#         255
BL51 BANKED LINKER/LOCATER V6.00                                                      08/02/2017  18:22:39  PAGE 99


  -------         ENDPROC       _SETTIMERHERTZ
  -------         PROC          _GETTIMERHERTZ
  D:0007H         SYMBOL        whichTimer
  C:6D9AH         LINE#         256
  C:6D9AH         LINE#         257
  C:6D9AH         LINE#         258
  C:6DA2H         LINE#         259
  C:6DA2H         LINE#         261
  C:6DA2H         LINE#         262
  C:6DA2H         LINE#         263
  C:6DA2H         LINE#         264
  C:6DA7H         LINE#         265
  C:6DA7H         LINE#         266
  C:6DA7H         LINE#         267
  C:6DA7H         LINE#         268
  C:6DA7H         LINE#         269
  C:6DB0H         LINE#         270
  C:6DB0H         LINE#         271
  C:6DB0H         LINE#         272
  C:6DB3H         LINE#         273
  C:6DB3H         LINE#         274
  -------         ENDPROC       _GETTIMERHERTZ
  -------         PROC          _STOPTIMER
  D:0007H         SYMBOL        whichTimer
  C:707AH         LINE#         284
  C:707AH         LINE#         285
  C:707AH         LINE#         286
  C:707EH         LINE#         287
  C:707EH         LINE#         288
  C:707EH         LINE#         289
  C:707EH         LINE#         290
  C:7081H         LINE#         291
  C:7086H         LINE#         293
  C:7086H         LINE#         294
  C:7086H         LINE#         295
  C:7086H         LINE#         296
  C:7086H         LINE#         300
  C:7086H         LINE#         301
  C:7086H         LINE#         302
  C:7086H         LINE#         304
  -------         ENDPROC       _STOPTIMER
  -------         PROC          _ISACTIVETIMER
  D:0007H         SYMBOL        whichTimer
  C:6A99H         LINE#         314
  C:6A99H         LINE#         315
  C:6A99H         LINE#         316
  C:6AA1H         LINE#         317
  C:6AA1H         LINE#         318
  C:6AA1H         LINE#         319
  C:6AA1H         LINE#         320
  C:6AACH         LINE#         322
  C:6AACH         LINE#         323
  C:6AACH         LINE#         324
  C:6AACH         LINE#         325
  C:6AB7H         LINE#         327
  C:6AB7H         LINE#         328
  C:6AB7H         LINE#         329
BL51 BANKED LINKER/LOCATER V6.00                                                      08/02/2017  18:22:39  PAGE 100


  C:6AB7H         LINE#         330
  -------         ENDPROC       _ISACTIVETIMER
  -------         PROC          _ISEXPIREDTIMER
  D:0007H         SYMBOL        whichTimer
  C:6AB8H         LINE#         340
  C:6AB8H         LINE#         341
  C:6AB8H         LINE#         342
  C:6AC0H         LINE#         343
  C:6AC0H         LINE#         344
  C:6AC0H         LINE#         345
  C:6AC0H         LINE#         346
  C:6ACBH         LINE#         347
  C:6ACBH         LINE#         348
  C:6ACBH         LINE#         349
  C:6ACBH         LINE#         350
  C:6AD6H         LINE#         351
  C:6AD6H         LINE#         352
  C:6AD6H         LINE#         353
  C:6AD6H         LINE#         356
  -------         ENDPROC       _ISEXPIREDTIMER
  -------         PROC          _ISSTOPPED
  D:0007H         SYMBOL        whichtimer
  C:6B6AH         LINE#         366
  C:6B6AH         LINE#         367
  C:6B6AH         LINE#         368
  C:6B72H         LINE#         369
  C:6B72H         LINE#         370
  C:6B72H         LINE#         371
  C:6B72H         LINE#         372
  C:6B7CH         LINE#         373
  C:6B7CH         LINE#         374
  C:6B7CH         LINE#         375
  C:6B7CH         LINE#         376
  C:6B86H         LINE#         377
  C:6B86H         LINE#         378
  C:6B86H         LINE#         379
  C:6B86H         LINE#         380
  -------         ENDPROC       _ISSTOPPED
  -------         PROC          _RESTARTTIMER
  D:0006H         SYMBOL        whichTimer
  C:6E2CH         LINE#         391
  C:6E2EH         LINE#         392
  C:6E2EH         LINE#         393
  C:6E33H         LINE#         394
  C:6E33H         LINE#         395
  C:6E37H         LINE#         396
  C:6E37H         LINE#         397
  C:6E37H         LINE#         398
  C:6E37H         LINE#         399
  C:6E3AH         LINE#         400
  C:6E40H         LINE#         404
  C:6E40H         LINE#         405
  C:6E40H         LINE#         406
  C:6E40H         LINE#         407
  C:6E40H         LINE#         410
  C:6E40H         LINE#         411
  C:6E40H         LINE#         412
BL51 BANKED LINKER/LOCATER V6.00                                                      08/02/2017  18:22:39  PAGE 101


  C:6E40H         LINE#         413
  C:6E40H         LINE#         414
  C:6E40H         LINE#         418
  C:6E40H         LINE#         419
  -------         ENDPROC       _RESTARTTIMER
  -------         PROC          _ONRESTARTTIMER
  D:0006H         SYMBOL        whichTimer
  C:7045H         LINE#         429
  C:7047H         LINE#         430
  C:7047H         LINE#         431
  C:704CH         LINE#         432
  C:704CH         LINE#         433
  C:704FH         LINE#         434
  C:7051H         LINE#         435
  C:7051H         LINE#         437
  C:7051H         LINE#         438
  C:7052H         LINE#         439
  C:7052H         LINE#         441
  -------         ENDPROC       _ONRESTARTTIMER
  -------         PROC          GETMICROS
  C:7123H         LINE#         445
  C:7123H         LINE#         446
  C:7123H         LINE#         448
  C:712BH         LINE#         449
  -------         ENDPROC       GETMICROS
  -------         PROC          GETMILLIS
  C:712CH         LINE#         451
  C:712CH         LINE#         452
  C:712CH         LINE#         453
  C:7134H         LINE#         454
  -------         ENDPROC       GETMILLIS
  -------         PROC          GETSECONDS
  C:714FH         LINE#         455
  C:714FH         LINE#         456
  C:714FH         LINE#         457
  C:7154H         LINE#         458
  -------         ENDPROC       GETSECONDS
  -------         PROC          GETMINUTES
  C:7155H         LINE#         459
  C:7155H         LINE#         460
  C:7155H         LINE#         461
  C:715AH         LINE#         462
  -------         ENDPROC       GETMINUTES
  -------         PROC          GETHOURS
  C:715BH         LINE#         463
  C:715BH         LINE#         464
  C:715BH         LINE#         465
  C:7160H         LINE#         466
  -------         ENDPROC       GETHOURS
  -------         PROC          GETDAYS
  C:7161H         LINE#         467
  C:7161H         LINE#         468
  C:7161H         LINE#         469
  C:7166H         LINE#         470
  -------         ENDPROC       GETDAYS
  -------         PROC          TIMER4_INT
  C:5F6FH         LINE#         475
BL51 BANKED LINKER/LOCATER V6.00                                                      08/02/2017  18:22:39  PAGE 102


  C:5F80H         LINE#         479
  C:5F99H         LINE#         480
  C:5F99H         LINE#         482
  C:5F9CH         LINE#         484
  C:5FA3H         LINE#         485
  C:5FA8H         LINE#         486
  C:5FA8H         LINE#         488
  -------         ENDPROC       TIMER4_INT
  -------         PROC          _TIMER_INILIZE
  D:0005H         SYMBOL        TIM
  D:0001H         SYMBOL        TIMx
  C:3516H         LINE#         567
  C:3518H         LINE#         568
  C:3518H         LINE#         569
  C:3521H         LINE#         571
  C:3524H         LINE#         572
  C:3524H         LINE#         573
  C:3530H         LINE#         574
  C:3532H         LINE#         575
  C:3534H         LINE#         576
  C:3536H         LINE#         577
  C:3539H         LINE#         578
  C:353CH         LINE#         579
  C:353FH         LINE#         580
  C:354AH         LINE#         581
  C:3555H         LINE#         582
  C:3558H         LINE#         583
  C:3564H         LINE#         584
  C:356BH         LINE#         585
  C:3577H         LINE#         587
  C:3581H         LINE#         588
  C:3589H         LINE#         589
  C:3594H         LINE#         590
  C:3597H         LINE#         591
  C:3597H         LINE#         593
  C:359FH         LINE#         594
  C:359FH         LINE#         595
  C:35A1H         LINE#         596
  C:35AEH         LINE#         597
  C:35B0H         LINE#         598
  C:35BDH         LINE#         599
  C:35BFH         LINE#         600
  C:35CBH         LINE#         601
  C:35D2H         LINE#         602
  C:35DFH         LINE#         603
  C:35E5H         LINE#         604
  C:35EEH         LINE#         605
  C:35F1H         LINE#         606
  C:35FFH         LINE#         607
  C:3602H         LINE#         609
  C:360CH         LINE#         610
  C:3614H         LINE#         611
  C:361FH         LINE#         612
  C:3622H         LINE#         613
  C:3622H         LINE#         615
  C:3627H         LINE#         616
  C:3627H         LINE#         617
BL51 BANKED LINKER/LOCATER V6.00                                                      08/02/2017  18:22:39  PAGE 103


  C:362AH         LINE#         618
  C:3638H         LINE#         619
  C:363BH         LINE#         620
  C:364AH         LINE#         621
  C:3651H         LINE#         622
  C:365CH         LINE#         623
  C:366AH         LINE#         624
  C:366DH         LINE#         625
  C:367BH         LINE#         626
  C:367EH         LINE#         628
  C:3688H         LINE#         629
  C:3690H         LINE#         630
  C:369CH         LINE#         631
  C:369FH         LINE#         632
  C:369FH         LINE#         634
  C:36A4H         LINE#         635
  C:36A4H         LINE#         636
  C:36B3H         LINE#         637
  C:36B6H         LINE#         638
  C:36B9H         LINE#         639
  C:36C5H         LINE#         640
  C:36CBH         LINE#         641
  C:36D7H         LINE#         642
  C:36E3H         LINE#         644
  C:36EDH         LINE#         645
  C:36F5H         LINE#         646
  C:3701H         LINE#         647
  C:3704H         LINE#         648
  C:3704H         LINE#         650
  C:3709H         LINE#         651
  C:3709H         LINE#         652
  C:3718H         LINE#         653
  C:371BH         LINE#         654
  C:371EH         LINE#         655
  C:372AH         LINE#         656
  C:3730H         LINE#         657
  C:373CH         LINE#         659
  C:3748H         LINE#         660
  C:374AH         LINE#         661
  C:3756H         LINE#         662
  C:3762H         LINE#         664
  C:3765H         LINE#         665
  C:3765H         LINE#         667
  C:3767H         LINE#         668
  -------         ENDPROC       _TIMER_INILIZE
  -------         ENDMOD        TIMER

  -------         MODULE        USART1
  C:0000H         SYMBOL        _ICE_DUMMY_
  D:0080H         PUBLIC        P0
  D:0090H         PUBLIC        P1
  D:00A0H         PUBLIC        P2
  D:00B0H         PUBLIC        P3
  D:00C0H         PUBLIC        P4
  D:00C8H         PUBLIC        P5
  B:00A8H.7       PUBLIC        EA
  D:00E8H         PUBLIC        P6
BL51 BANKED LINKER/LOCATER V6.00                                                      08/02/2017  18:22:39  PAGE 104


  D:00F8H         PUBLIC        P7
  D:00A2H         PUBLIC        P_SW1
  D:00BAH         PUBLIC        P_SW2
  D:00A8H         PUBLIC        IE
  X:0000H         PUBLIC        COM1
  C:6FBDH         PUBLIC        _setUART1Interrupt
  X:0007H         PUBLIC        COM2
  X:000EH         PUBLIC        COM3
  X:0015H         PUBLIC        COM4
  B:00A8H.4       PUBLIC        ES
  D:00B8H         PUBLIC        IP
  X:001CH         PUBLIC        RX1_Buffer
  X:009CH         PUBLIC        RX2_Buffer
  B:0098H.0       PUBLIC        RI
  C:501CH         PUBLIC        UART1_int
  X:011CH         PUBLIC        RX3_Buffer
  X:0138H         PUBLIC        TX1_Buffer
  C:5816H         PUBLIC        UART2_int
  X:01B8H         PUBLIC        RX4_Buffer
  X:01D4H         PUBLIC        TX2_Buffer
  B:0098H.1       PUBLIC        TI
  C:589BH         PUBLIC        UART3_int
  X:0254H         PUBLIC        TX3_Buffer
  C:5920H         PUBLIC        UART4_int
  X:0270H         PUBLIC        functionTmp
  X:0271H         PUBLIC        TX4_Buffer
  B:00B8H.4       PUBLIC        PS
  D:00D8H         PUBLIC        CCON
  D:0099H         PUBLIC        SBUF
  D:0087H         PUBLIC        PCON
  D:0098H         PUBLIC        SCON
  D:0089H         PUBLIC        TMOD
  D:0088H         PUBLIC        TCON
  C:6DFFH         PUBLIC        _PrintString1
  C:6E8FH         PUBLIC        _PrintString2
  C:6EA2H         PUBLIC        _PrintString3
  X:028DH         PUBLIC        _interruptFunction
  C:6EB5H         PUBLIC        _PrintString4
  D:00AFH         PUBLIC        IE2
  D:00F0H         PUBLIC        B
  D:008EH         PUBLIC        AUXR
  C:66DBH         PUBLIC        _TX1_write2buff
  C:6615H         PUBLIC        _TX2_write2buff
  C:663DH         PUBLIC        _TX3_write2buff
  D:00E0H         PUBLIC        ACC
  C:6665H         PUBLIC        _TX4_write2buff
  B:00A8H.3       PUBLIC        ET1
  D:00B5H         PUBLIC        IP2
  D:008DH         PUBLIC        TH1
  D:00D6H         PUBLIC        TH2
  D:00D4H         PUBLIC        TH3
  D:00D2H         PUBLIC        TH4
  D:008BH         PUBLIC        TL1
  D:00D7H         PUBLIC        TL2
  C:1141H         PUBLIC        _USART_Configuration
  D:00D5H         PUBLIC        TL3
  D:00D3H         PUBLIC        TL4
BL51 BANKED LINKER/LOCATER V6.00                                                      08/02/2017  18:22:39  PAGE 105


  B:0088H.6       PUBLIC        TR1
  D:00D1H         PUBLIC        T4T3M
  D:009BH         PUBLIC        S2BUF
  D:0097H         PUBLIC        PCON2
  D:00ADH         PUBLIC        S3BUF
  B:0098H.4       PUBLIC        REN
  D:0085H         PUBLIC        S4BUF
  D:009AH         PUBLIC        S2CON
  D:00ACH         PUBLIC        S3CON
  D:0084H         PUBLIC        S4CON
  D:008FH         PUBLIC        INT_CLKO
  D:00D0H         PUBLIC        PSW
  -------         PROC          _SETUART1INTERRUPT
  D:0001H         SYMBOL        function
  D:0005H         SYMBOL        tmp
  C:6FBDH         LINE#         26
  C:6FBDH         LINE#         27
  C:6FBDH         LINE#         28
  C:6FC8H         LINE#         29
  C:6FCDH         LINE#         30
  -------         ENDPROC       _SETUART1INTERRUPT
  -------         PROC          _USART_CONFIGURATION
  X:0340H         SYMBOL        UARTx
  X:0341H         SYMBOL        COMx
  -------         DO            
  X:0344H         SYMBOL        i
  X:0345H         SYMBOL        j
  -------         ENDDO         
  C:1141H         LINE#         31
  C:1151H         LINE#         32
  C:1151H         LINE#         36
  C:1158H         LINE#         37
  C:1158H         LINE#         38
  C:115DH         LINE#         39
  C:1160H         LINE#         40
  C:1162H         LINE#         41
  C:1164H         LINE#         42
  C:1166H         LINE#         43
  C:1168H         LINE#         44
  C:116AH         LINE#         45
  C:118CH         LINE#         46
  C:11AFH         LINE#         48
  C:11C5H         LINE#         49
  C:11D2H         LINE#         50
  C:11D4H         LINE#         51
  C:11DFH         LINE#         52
  C:11ECH         LINE#         53
  C:11ECH         LINE#         54
  C:1203H         LINE#         55
  C:1220H         LINE#         56
  C:1242H         LINE#         57
  C:1258H         LINE#         58
  C:1258H         LINE#         59
  C:125AH         LINE#         60
  C:125DH         LINE#         61
  C:1260H         LINE#         62
  C:1263H         LINE#         63
BL51 BANKED LINKER/LOCATER V6.00                                                      08/02/2017  18:22:39  PAGE 106


  C:1266H         LINE#         64
  C:127BH         LINE#         65
  C:1284H         LINE#         66
  C:1286H         LINE#         67
  C:1289H         LINE#         68
  C:128CH         LINE#         69
  C:128EH         LINE#         70
  C:1290H         LINE#         71
  C:1295H         LINE#         72
  C:1295H         LINE#         73
  C:1298H         LINE#         74
  C:129BH         LINE#         75
  C:129EH         LINE#         76
  C:12A1H         LINE#         77
  C:12B6H         LINE#         78
  C:12BFH         LINE#         79
  C:12C2H         LINE#         80
  C:12C5H         LINE#         81
  C:12C8H         LINE#         82
  C:12CAH         LINE#         83
  C:12CDH         LINE#         84
  C:12CDH         LINE#         85
  C:12DEH         LINE#         86
  C:12DEH         LINE#         87
  C:12ECH         LINE#         88
  C:12EFH         LINE#         89
  C:12F1H         LINE#         90
  C:12F5H         LINE#         91
  C:12F5H         LINE#         92
  C:1303H         LINE#         93
  C:1306H         LINE#         94
  C:1306H         LINE#         95
  C:131EH         LINE#         96
  C:1320H         LINE#         97
  C:132DH         LINE#         98
  C:132FH         LINE#         99
  C:133FH         LINE#         100
  C:134DH         LINE#         101
  C:1350H         LINE#         102
  C:1353H         LINE#         103
  C:1353H         LINE#         105
  C:135EH         LINE#         106
  C:135EH         LINE#         107
  C:1364H         LINE#         108
  C:1367H         LINE#         109
  C:1369H         LINE#         110
  C:136BH         LINE#         111
  C:136DH         LINE#         112
  C:136FH         LINE#         113
  C:1371H         LINE#         114
  C:1393H         LINE#         115
  C:13B6H         LINE#         117
  C:13D1H         LINE#         118
  C:13D1H         LINE#         119
  C:13DFH         LINE#         120
  C:13E2H         LINE#         121
  C:13EDH         LINE#         122
BL51 BANKED LINKER/LOCATER V6.00                                                      08/02/2017  18:22:39  PAGE 107


  C:13F0H         LINE#         123
  C:1407H         LINE#         124
  C:1424H         LINE#         125
  C:1446H         LINE#         126
  C:1449H         LINE#         127
  C:144CH         LINE#         128
  C:144FH         LINE#         129
  C:1464H         LINE#         130
  C:146DH         LINE#         131
  C:1470H         LINE#         132
  C:1473H         LINE#         133
  C:1475H         LINE#         134
  C:1478H         LINE#         135
  C:1491H         LINE#         136
  C:1494H         LINE#         137
  C:14A2H         LINE#         138
  C:14A5H         LINE#         139
  C:14B5H         LINE#         140
  C:14B5H         LINE#         142
  C:14C0H         LINE#         143
  C:14C0H         LINE#         144
  C:14C6H         LINE#         145
  C:14C9H         LINE#         146
  C:14CBH         LINE#         147
  C:14CDH         LINE#         148
  C:14CFH         LINE#         149
  C:14D1H         LINE#         150
  C:14D3H         LINE#         151
  C:14F5H         LINE#         152
  C:1518H         LINE#         153
  C:1533H         LINE#         154
  C:1533H         LINE#         155
  C:1536H         LINE#         156
  C:153FH         LINE#         157
  C:1542H         LINE#         158
  C:1564H         LINE#         159
  C:1581H         LINE#         160
  C:15A3H         LINE#         161
  C:15B9H         LINE#         162
  C:15B9H         LINE#         163
  C:15BCH         LINE#         164
  C:15BFH         LINE#         165
  C:15C2H         LINE#         166
  C:15C5H         LINE#         167
  C:15DAH         LINE#         168
  C:15E3H         LINE#         169
  C:15E6H         LINE#         170
  C:15E9H         LINE#         171
  C:15EBH         LINE#         172
  C:15F0H         LINE#         173
  C:15F0H         LINE#         174
  C:15F3H         LINE#         175
  C:15F6H         LINE#         176
  C:15F9H         LINE#         177
  C:15FCH         LINE#         178
  C:15FFH         LINE#         179
  C:1602H         LINE#         180
BL51 BANKED LINKER/LOCATER V6.00                                                      08/02/2017  18:22:39  PAGE 108


  C:1617H         LINE#         181
  C:1620H         LINE#         182
  C:1623H         LINE#         183
  C:1625H         LINE#         184
  C:1628H         LINE#         185
  C:1628H         LINE#         186
  C:162BH         LINE#         187
  C:1644H         LINE#         188
  C:1647H         LINE#         189
  C:1655H         LINE#         190
  C:1658H         LINE#         191
  C:1665H         LINE#         192
  C:1668H         LINE#         194
  C:1668H         LINE#         196
  C:1673H         LINE#         197
  C:1673H         LINE#         198
  C:1679H         LINE#         199
  C:167CH         LINE#         200
  C:167EH         LINE#         201
  C:1680H         LINE#         202
  C:1682H         LINE#         203
  C:1684H         LINE#         204
  C:1686H         LINE#         205
  C:16A8H         LINE#         206
  C:16CBH         LINE#         208
  C:16E6H         LINE#         209
  C:16E6H         LINE#         210
  C:16E9H         LINE#         211
  C:16F2H         LINE#         212
  C:16F5H         LINE#         213
  C:1717H         LINE#         214
  C:1734H         LINE#         215
  C:1756H         LINE#         216
  C:176CH         LINE#         217
  C:176CH         LINE#         218
  C:176FH         LINE#         219
  C:1772H         LINE#         220
  C:1775H         LINE#         221
  C:1778H         LINE#         222
  C:178DH         LINE#         223
  C:1796H         LINE#         224
  C:1799H         LINE#         225
  C:179CH         LINE#         226
  C:179EH         LINE#         227
  C:17A3H         LINE#         228
  C:17A3H         LINE#         229
  C:17A6H         LINE#         230
  C:17A9H         LINE#         231
  C:17ACH         LINE#         232
  C:17AFH         LINE#         233
  C:17B2H         LINE#         234
  C:17B5H         LINE#         235
  C:17CAH         LINE#         236
  C:17D3H         LINE#         237
  C:17D6H         LINE#         238
  C:17D8H         LINE#         239
  C:17DBH         LINE#         240
BL51 BANKED LINKER/LOCATER V6.00                                                      08/02/2017  18:22:39  PAGE 109


  C:17DBH         LINE#         241
  C:17DEH         LINE#         242
  C:17F7H         LINE#         243
  C:17FAH         LINE#         244
  C:1808H         LINE#         245
  C:180BH         LINE#         246
  C:181BH         LINE#         247
  C:181EH         LINE#         248
  C:181EH         LINE#         250
  C:1820H         LINE#         251
  -------         ENDPROC       _USART_CONFIGURATION
  -------         PROC          _TX1_WRITE2BUFF
  D:0007H         SYMBOL        dat
  C:66DBH         LINE#         256
  C:66DBH         LINE#         257
  C:66DBH         LINE#         258
  C:66EAH         LINE#         259
  C:66F7H         LINE#         261
  C:66FDH         LINE#         262
  C:66FDH         LINE#         263
  C:66FFH         LINE#         264
  C:6701H         LINE#         265
  C:6701H         LINE#         266
  -------         ENDPROC       _TX1_WRITE2BUFF
  -------         PROC          _TX2_WRITE2BUFF
  D:0007H         SYMBOL        dat
  C:6615H         LINE#         268
  C:6615H         LINE#         269
  C:6615H         LINE#         270
  C:6624H         LINE#         271
  C:6631H         LINE#         273
  C:6637H         LINE#         274
  C:6637H         LINE#         275
  C:6639H         LINE#         276
  C:663CH         LINE#         277
  C:663CH         LINE#         278
  -------         ENDPROC       _TX2_WRITE2BUFF
  -------         PROC          _TX3_WRITE2BUFF
  D:0007H         SYMBOL        dat
  C:663DH         LINE#         280
  C:663DH         LINE#         281
  C:663DH         LINE#         282
  C:664CH         LINE#         283
  C:6659H         LINE#         285
  C:665FH         LINE#         286
  C:665FH         LINE#         287
  C:6661H         LINE#         288
  C:6664H         LINE#         289
  C:6664H         LINE#         290
  -------         ENDPROC       _TX3_WRITE2BUFF
  -------         PROC          _TX4_WRITE2BUFF
  D:0007H         SYMBOL        dat
  C:6665H         LINE#         292
  C:6665H         LINE#         293
  C:6665H         LINE#         294
  C:6674H         LINE#         295
  C:6681H         LINE#         297
BL51 BANKED LINKER/LOCATER V6.00                                                      08/02/2017  18:22:39  PAGE 110


  C:6687H         LINE#         298
  C:6687H         LINE#         299
  C:6689H         LINE#         300
  C:668CH         LINE#         301
  C:668CH         LINE#         302
  -------         ENDPROC       _TX4_WRITE2BUFF
  -------         PROC          _PRINTSTRING1
  D:0001H         SYMBOL        puts
  C:6DFFH         LINE#         304
  C:6DFFH         LINE#         305
  C:6DFFH         LINE#         306
  C:6E01H         LINE#         307
  C:6E13H         LINE#         308
  C:6E15H         LINE#         309
  -------         ENDPROC       _PRINTSTRING1
  -------         PROC          _PRINTSTRING2
  D:0001H         SYMBOL        puts
  C:6E8FH         LINE#         311
  C:6E8FH         LINE#         312
  C:6E8FH         LINE#         313
  C:6EA1H         LINE#         314
  -------         ENDPROC       _PRINTSTRING2
  -------         PROC          _PRINTSTRING3
  D:0001H         SYMBOL        puts
  C:6EA2H         LINE#         316
  C:6EA2H         LINE#         317
  C:6EA2H         LINE#         318
  C:6EB4H         LINE#         319
  -------         ENDPROC       _PRINTSTRING3
  -------         PROC          _PRINTSTRING4
  D:0001H         SYMBOL        puts
  C:6EB5H         LINE#         321
  C:6EB5H         LINE#         322
  C:6EB5H         LINE#         323
  C:6EC7H         LINE#         324
  -------         ENDPROC       _PRINTSTRING4
  -------         PROC          UART1_INT
  C:501CH         LINE#         331
  C:5039H         LINE#         333
  C:503CH         LINE#         334
  C:503CH         LINE#         335
  C:503EH         LINE#         336
  C:5044H         LINE#         337
  C:5044H         LINE#         338
  C:504FH         LINE#         339
  C:5063H         LINE#         340
  C:5069H         LINE#         341
  C:507DH         LINE#         342
  C:507DH         LINE#         343
  C:507DH         LINE#         345
  C:5080H         LINE#         346
  C:5080H         LINE#         347
  C:5082H         LINE#         348
  C:508FH         LINE#         349
  C:508FH         LINE#         350
  C:509CH         LINE#         351
  C:50A9H         LINE#         352
BL51 BANKED LINKER/LOCATER V6.00                                                      08/02/2017  18:22:39  PAGE 111


  C:50ABH         LINE#         353
  C:50B0H         LINE#         354
  C:50B0H         LINE#         355
  -------         ENDPROC       UART1_INT
  -------         PROC          UART2_INT
  C:5816H         LINE#         358
  C:5825H         LINE#         360
  C:582AH         LINE#         361
  C:582AH         LINE#         362
  C:582DH         LINE#         363
  C:5833H         LINE#         364
  C:5833H         LINE#         365
  C:583EH         LINE#         366
  C:5852H         LINE#         367
  C:5858H         LINE#         368
  C:5858H         LINE#         369
  C:5858H         LINE#         371
  C:585DH         LINE#         372
  C:585DH         LINE#         373
  C:5860H         LINE#         374
  C:586DH         LINE#         375
  C:586DH         LINE#         376
  C:587AH         LINE#         377
  C:5887H         LINE#         378
  C:5889H         LINE#         379
  C:588EH         LINE#         380
  C:588EH         LINE#         382
  -------         ENDPROC       UART2_INT
  -------         PROC          UART3_INT
  C:589BH         LINE#         386
  C:58AAH         LINE#         388
  C:58AFH         LINE#         389
  C:58AFH         LINE#         390
  C:58B2H         LINE#         391
  C:58B8H         LINE#         392
  C:58B8H         LINE#         393
  C:58C3H         LINE#         394
  C:58D7H         LINE#         395
  C:58DDH         LINE#         396
  C:58DDH         LINE#         397
  C:58DDH         LINE#         399
  C:58E2H         LINE#         400
  C:58E2H         LINE#         401
  C:58E5H         LINE#         402
  C:58F2H         LINE#         403
  C:58F2H         LINE#         404
  C:58FFH         LINE#         405
  C:590CH         LINE#         406
  C:590EH         LINE#         407
  C:5913H         LINE#         408
  C:5913H         LINE#         410
  -------         ENDPROC       UART3_INT
  -------         PROC          UART4_INT
  C:5920H         LINE#         414
  C:592FH         LINE#         416
  C:5934H         LINE#         417
  C:5934H         LINE#         418
BL51 BANKED LINKER/LOCATER V6.00                                                      08/02/2017  18:22:39  PAGE 112


  C:5937H         LINE#         419
  C:593DH         LINE#         420
  C:593DH         LINE#         421
  C:5948H         LINE#         422
  C:595CH         LINE#         423
  C:5962H         LINE#         424
  C:5962H         LINE#         425
  C:5962H         LINE#         427
  C:5967H         LINE#         428
  C:5967H         LINE#         429
  C:596AH         LINE#         430
  C:5977H         LINE#         431
  C:5977H         LINE#         432
  C:5984H         LINE#         433
  C:5991H         LINE#         434
  C:5993H         LINE#         435
  C:5998H         LINE#         436
  C:5998H         LINE#         438
  -------         ENDPROC       UART4_INT
  -------         ENDMOD        USART1

  -------         MODULE        ?C?FPADD
  C:0807H         PUBLIC        ?C?FPADD
  C:0803H         PUBLIC        ?C?FPSUB
  -------         ENDMOD        ?C?FPADD

  -------         MODULE        ?C?FPMUL
  C:08F8H         PUBLIC        ?C?FPMUL
  -------         ENDMOD        ?C?FPMUL

  -------         MODULE        ?C?FPDIV
  C:0A01H         PUBLIC        ?C?FPDIV
  -------         ENDMOD        ?C?FPDIV

  -------         MODULE        ?C?FPCMP
  C:0AA0H         PUBLIC        ?C?FPCMP
  C:0A9EH         PUBLIC        ?C?FPCMP3
  -------         ENDMOD        ?C?FPCMP

  -------         MODULE        ?C?FCAST
  C:0B15H         PUBLIC        ?C?FCASTC
  C:0B10H         PUBLIC        ?C?FCASTI
  C:0B0BH         PUBLIC        ?C?FCASTL
  -------         ENDMOD        ?C?FCAST

  -------         MODULE        ?C?CASTF
  C:0B49H         PUBLIC        ?C?CASTF
  -------         ENDMOD        ?C?CASTF

  -------         MODULE        PRINTF
  X:0382H         PUBLIC        ?_PRINTF?BYTE
  X:0382H         PUBLIC        ?_SPRINTF?BYTE
  C:1D26H         PUBLIC        _PRINTF
  C:1D20H         PUBLIC        _SPRINTF
  -------         ENDMOD        PRINTF

  -------         MODULE        ?C?FPROUND
BL51 BANKED LINKER/LOCATER V6.00                                                      08/02/2017  18:22:39  PAGE 113


  C:0BCAH         PUBLIC        ?C?FPROUND
  -------         ENDMOD        ?C?FPROUND

  -------         MODULE        ?C?FPCONVERT
  C:0C07H         PUBLIC        ?C?FPCONVERT
  -------         ENDMOD        ?C?FPCONVERT

  -------         MODULE        ?C?FTNPWR
  C:0D3CH         PUBLIC        ?C?FTNPWR
  -------         ENDMOD        ?C?FTNPWR

  -------         MODULE        ?C?CLDPTR
  C:0D7CH         PUBLIC        ?C?CLDPTR
  -------         ENDMOD        ?C?CLDPTR

  -------         MODULE        ?C?CLDOPTR
  C:0D95H         PUBLIC        ?C?CLDOPTR
  -------         ENDMOD        ?C?CLDOPTR

  -------         MODULE        ?C?CSTPTR
  C:0DC2H         PUBLIC        ?C?CSTPTR
  -------         ENDMOD        ?C?CSTPTR

  -------         MODULE        ?C?CSTOPTR
  C:0DD4H         PUBLIC        ?C?CSTOPTR
  -------         ENDMOD        ?C?CSTOPTR

  -------         MODULE        ?C?IMUL
  C:0DF6H         PUBLIC        ?C?IMUL
  -------         ENDMOD        ?C?IMUL

  -------         MODULE        ?C?UIDIV
  C:0E08H         PUBLIC        ?C?UIDIV
  -------         ENDMOD        ?C?UIDIV

  -------         MODULE        ?C?SIDIV
  C:0E5DH         PUBLIC        ?C?SIDIV
  -------         ENDMOD        ?C?SIDIV

  -------         MODULE        ?C?IILDX
  C:0E93H         PUBLIC        ?C?IILDX
  -------         ENDMOD        ?C?IILDX

  -------         MODULE        ?C?ILDIX
  C:0EA9H         PUBLIC        ?C?ILDIX
  -------         ENDMOD        ?C?ILDIX

  -------         MODULE        ?C?ILDOPTR
  C:0EBFH         PUBLIC        ?C?ILDOPTR
  -------         ENDMOD        ?C?ILDOPTR

  -------         MODULE        ?C?LMUL
  C:0EF7H         PUBLIC        ?C?LMUL
  -------         ENDMOD        ?C?LMUL

  -------         MODULE        ?C?ULDIV
  C:0F82H         PUBLIC        ?C?ULDIV
BL51 BANKED LINKER/LOCATER V6.00                                                      08/02/2017  18:22:39  PAGE 114


  -------         ENDMOD        ?C?ULDIV

  -------         MODULE        ?C?SLDIV
  C:6040H         PUBLIC        ?C?SLDIV
  -------         ENDMOD        ?C?SLDIV

  -------         MODULE        ?C?LNEG
  C:1014H         PUBLIC        ?C?LNEG
  -------         ENDMOD        ?C?LNEG

  -------         MODULE        ?C?ULCMP
  C:1022H         PUBLIC        ?C?ULCMP
  -------         ENDMOD        ?C?ULCMP

  -------         MODULE        ?C?ULSHR
  C:1033H         PUBLIC        ?C?ULSHR
  -------         ENDMOD        ?C?ULSHR

  -------         MODULE        ?C?LLDOPTR0
  C:1046H         PUBLIC        ?C?LLDOPTR0
  -------         ENDMOD        ?C?LLDOPTR0

  -------         MODULE        ?C?LSTXDATA
  C:1076H         PUBLIC        ?C?LSTXDATA
  -------         ENDMOD        ?C?LSTXDATA

  -------         MODULE        ?C?LSTKXDATA
  C:1082H         PUBLIC        ?C?LSTKXDATA
  -------         ENDMOD        ?C?LSTKXDATA

  -------         MODULE        ?C?OFFXADD
  C:10B3H         PUBLIC        ?C?OFFXADD
  -------         ENDMOD        ?C?OFFXADD

  -------         MODULE        ?C?PLDIXDATA
  C:10BFH         PUBLIC        ?C?PLDIXDATA
  -------         ENDMOD        ?C?PLDIXDATA

  -------         MODULE        ?C?PSTXDATA
  C:10D6H         PUBLIC        ?C?PSTXDATA
  -------         ENDMOD        ?C?PSTXDATA

  -------         MODULE        ?C?CCASE
  C:10DFH         PUBLIC        ?C?CCASE
  -------         ENDMOD        ?C?CCASE

  -------         MODULE        ?C?ICALL
  C:1105H         PUBLIC        ?C?ICALL
  C:1109H         PUBLIC        ?C?ICALL2
  -------         ENDMOD        ?C?ICALL

  -------         MODULE        PUTCHAR
  C:6702H         PUBLIC        _PUTCHAR
  -------         ENDMOD        PUTCHAR

  -------         MODULE        ABS
  C:7093H         PUBLIC        _ABS
BL51 BANKED LINKER/LOCATER V6.00                                                      08/02/2017  18:22:39  PAGE 115


  -------         ENDMOD        ABS

  -------         MODULE        ?C?LLDIDATA0
  C:110BH         PUBLIC        ?C?LLDIDATA0
  -------         ENDMOD        ?C?LLDIDATA0

  -------         MODULE        ?C?LLDXDATA0
  C:1118H         PUBLIC        ?C?LLDXDATA0
  -------         ENDMOD        ?C?LLDXDATA0

  -------         MODULE        ?C?LLDPDATA0
  C:1124H         PUBLIC        ?C?LLDPDATA0
  -------         ENDMOD        ?C?LLDPDATA0

  -------         MODULE        ?C?LLDCODE0
  C:1131H         PUBLIC        ?C?LLDCODE0
  -------         ENDMOD        ?C?LLDCODE0

*** WARNING L16: UNCALLED SEGMENT, IGNORED FOR OVERLAY PROCESS
    SEGMENT: ?PR?MODE1?MODE

*** WARNING L16: UNCALLED SEGMENT, IGNORED FOR OVERLAY PROCESS
    SEGMENT: ?PR?MODE2?MODE

*** WARNING L16: UNCALLED SEGMENT, IGNORED FOR OVERLAY PROCESS
    SEGMENT: ?PR?MODE3?MODE

*** WARNING L16: UNCALLED SEGMENT, IGNORED FOR OVERLAY PROCESS
    SEGMENT: ?PR?MODE4?MODE

*** WARNING L16: UNCALLED SEGMENT, IGNORED FOR OVERLAY PROCESS
    SEGMENT: ?PR?MODELAUNCHER?MODE

*** WARNING L16: UNCALLED SEGMENT, IGNORED FOR OVERLAY PROCESS
    SEGMENT: ?PR?_FILTER?FILTER

*** WARNING L16: UNCALLED SEGMENT, IGNORED FOR OVERLAY PROCESS
    SEGMENT: ?PR?_KALMANFILTER?FILTER

*** WARNING L16: UNCALLED SEGMENT, IGNORED FOR OVERLAY PROCESS
    SEGMENT: ?PR?_PID_CONFIG?PID

*** WARNING L16: UNCALLED SEGMENT, IGNORED FOR OVERLAY PROCESS
    SEGMENT: ?PR?_OPENPID?PID

*** WARNING L16: UNCALLED SEGMENT, IGNORED FOR OVERLAY PROCESS
    SEGMENT: ?PR?_CLOSEPID?PID

*** WARNING L16: UNCALLED SEGMENT, IGNORED FOR OVERLAY PROCESS
    SEGMENT: ?PR?_SETPARAMETERINFERIORLIMIT?PID

*** WARNING L16: UNCALLED SEGMENT, IGNORED FOR OVERLAY PROCESS
    SEGMENT: ?PR?_SETPARAMETERUPPERLIMIT?PID

*** WARNING L16: UNCALLED SEGMENT, IGNORED FOR OVERLAY PROCESS
    SEGMENT: ?PR?_SETACTUALPARAMETER?PID

BL51 BANKED LINKER/LOCATER V6.00                                                      08/02/2017  18:22:39  PAGE 116


*** WARNING L16: UNCALLED SEGMENT, IGNORED FOR OVERLAY PROCESS
    SEGMENT: ?PR?_SETKI?PID

*** WARNING L16: UNCALLED SEGMENT, IGNORED FOR OVERLAY PROCESS
    SEGMENT: ?PR?_SETKP?PID

*** WARNING L16: UNCALLED SEGMENT, IGNORED FOR OVERLAY PROCESS
    SEGMENT: ?PR?_SETKD?PID

*** WARNING L16: UNCALLED SEGMENT, IGNORED FOR OVERLAY PROCESS
    SEGMENT: ?PR?_SETPARAMETER?PID

*** WARNING L16: UNCALLED SEGMENT, IGNORED FOR OVERLAY PROCESS
    SEGMENT: ?PR?_GETPARAMETER?PID

*** WARNING L16: UNCALLED SEGMENT, IGNORED FOR OVERLAY PROCESS
    SEGMENT: ?PR?_GETERR?PID

*** WARNING L16: UNCALLED SEGMENT, IGNORED FOR OVERLAY PROCESS
    SEGMENT: ?PR?_GETERRLAST?PID

*** WARNING L16: UNCALLED SEGMENT, IGNORED FOR OVERLAY PROCESS
    SEGMENT: ?PR?_GETKP?PID

*** WARNING L16: UNCALLED SEGMENT, IGNORED FOR OVERLAY PROCESS
    SEGMENT: ?PR?_GETKI?PID

*** WARNING L16: UNCALLED SEGMENT, IGNORED FOR OVERLAY PROCESS
    SEGMENT: ?PR?_GETKD?PID

*** WARNING L16: UNCALLED SEGMENT, IGNORED FOR OVERLAY PROCESS
    SEGMENT: ?PR?_GETOUTPUT?PID

*** WARNING L16: UNCALLED SEGMENT, IGNORED FOR OVERLAY PROCESS
    SEGMENT: ?PR?_GETINTEGRAL?PID

*** WARNING L16: UNCALLED SEGMENT, IGNORED FOR OVERLAY PROCESS
    SEGMENT: ?PR?_SETMAXERROR?PID

*** WARNING L16: UNCALLED SEGMENT, IGNORED FOR OVERLAY PROCESS
    SEGMENT: ?PR?_POSCLASSPID?PID

*** WARNING L16: UNCALLED SEGMENT, IGNORED FOR OVERLAY PROCESS
    SEGMENT: ?PR?_INCCLASSPID?PID

*** WARNING L16: UNCALLED SEGMENT, IGNORED FOR OVERLAY PROCESS
    SEGMENT: ?PR?BUTTON_CONFIG?BUTTON

*** WARNING L16: UNCALLED SEGMENT, IGNORED FOR OVERLAY PROCESS
    SEGMENT: ?PR?_GETBUTTONSTATE?BUTTON

*** WARNING L16: UNCALLED SEGMENT, IGNORED FOR OVERLAY PROCESS
    SEGMENT: ?PR?BUTTONSCAN?BUTTON

*** WARNING L16: UNCALLED SEGMENT, IGNORED FOR OVERLAY PROCESS
    SEGMENT: ?PR?_LCD_CLR_ROW?LCD5510_V2

BL51 BANKED LINKER/LOCATER V6.00                                                      08/02/2017  18:22:39  PAGE 117


*** WARNING L16: UNCALLED SEGMENT, IGNORED FOR OVERLAY PROCESS
    SEGMENT: ?PR?_LCD_PRINTS?LCD5510_V2

*** WARNING L16: UNCALLED SEGMENT, IGNORED FOR OVERLAY PROCESS
    SEGMENT: ?PR?_LCD_PRINTNUM_F?LCD5510_V2

*** WARNING L16: UNCALLED SEGMENT, IGNORED FOR OVERLAY PROCESS
    SEGMENT: ?PR?GETBOARD_LED_STATE?LED

*** WARNING L16: UNCALLED SEGMENT, IGNORED FOR OVERLAY PROCESS
    SEGMENT: ?PR?_BOARD_LED_PWM?LED

*** WARNING L16: UNCALLED SEGMENT, IGNORED FOR OVERLAY PROCESS
    SEGMENT: ?PR?_SETDC_MOTORSPEED?MOTOR

*** WARNING L16: UNCALLED SEGMENT, IGNORED FOR OVERLAY PROCESS
    SEGMENT: ?PR?_OPEN_DC_MOTOR?MOTOR

*** WARNING L16: UNCALLED SEGMENT, IGNORED FOR OVERLAY PROCESS
    SEGMENT: ?PR?_CLOSE_DC_MOTOR?MOTOR

*** WARNING L16: UNCALLED SEGMENT, IGNORED FOR OVERLAY PROCESS
    SEGMENT: ?PR?_GETDC_MOTORSTATE?MOTOR

*** WARNING L16: UNCALLED SEGMENT, IGNORED FOR OVERLAY PROCESS
    SEGMENT: ?PR?DC_MOTOR_CONFIG?MOTOR

*** WARNING L16: UNCALLED SEGMENT, IGNORED FOR OVERLAY PROCESS
    SEGMENT: ?PR?_INIT_STR_MOTOR?SERVO

*** WARNING L16: UNCALLED SEGMENT, IGNORED FOR OVERLAY PROCESS
    SEGMENT: ?PR?_SET_STR_ANGLE?SERVO

*** WARNING L16: UNCALLED SEGMENT, IGNORED FOR OVERLAY PROCESS
    SEGMENT: ?PR?_READ_STR_ANGLE?SERVO

*** WARNING L16: UNCALLED SEGMENT, IGNORED FOR OVERLAY PROCESS
    SEGMENT: ?PR?_OPEN_STR?SERVO

*** WARNING L16: UNCALLED SEGMENT, IGNORED FOR OVERLAY PROCESS
    SEGMENT: ?PR?_CLOSE_STR?SERVO

*** WARNING L16: UNCALLED SEGMENT, IGNORED FOR OVERLAY PROCESS
    SEGMENT: ?PR?_SETSTEPMOTORWITHDISTANCE?STEP_MOTOR

*** WARNING L16: UNCALLED SEGMENT, IGNORED FOR OVERLAY PROCESS
    SEGMENT: ?PR?_SETSTEPMOTORWITHROUND?STEP_MOTOR

*** WARNING L16: UNCALLED SEGMENT, IGNORED FOR OVERLAY PROCESS
    SEGMENT: ?PR?_SETSTEPMOTORSTATE?STEP_MOTOR

*** WARNING L16: UNCALLED SEGMENT, IGNORED FOR OVERLAY PROCESS
    SEGMENT: ?PR?_GETSTEPMOTORSTATE?STEP_MOTOR

*** WARNING L16: UNCALLED SEGMENT, IGNORED FOR OVERLAY PROCESS
    SEGMENT: ?PR?_SETSTEPMOTORDIVERSION?STEP_MOTOR

BL51 BANKED LINKER/LOCATER V6.00                                                      08/02/2017  18:22:39  PAGE 118


*** WARNING L16: UNCALLED SEGMENT, IGNORED FOR OVERLAY PROCESS
    SEGMENT: ?PR?_CLOSE_STEPMOTOR?STEP_MOTOR

*** WARNING L16: UNCALLED SEGMENT, IGNORED FOR OVERLAY PROCESS
    SEGMENT: ?PR?_OPEN_STEPMOTOR?STEP_MOTOR

*** WARNING L16: UNCALLED SEGMENT, IGNORED FOR OVERLAY PROCESS
    SEGMENT: ?PR?_FREESTEPMOTOR?STEP_MOTOR

*** WARNING L16: UNCALLED SEGMENT, IGNORED FOR OVERLAY PROCESS
    SEGMENT: ?PR?_LOCKSTEPMOTOR?STEP_MOTOR

*** WARNING L16: UNCALLED SEGMENT, IGNORED FOR OVERLAY PROCESS
    SEGMENT: ?PR?_STEPMOTOR_INIT?STEP_MOTOR

*** WARNING L16: UNCALLED SEGMENT, IGNORED FOR OVERLAY PROCESS
    SEGMENT: ?PR?_ADC_CONFIG?ANGLE

*** WARNING L16: UNCALLED SEGMENT, IGNORED FOR OVERLAY PROCESS
    SEGMENT: ?PR?GETANGLE?ANGLE

*** WARNING L16: UNCALLED SEGMENT, IGNORED FOR OVERLAY PROCESS
    SEGMENT: ?PR?_HC595_INIT?74HC595

*** WARNING L16: UNCALLED SEGMENT, IGNORED FOR OVERLAY PROCESS
    SEGMENT: ?PR?_HC595SENDDATA?74HC595

*** WARNING L16: UNCALLED SEGMENT, IGNORED FOR OVERLAY PROCESS
    SEGMENT: ?PR?_GETPULSERSTATE?FIXEDPULSER

*** WARNING L16: UNCALLED SEGMENT, IGNORED FOR OVERLAY PROCESS
    SEGMENT: ?PR?SETCARFORWARD?MT_1_L298N

*** WARNING L16: UNCALLED SEGMENT, IGNORED FOR OVERLAY PROCESS
    SEGMENT: ?PR?SETCARBACK?MT_1_L298N

*** WARNING L16: UNCALLED SEGMENT, IGNORED FOR OVERLAY PROCESS
    SEGMENT: ?PR?SETCARSTOP?MT_1_L298N

*** WARNING L16: UNCALLED SEGMENT, IGNORED FOR OVERLAY PROCESS
    SEGMENT: ?PR?SETCARRIGHTFORWARD?MT_1_L298N

*** WARNING L16: UNCALLED SEGMENT, IGNORED FOR OVERLAY PROCESS
    SEGMENT: ?PR?SETCARRIGHTBACK?MT_1_L298N

*** WARNING L16: UNCALLED SEGMENT, IGNORED FOR OVERLAY PROCESS
    SEGMENT: ?PR?SETCARRIGHTTURN?MT_1_L298N

*** WARNING L16: UNCALLED SEGMENT, IGNORED FOR OVERLAY PROCESS
    SEGMENT: ?PR?SETCARLEFTFORWARD?MT_1_L298N

*** WARNING L16: UNCALLED SEGMENT, IGNORED FOR OVERLAY PROCESS
    SEGMENT: ?PR?SETCARLEFTBACK?MT_1_L298N

*** WARNING L16: UNCALLED SEGMENT, IGNORED FOR OVERLAY PROCESS
    SEGMENT: ?PR?SETCARLEFTTURN?MT_1_L298N

BL51 BANKED LINKER/LOCATER V6.00                                                      08/02/2017  18:22:39  PAGE 119


*** WARNING L16: UNCALLED SEGMENT, IGNORED FOR OVERLAY PROCESS
    SEGMENT: ?PR?SPI_INIT?MPU9250

*** WARNING L16: UNCALLED SEGMENT, IGNORED FOR OVERLAY PROCESS
    SEGMENT: ?PR?INIT_MPU9250?MPU9250

*** WARNING L16: UNCALLED SEGMENT, IGNORED FOR OVERLAY PROCESS
    SEGMENT: ?PR?READ_MPU9250_ACCEL?MPU9250

*** WARNING L16: UNCALLED SEGMENT, IGNORED FOR OVERLAY PROCESS
    SEGMENT: ?PR?READ_MPU9250_GYRO?MPU9250

*** WARNING L16: UNCALLED SEGMENT, IGNORED FOR OVERLAY PROCESS
    SEGMENT: ?PR?READ_MPU9250_MAG?MPU9250

*** WARNING L16: UNCALLED SEGMENT, IGNORED FOR OVERLAY PROCESS
    SEGMENT: ?PR?_DISABLEJY901?MPU9250_SBUF

*** WARNING L16: UNCALLED SEGMENT, IGNORED FOR OVERLAY PROCESS
    SEGMENT: ?PR?_CLOSEJY901SBUFMODE?MPU9250_SBUF

*** WARNING L16: UNCALLED SEGMENT, IGNORED FOR OVERLAY PROCESS
    SEGMENT: ?PR?_GETJY901ACCELERATION?MPU9250_SBUF

*** WARNING L16: UNCALLED SEGMENT, IGNORED FOR OVERLAY PROCESS
    SEGMENT: ?PR?_GETJY901PALSTANCE?MPU9250_SBUF

*** WARNING L16: UNCALLED SEGMENT, IGNORED FOR OVERLAY PROCESS
    SEGMENT: ?PR?_GETJY901MAGNETIC?MPU9250_SBUF

*** WARNING L16: UNCALLED SEGMENT, IGNORED FOR OVERLAY PROCESS
    SEGMENT: ?PR?_SETRELAY?RELAY

*** WARNING L16: UNCALLED SEGMENT, IGNORED FOR OVERLAY PROCESS
    SEGMENT: ?PR?_UNSETRELAY?RELAY

*** WARNING L16: UNCALLED SEGMENT, IGNORED FOR OVERLAY PROCESS
    SEGMENT: ?PR?RELAY_INIT?RELAY

*** WARNING L16: UNCALLED SEGMENT, IGNORED FOR OVERLAY PROCESS
    SEGMENT: ?PR?_TM1638LEDDISPLAY?TM1638

*** WARNING L16: UNCALLED SEGMENT, IGNORED FOR OVERLAY PROCESS
    SEGMENT: ?PR?CLOSETM1638DISPLAY?TM1638

*** WARNING L16: UNCALLED SEGMENT, IGNORED FOR OVERLAY PROCESS
    SEGMENT: ?PR?_ADC_POWERCONTROL?ADC

*** WARNING L16: UNCALLED SEGMENT, IGNORED FOR OVERLAY PROCESS
    SEGMENT: ?PR?_EEPROM_READ_N?STC15_EEPROM

*** WARNING L16: UNCALLED SEGMENT, IGNORED FOR OVERLAY PROCESS
    SEGMENT: ?PR?_EEPROM_SECTORERASE?STC15_EEPROM

*** WARNING L16: UNCALLED SEGMENT, IGNORED FOR OVERLAY PROCESS
    SEGMENT: ?PR?_EEPROM_WRITE_N?STC15_EEPROM

BL51 BANKED LINKER/LOCATER V6.00                                                      08/02/2017  18:22:39  PAGE 120


*** WARNING L16: UNCALLED SEGMENT, IGNORED FOR OVERLAY PROCESS
    SEGMENT: ?PR?_EXT_INILIZE?STC15_EXTI

*** WARNING L16: UNCALLED SEGMENT, IGNORED FOR OVERLAY PROCESS
    SEGMENT: ?PR?_SETPINSTATE?GPIO

*** WARNING L16: UNCALLED SEGMENT, IGNORED FOR OVERLAY PROCESS
    SEGMENT: ?PR?_IIC_WRDATTOADD?STC15_IIC

*** WARNING L16: UNCALLED SEGMENT, IGNORED FOR OVERLAY PROCESS
    SEGMENT: ?PR?_IIC_RDDATFROMADD?STC15_IIC

*** WARNING L16: UNCALLED SEGMENT, IGNORED FOR OVERLAY PROCESS
    SEGMENT: ?PR?_PWMN_UPDATE?PCA

*** WARNING L16: UNCALLED SEGMENT, IGNORED FOR OVERLAY PROCESS
    SEGMENT: ?PR?_PCA_INIT?PCA

*** WARNING L16: UNCALLED SEGMENT, IGNORED FOR OVERLAY PROCESS
    SEGMENT: ?PR?_PWMOUTPUT?PCA

*** WARNING L16: UNCALLED SEGMENT, IGNORED FOR OVERLAY PROCESS
    SEGMENT: ?PR?_GET_PWM_PERIOD?STC15_PWM

*** WARNING L16: UNCALLED SEGMENT, IGNORED FOR OVERLAY PROCESS
    SEGMENT: ?PR?_GET_PWM_N_DUTY?STC15_PWM

*** WARNING L16: UNCALLED SEGMENT, IGNORED FOR OVERLAY PROCESS
    SEGMENT: ?PR?_GETPWM_DIV?STC15_PWM

*** WARNING L16: UNCALLED SEGMENT, IGNORED FOR OVERLAY PROCESS
    SEGMENT: ?PR?OPEN_PWM_ALL?STC15_PWM

*** WARNING L16: UNCALLED SEGMENT, IGNORED FOR OVERLAY PROCESS
    SEGMENT: ?PR?CLOSE_PWM_ALL?STC15_PWM

*** WARNING L16: UNCALLED SEGMENT, IGNORED FOR OVERLAY PROCESS
    SEGMENT: ?PR?_GET_PWM_N_STATE?STC15_PWM

*** WARNING L16: UNCALLED SEGMENT, IGNORED FOR OVERLAY PROCESS
    SEGMENT: ?PR?_SPI_INIT?STC15_SPI

*** WARNING L16: UNCALLED SEGMENT, IGNORED FOR OVERLAY PROCESS
    SEGMENT: ?PR?_SPI_WRITENBYTETOTXBUF?STC15_SPI

*** WARNING L16: UNCALLED SEGMENT, IGNORED FOR OVERLAY PROCESS
    SEGMENT: ?PR?SPI_TRIGTX?STC15_SPI

*** WARNING L16: UNCALLED SEGMENT, IGNORED FOR OVERLAY PROCESS
    SEGMENT: ?PR?_SPI_SPI_READTHENBYTETORXBUF?STC15_SPI

*** WARNING L16: UNCALLED SEGMENT, IGNORED FOR OVERLAY PROCESS
    SEGMENT: ?PR?_SETTIMEOUT?TIMER

*** WARNING L16: UNCALLED SEGMENT, IGNORED FOR OVERLAY PROCESS
    SEGMENT: ?PR?_GETTIMEROUT?TIMER

BL51 BANKED LINKER/LOCATER V6.00                                                      08/02/2017  18:22:39  PAGE 121


*** WARNING L16: UNCALLED SEGMENT, IGNORED FOR OVERLAY PROCESS
    SEGMENT: ?PR?_SETTIMERHERTZ?TIMER

*** WARNING L16: UNCALLED SEGMENT, IGNORED FOR OVERLAY PROCESS
    SEGMENT: ?PR?_GETTIMERHERTZ?TIMER

*** WARNING L16: UNCALLED SEGMENT, IGNORED FOR OVERLAY PROCESS
    SEGMENT: ?PR?_STOPTIMER?TIMER

*** WARNING L16: UNCALLED SEGMENT, IGNORED FOR OVERLAY PROCESS
    SEGMENT: ?PR?_ISSTOPPED?TIMER

*** WARNING L16: UNCALLED SEGMENT, IGNORED FOR OVERLAY PROCESS
    SEGMENT: ?PR?_ONRESTARTTIMER?TIMER

*** WARNING L16: UNCALLED SEGMENT, IGNORED FOR OVERLAY PROCESS
    SEGMENT: ?PR?GETMICROS?TIMER

*** WARNING L16: UNCALLED SEGMENT, IGNORED FOR OVERLAY PROCESS
    SEGMENT: ?PR?GETMILLIS?TIMER

*** WARNING L16: UNCALLED SEGMENT, IGNORED FOR OVERLAY PROCESS
    SEGMENT: ?PR?GETSECONDS?TIMER

*** WARNING L16: UNCALLED SEGMENT, IGNORED FOR OVERLAY PROCESS
    SEGMENT: ?PR?GETMINUTES?TIMER

*** WARNING L16: UNCALLED SEGMENT, IGNORED FOR OVERLAY PROCESS
    SEGMENT: ?PR?GETHOURS?TIMER

*** WARNING L16: UNCALLED SEGMENT, IGNORED FOR OVERLAY PROCESS
    SEGMENT: ?PR?GETDAYS?TIMER

*** WARNING L16: UNCALLED SEGMENT, IGNORED FOR OVERLAY PROCESS
    SEGMENT: ?PR?_PRINTSTRING2?USART1

*** WARNING L16: UNCALLED SEGMENT, IGNORED FOR OVERLAY PROCESS
    SEGMENT: ?PR?_PRINTSTRING3?USART1

*** WARNING L16: UNCALLED SEGMENT, IGNORED FOR OVERLAY PROCESS
    SEGMENT: ?PR?_PRINTSTRING4?USART1

*** WARNING L15: MULTIPLE CALL TO SEGMENT
    SEGMENT: ?PR?_DATASCOPE_GET_CHANNEL_DATA?DATASCOPE_DP
    CALLER1: ?PR?PRINTANGLEDATA?ABSTASK
    CALLER2: ?PR?PRINTADS1115?ABSTASK

*** WARNING L15: MULTIPLE CALL TO SEGMENT
    SEGMENT: ?PR?_FLOAT2BYTE?DATASCOPE_DP
    CALLER1: ?PR?PRINTANGLEDATA?ABSTASK
    CALLER2: ?PR?PRINTADS1115?ABSTASK

*** WARNING L15: MULTIPLE CALL TO SEGMENT
    SEGMENT: ?PR?_SENDSCOPEDATA?DATASCOPE_DP
    CALLER1: ?PR?PRINTANGLEDATA?ABSTASK
    CALLER2: ?PR?PRINTADS1115?ABSTASK

BL51 BANKED LINKER/LOCATER V6.00                                                      08/02/2017  18:22:39  PAGE 122


******************************************************************************
* RESTRICTED VERSION WITH FFFFH BYTE CODE SIZE LIMIT; USED: 5981H BYTE (34%) *
******************************************************************************

Program Size: data=105.3 xdata=1913 code=27077
LINK/LOCATE RUN COMPLETE.  125 WARNING(S),  0 ERROR(S)
