BL51 BANKED LINKER/LOCATER V6.00                                                        08/07/2017  17:31:50  PAGE 1


BL51 BANKED LINKER/LOCATER V6.00, INVOKED BY:
C:\KEIL_V5\C51\BIN\BL51.EXE .\absTask.obj, .\setup.obj, .\mode.obj, .\FILTER.obj, .\PID.obj, .\DataScope_DP.obj, .\BUTTO
>> N.obj, .\LCD5510_V2.obj, .\LED.obj, .\MOTOR.obj, .\SERVO.obj, .\STEP_MOTOR.obj, .\ANGLE.obj, .\phSensor.obj, .\liquid
>> ometer.obj, .\speaker.obj, .\fixedPulser.obj, .\MT_1_L298N.obj, .\MPU9250_SBUF.obj, .\RELAY.obj, .\TM1638.obj, .\ADS1
>> 115.obj, .\74HC595.obj, .\DS1302.obj, .\hc_sr04.obj, .\ADC.obj, .\delay.obj, .\stc15_eeprom.obj, .\stc15_exti.obj, .\
>> GPIO.obj, .\stc15_iic.obj, .\PCA.obj, .\stc15_pwm.obj, .\stc15_spi.obj, .\timer.obj, .\USART1.obj, .\Conf_tny.obj TO 
>> 电子大赛程序框架 RTX51TINY RAMSIZE (256)


MEMORY MODEL: LARGE WITH FLOATING POINT ARITHMETIC


INPUT MODULES INCLUDED:
  .\absTask.obj (ABSTASK)
  .\setup.obj (SETUP)
  .\mode.obj (MODE)
  .\FILTER.obj (FILTER)
  .\PID.obj (PID)
  .\DataScope_DP.obj (DATASCOPE_DP)
  .\BUTTON.obj (BUTTON)
  .\LCD5510_V2.obj (LCD5510_V2)
  .\LED.obj (LED)
  .\MOTOR.obj (MOTOR)
  .\SERVO.obj (SERVO)
  .\STEP_MOTOR.obj (STEP_MOTOR)
  .\ANGLE.obj (ANGLE)
  .\phSensor.obj (PHSENSOR)
  .\liquidometer.obj (LIQUIDOMETER)
  .\speaker.obj (SPEAKER)
  .\fixedPulser.obj (FIXEDPULSER)
  .\MT_1_L298N.obj (MT_1_L298N)
  .\MPU9250_SBUF.obj (MPU9250_SBUF)
  .\RELAY.obj (RELAY)
  .\TM1638.obj (TM1638)
  .\ADS1115.obj (ADS1115)
  .\74HC595.obj (74HC595)
  .\DS1302.obj (DS1302)
  .\hc_sr04.obj (HC_SR04)
  .\ADC.obj (ADC)
  .\delay.obj (DELAY)
  .\stc15_eeprom.obj (STC15_EEPROM)
  .\stc15_exti.obj (STC15_EXTI)
  .\GPIO.obj (GPIO)
  .\stc15_iic.obj (STC15_IIC)
  .\PCA.obj (PCA)
  .\stc15_pwm.obj (STC15_PWM)
  .\stc15_spi.obj (STC15_SPI)
  .\timer.obj (TIMER)
  .\USART1.obj (USART1)
  .\Conf_tny.obj (?RTX51_TINY_KERNAL)
  C:\KEIL_V5\C51\LIB\RTX51TNY.LIB (?RTX51_TINY_OS_CREATE)
  C:\KEIL_V5\C51\LIB\RTX51TNY.LIB (?RTX51_TINY_OS_DELETE)
  C:\KEIL_V5\C51\LIB\RTX51TNY.LIB (?RTX51_TINY_OS_WAIT)
  C:\KEIL_V5\C51\LIB\C51FPL.LIB (?C?FPADD)
  C:\KEIL_V5\C51\LIB\C51FPL.LIB (?C?FPMUL)
  C:\KEIL_V5\C51\LIB\C51FPL.LIB (?C?FPDIV)
  C:\KEIL_V5\C51\LIB\C51FPL.LIB (?C?FPCMP)
  C:\KEIL_V5\C51\LIB\C51FPL.LIB (?C?FCAST)
BL51 BANKED LINKER/LOCATER V6.00                                                      08/07/2017  17:31:50  PAGE 2


  C:\KEIL_V5\C51\LIB\C51FPL.LIB (?C?CASTF)
  C:\KEIL_V5\C51\LIB\C51FPL.LIB (PRINTF)
  C:\KEIL_V5\C51\LIB\C51FPL.LIB (FABS)
  C:\KEIL_V5\C51\LIB\C51FPL.LIB (?C?FPGETOPN)
  C:\KEIL_V5\C51\LIB\C51FPL.LIB (?C?FPROUND)
  C:\KEIL_V5\C51\LIB\C51FPL.LIB (?C?FPCONVERT)
  C:\KEIL_V5\C51\LIB\C51FPL.LIB (?C?FTNPWR)
  C:\KEIL_V5\C51\LIB\C51L.LIB (?C_STARTUP)
  C:\KEIL_V5\C51\LIB\C51L.LIB (?C?COPY)
  C:\KEIL_V5\C51\LIB\C51L.LIB (?C?CLDPTR)
  C:\KEIL_V5\C51\LIB\C51L.LIB (?C?CLDOPTR)
  C:\KEIL_V5\C51\LIB\C51L.LIB (?C?CSTPTR)
  C:\KEIL_V5\C51\LIB\C51L.LIB (?C?CSTOPTR)
  C:\KEIL_V5\C51\LIB\C51L.LIB (?C?IMUL)
  C:\KEIL_V5\C51\LIB\C51L.LIB (?C?UIDIV)
  C:\KEIL_V5\C51\LIB\C51L.LIB (?C?IILDX)
  C:\KEIL_V5\C51\LIB\C51L.LIB (?C?ILDIX)
  C:\KEIL_V5\C51\LIB\C51L.LIB (?C?ILDPTR)
  C:\KEIL_V5\C51\LIB\C51L.LIB (?C?ILDOPTR)
  C:\KEIL_V5\C51\LIB\C51L.LIB (?C?LMUL)
  C:\KEIL_V5\C51\LIB\C51L.LIB (?C?ULDIV)
  C:\KEIL_V5\C51\LIB\C51L.LIB (?C?SLDIV)
  C:\KEIL_V5\C51\LIB\C51L.LIB (?C?LNEG)
  C:\KEIL_V5\C51\LIB\C51L.LIB (?C?ULCMP)
  C:\KEIL_V5\C51\LIB\C51L.LIB (?C?ULSHR)
  C:\KEIL_V5\C51\LIB\C51L.LIB (?C?LLDPTR)
  C:\KEIL_V5\C51\LIB\C51L.LIB (?C?LLDOPTR)
  C:\KEIL_V5\C51\LIB\C51L.LIB (?C?LLDOPTR0)
  C:\KEIL_V5\C51\LIB\C51L.LIB (?C?LSTXDATA)
  C:\KEIL_V5\C51\LIB\C51L.LIB (?C?LSTKXDATA)
  C:\KEIL_V5\C51\LIB\C51L.LIB (?C?OFFXADD)
  C:\KEIL_V5\C51\LIB\C51L.LIB (?C?PLDIXDATA)
  C:\KEIL_V5\C51\LIB\C51L.LIB (?C?PSTXDATA)
  C:\KEIL_V5\C51\LIB\C51L.LIB (?C?PLDPTR)
  C:\KEIL_V5\C51\LIB\C51L.LIB (?C?CCASE)
  C:\KEIL_V5\C51\LIB\C51L.LIB (?C?ICALL)
  C:\KEIL_V5\C51\LIB\C51L.LIB (PUTCHAR)
  C:\KEIL_V5\C51\LIB\C51L.LIB (ABS)
  C:\KEIL_V5\C51\LIB\C51L.LIB (MALLOC)
  C:\KEIL_V5\C51\LIB\C51L.LIB (FREE)
  C:\KEIL_V5\C51\LIB\C51L.LIB (?C_INIT)
  C:\KEIL_V5\C51\LIB\C51L.LIB (?C?LLDIDATA)
  C:\KEIL_V5\C51\LIB\C51L.LIB (?C?LLDXDATA)
  C:\KEIL_V5\C51\LIB\C51L.LIB (?C?LLDPDATA)
  C:\KEIL_V5\C51\LIB\C51L.LIB (?C?LLDCODE)
  C:\KEIL_V5\C51\LIB\C51L.LIB (?C?LLDIDATA0)
  C:\KEIL_V5\C51\LIB\C51L.LIB (?C?LLDXDATA0)
  C:\KEIL_V5\C51\LIB\C51L.LIB (?C?LLDPDATA0)
  C:\KEIL_V5\C51\LIB\C51L.LIB (?C?LLDCODE0)
  C:\KEIL_V5\C51\LIB\C51L.LIB (?C?PLDIDATA)
  C:\KEIL_V5\C51\LIB\C51L.LIB (?C?PLDXDATA)
  C:\KEIL_V5\C51\LIB\C51L.LIB (?C?PLDPDATA)
  C:\KEIL_V5\C51\LIB\C51L.LIB (?C?PLDCODE)
  C:\KEIL_V5\C51\LIB\C51L.LIB (INIT_MEM)


TASK TABLE OF MODULE:  电子大赛程序框架 (ABSTASK)
BL51 BANKED LINKER/LOCATER V6.00                                                      08/07/2017  17:31:50  PAGE 3



TASKID   PRIORITY   REG-BANK   SEGMENT NAME
-------------------------------------------
0        0          0          ?PR?TASKSTART?ABSTASK
1        0          0          ?PR?PRINTANGLEDATA?ABSTASK
2        0          0          ?PR?DATAUPDATE?ABSTASK
3        0          0          ?PR?PRINTADS1115?ABSTASK
4        0          0          ?PR?ABUTTONSCAN?ABSTASK
5        0          0          ?PR?PRINTDISTANCE?ABSTASK
6        0          0          ?PR?DISTANCEUPDATA?ABSTASK
7        0          0          ?PR?PRINTFBUTTON?ABSTASK
8        0          0          ?PR?BUZZ?ABSTASK
10       0          0          ?PR?BUTTONSOUND?ABSTASK
12       0          0          ?PR?DISTANCE?ABSTASK



LINK MAP OF MODULE:  电子大赛程序框架 (ABSTASK)


            TYPE    BASE      LENGTH    RELOCATION   SEGMENT NAME
            -----------------------------------------------------

            * * * * * * *   D A T A   M E M O R Y   * * * * * * *
            REG     0000H     0008H     ABSOLUTE     "REG BANK 0"
            DATA    0008H     0006H     ABSOLUTE     
            DATA    000EH     0008H     UNIT         ?DT?TM1638
            DATA    0016H     0005H     UNIT         _DATA_GROUP_
                    001BH     0005H                  *** GAP ***
            BIT     0020H.0   0001H.2   UNIT         _BIT_GROUP_
            BIT     0021H.2   0000H.3   UNIT         ?BI?PCA
            BIT     0021H.5   0000H.2   UNIT         ?BI?FIXEDPULSER
            BIT     0021H.7   0000H.1   UNIT         ?BI?LED
            BIT     0022H.0   0000H.1   UNIT         ?BI?_SETSTEPMOTORDIVERSION?STEP_MOTOR
            BIT     0022H.1   0000H.1   UNIT         ?BI?GETANGLE?ANGLE
            BIT     0022H.2   0000H.1   UNIT         ?BI?_SETPINSTATE?GPIO
            BIT     0022H.3   0000H.1   UNIT         ?RTX?BITS
                    0022H.4   0000H.4                *** GAP ***
            IDATA   0023H     0040H     UNIT         ?ID?STC15_SPI
            IDATA   0063H     001AH     UNIT         ?RTX?TASKSTATE?S
            IDATA   007DH     000DH     UNIT         ?RTX?TASKSP?S
            IDATA   008AH     0001H     UNIT         ?STACK

            * * * * * * *  X D A T A   M E M O R Y  * * * * * * *
            XDATA   0000H     0290H     UNIT         ?XD?USART1
            XDATA   0290H     01E3H     UNIT         _XDATA_GROUP_
            XDATA   0473H     01A6H     UNIT         ?XD?FILTER
            XDATA   0619H     00A3H     UNIT         ?XD?MPU9250_SBUF
            XDATA   06BCH     0082H     UNIT         ?XD?PID
            XDATA   073EH     0053H     UNIT         ?XD?_USART1_PRINTF?USART1
            XDATA   0791H     004AH     UNIT         ?XD?SERVO
            XDATA   07DBH     003CH     UNIT         ?XD?STC15_PWM
            XDATA   0817H     002EH     UNIT         ?XD?_COPESERIALDATA?MPU9250_SBUF
            XDATA   0845H     002AH     UNIT         ?XD?DATASCOPE_DP
            XDATA   086FH     0021H     UNIT         ?XD?_INIT_STR_MOTOR?SERVO
            XDATA   0890H     0020H     UNIT         ?XD?HC_SR04
            XDATA   08B0H     001CH     UNIT         ?XD?STEP_MOTOR
BL51 BANKED LINKER/LOCATER V6.00                                                      08/07/2017  17:31:50  PAGE 4


            XDATA   08CCH     0018H     UNIT         ?XD?FIXEDPULSER
            XDATA   08E4H     0016H     UNIT         ?XD?TIMER
            XDATA   08FAH     0015H     UNIT         ?XD?GETANGLE?ANGLE
            XDATA   090FH     0015H     UNIT         ?XD?PCA
            XDATA   0924H     0014H     UNIT         ?XD?_ITOA?USART1
            XDATA   0938H     0013H     UNIT         ?XD?_TM1638LEDDISPLAY?TM1638
            XDATA   094BH     0012H     UNIT         ?XD?DC_MOTOR_CONFIG?MOTOR
            XDATA   095DH     0010H     UNIT         ?XD?BUTTON
            XDATA   096DH     0010H     UNIT         ?XD?ADS1115
            XDATA   097DH     0010H     UNIT         ?XD?DS1302
            XDATA   098DH     000EH     UNIT         ?XD?_STEPMOTOR_INIT?STEP_MOTOR
            XDATA   099BH     000DH     UNIT         ?XD?_PID_CONFIG?PID
            XDATA   09A8H     000BH     UNIT         ?XD?_LCD_PRINTNUM_F?LCD5510_V2
            XDATA   09B3H     000AH     UNIT         ?XD?RELAY
            XDATA   09BDH     0009H     UNIT         ?XD?_SET_STR_ANGLE?SERVO
            XDATA   09C6H     0008H     UNIT         ?XD?ANGLE
            XDATA   09CEH     0008H     UNIT         ?XD?INIT_MEM
            XDATA   09D6H     0007H     UNIT         ?XD?_SETSTEPMOTORWITHPULSE?STEP_MOTOR
            XDATA   09DDH     0007H     UNIT         ?XD?_SETSTEPMOTORWITHDISTANCE?STEP_MOTOR
            XDATA   09E4H     0007H     UNIT         ?XD?_SETSTEPMOTORWITHANGLE?STEP_MOTOR
            XDATA   09EBH     0007H     UNIT         ?XD?_EEPROM_READ_N?STC15_EEPROM
            XDATA   09F2H     0007H     UNIT         ?XD?_EEPROM_WRITE_N?STC15_EEPROM
            XDATA   09F9H     0006H     UNIT         ?XD?_CHARTOLONG?MPU9250_SBUF
            XDATA   09FFH     0006H     UNIT         ?XD?_IIC_WRDATTOADD?STC15_IIC
            XDATA   0A05H     0006H     UNIT         ?XD?_IIC_RDDATFROMADD?STC15_IIC
            XDATA   0A0BH     0005H     UNIT         ?XD?_SETPARAMETERINFERIORLIMIT?PID
            XDATA   0A10H     0005H     UNIT         ?XD?_SETPARAMETERUPPERLIMIT?PID
            XDATA   0A15H     0005H     UNIT         ?XD?_SETACTUALPARAMETER?PID
            XDATA   0A1AH     0005H     UNIT         ?XD?_SETKI?PID
            XDATA   0A1FH     0005H     UNIT         ?XD?_SETKP?PID
            XDATA   0A24H     0005H     UNIT         ?XD?_SETKD?PID
            XDATA   0A29H     0005H     UNIT         ?XD?_SETPARAMETER?PID
            XDATA   0A2EH     0005H     UNIT         ?XD?_SETMAXERROR?PID
            XDATA   0A33H     0005H     UNIT         ?XD?_LCD_PRINTS?LCD5510_V2
            XDATA   0A38H     0005H     UNIT         ?XD?_SETDC_MOTORSPEED?MOTOR
            XDATA   0A3DH     0005H     UNIT         ?XD?_SET_PWM_DUTY?STC15_PWM
            XDATA   0A42H     0004H     UNIT         ?XD?MOTOR
            XDATA   0A46H     0004H     UNIT         ?XD?_HC595_INIT?74HC595
            XDATA   0A4AH     0004H     UNIT         ?XD?STC15_SPI
            XDATA   0A4EH     0003H     UNIT         ?XD?_INTEGRAL_SEPARA_PID?PID
            XDATA   0A51H     0003H     UNIT         ?XD?_ANTI_WINDUP_PID?PID
            XDATA   0A54H     0003H     UNIT         ?XD?_TRAPEZOIDAL_INTEGRAL_PID?PID
            XDATA   0A57H     0003H     UNIT         ?XD?_PCA_INIT?PCA
            XDATA   0A5AH     0003H     UNIT         ?XD?_PWMOUTPUT?PCA
            XDATA   0A5DH     0002H     UNIT         ?XD?_SETSTEPMOTORWITHROUND?STEP_MOTOR
            XDATA   0A5FH     0002H     UNIT         ?XD?_SETSPEAKERPERIOD?SPEAKER
            XDATA   0A61H     0002H     UNIT         ?XD?_SETLENGTH?SPEAKER
            XDATA   0A63H     0002H     UNIT         ?XD?RELAY_INIT?RELAY
            XDATA   0A65H     0002H     UNIT         ?XD?_DS1302_READ_BYTE?DS1302
            XDATA   0A67H     0002H     UNIT         ?XD?DS1302_INIT?DS1302
            XDATA   0A69H     0002H     UNIT         ?XD?_SET_PWM_PERIOD?STC15_PWM
            XDATA   0A6BH     0002H     UNIT         ?XD?_PWM_INILIZE?STC15_PWM
            XDATA   0A6DH     0001H     UNIT         ?XD?_POSITION_PID?PID
            XDATA   0A6EH     0001H     UNIT         ?XD?_INCREMENTAL_PID?PID
            XDATA   0A6FH     0001H     UNIT         ?XD?_POSCLASSPID?PID
            XDATA   0A70H     0001H     UNIT         ?XD?_BOARD_LED_PWM?LED
            XDATA   0A71H     0001H     UNIT         ?XD?_OPEN_DC_MOTOR?MOTOR
BL51 BANKED LINKER/LOCATER V6.00                                                      08/07/2017  17:31:50  PAGE 5


            XDATA   0A72H     0001H     UNIT         ?XD?_CLOSE_DC_MOTOR?MOTOR
            XDATA   0A73H     0001H     UNIT         ?XD?_OPEN_STR?SERVO
            XDATA   0A74H     0001H     UNIT         ?XD?_CLOSE_STR?SERVO
            XDATA   0A75H     0001H     UNIT         ?XD?_CLOSE_STEPMOTOR?STEP_MOTOR
            XDATA   0A76H     0001H     UNIT         ?XD?_OPEN_SPEAKER?SPEAKER
            XDATA   0A77H     0001H     UNIT         ?XD?_CLOSE_SPEAKER?SPEAKER
            XDATA   0A78H     0001H     UNIT         ?XD?_HC595SENDDATA?74HC595

            * * * * * * *   C O D E   M E M O R Y   * * * * * * *
            CODE    0000H     0003H     ABSOLUTE     
            CODE    0003H     0003H     ABSOLUTE     
                    0006H     0005H                  *** GAP ***
            CODE    000BH     0003H     ABSOLUTE     
                    000EH     0005H                  *** GAP ***
            CODE    0013H     0003H     ABSOLUTE     
                    0016H     000DH                  *** GAP ***
            CODE    0023H     0003H     ABSOLUTE     
                    0026H     0005H                  *** GAP ***
            CODE    002BH     0003H     ABSOLUTE     
                    002EH     000DH                  *** GAP ***
            CODE    003BH     0003H     ABSOLUTE     
                    003EH     0005H                  *** GAP ***
            CODE    0043H     0003H     ABSOLUTE     
                    0046H     0005H                  *** GAP ***
            CODE    004BH     0003H     ABSOLUTE     
                    004EH     0005H                  *** GAP ***
            CODE    0053H     0003H     ABSOLUTE     
                    0056H     0005H                  *** GAP ***
            CODE    005BH     0003H     ABSOLUTE     
                    005EH     0005H                  *** GAP ***
            CODE    0063H     0003H     ABSOLUTE     
                    0066H     001DH                  *** GAP ***
            CODE    0083H     0003H     ABSOLUTE     
                    0086H     0005H                  *** GAP ***
            CODE    008BH     0003H     ABSOLUTE     
                    008EH     0005H                  *** GAP ***
            CODE    0093H     0003H     ABSOLUTE     
                    0096H     0005H                  *** GAP ***
            CODE    009BH     0003H     ABSOLUTE     
                    009EH     0005H                  *** GAP ***
            CODE    00A3H     0003H     ABSOLUTE     
                    00A6H     075AH                  *** GAP ***
            CODE    0800H     0AF7H     UNIT         ?C?LIB_CODE
            CODE    12F7H     06E0H     UNIT         ?PR?_USART_CONFIGURATION?USART1
            CODE    19D7H     049AH     UNIT         ?PR?_COPESERIALDATA?MPU9250_SBUF
            CODE    1E71H     0483H     UNIT         ?PR?PRINTF?PRINTF
            CODE    22F4H     03E1H     UNIT         ?PR?_TRAPEZOIDAL_INTEGRAL_PID?PID
            CODE    26D5H     03D8H     UNIT         ?PR?_ANTI_WINDUP_PID?PID
            CODE    2AADH     039AH     UNIT         ?PR?_PWM_INILIZE?STC15_PWM
            CODE    2E47H     0393H     UNIT         ?PR?_TM1638LEDDISPLAY?TM1638
            CODE    31DAH     033AH     UNIT         ?PR?_USART1_PRINTF?USART1
            CODE    3514H     02E3H     UNIT         ?RTX?CODE
            CODE    37F7H     026AH     UNIT         ?CO?LCD5510_V2
            CODE    3A61H     0252H     UNIT         ?PR?_TIMER_INILIZE?TIMER
            CODE    3CB3H     0246H     UNIT         ?PR?_INTEGRAL_SEPARA_PID?PID
            CODE    3EF9H     01DCH     UNIT         ?PR?_POSITION_PID?PID
            CODE    40D5H     01D4H     UNIT         ?PR?_INIT_STR_MOTOR?SERVO
BL51 BANKED LINKER/LOCATER V6.00                                                      08/07/2017  17:31:50  PAGE 6


            CODE    42A9H     01CBH     UNIT         ?PR?_FILTER?FILTER
            CODE    4474H     01C4H     UNIT         ?PR?_GPIO_INILIZE?GPIO
            CODE    4638H     01A0H     UNIT         ?PR?_INCREMENTAL_PID?PID
            CODE    47D8H     019FH     UNIT         ?PR?_PCA_INIT?PCA
            CODE    4977H     0183H     UNIT         ?PR?_ITOA?USART1
            CODE    4AFAH     016DH     UNIT         ?PR?DISTANCE?ABSTASK
            CODE    4C67H     0152H     UNIT         ?PR?_KALMANFILTER?FILTER
            CODE    4DB9H     0146H     UNIT         ?PR?_PID_CONFIG?PID
            CODE    4EFFH     013EH     UNIT         ?PR?_FREE?FREE
            CODE    503DH     013DH     UNIT         ?PR?_PWMOUTPUT?PCA
            CODE    517AH     013BH     UNIT         ?PR?GETBUTTONNUM?TM1638
            CODE    52B5H     0134H     UNIT         ?PR?_DATASCOPE_GET_CHANNEL_DATA?DATASCOPE_DP
            CODE    53E9H     0116H     UNIT         ?PR?_SET_STR_ANGLE?SERVO
            CODE    54FFH     00ECH     UNIT         ?PR?_SETPULSE?FIXEDPULSER
            CODE    55EBH     00E4H     UNIT         ?PR?_SET_PWM_DUTY?STC15_PWM
            CODE    56CFH     00D1H     UNIT         ?PR?_MALLOC?MALLOC
            CODE    57A0H     00CEH     UNIT         ?PR?DISTANCEUPDATA?ABSTASK
            CODE    586EH     00C7H     UNIT         ?PR?_SETSTEPMOTORWITHDISTANCE?STEP_MOTOR
            CODE    5935H     00C4H     UNIT         ?C_INITSEG
            CODE    59F9H     00C2H     UNIT         ?PR?_BUZZ?SPEAKER
            CODE    5ABBH     00B6H     UNIT         ?PR?_EXT_INILIZE?STC15_EXTI
            CODE    5B71H     00B4H     UNIT         ?PR?_MOVINGAVERAGEFILTER?FILTER
            CODE    5C25H     00AFH     UNIT         ?PR?UART1_INT?USART1
            CODE    5CD4H     00AEH     UNIT         ?PR?_PWMN_UPDATE?PCA
            CODE    5D82H     00AAH     UNIT         ?PR?_FLOAT2BYTE?DATASCOPE_DP
            CODE    5E2CH     00A5H     UNIT         ?PR?_DATASCOPE_DATA_GENERATE?DATASCOPE_DP
            CODE    5ED1H     00A3H     UNIT         ?PR?PCA_HANDLER?PCA
            CODE    5F74H     009FH     UNIT         ?PR?_STEPMOTOR_INIT?STEP_MOTOR
            CODE    6013H     009AH     UNIT         ?PR?_PWM_SET_T12_PERIOD?STC15_PWM
            CODE    60ADH     0094H     UNIT         ?PR?DS1302_WRITE_TIME?DS1302
            CODE    6141H     0093H     UNIT         ?PR?_CHARTOLONG?MPU9250_SBUF
            CODE    61D4H     0092H     UNIT         ?PR?_SETDC_MOTORSPEED?MOTOR
            CODE    6266H     0091H     UNIT         ?PR?_SPI_INIT?STC15_SPI
            CODE    62F7H     008DH     UNIT         ?PR?DS1302_READ_TIME?DS1302
            CODE    6384H     008CH     UNIT         ?C_C51STARTUP
            CODE    6410H     008AH     UNIT         ?PR?_SHUDDERINGFILTER?FILTER
            CODE    649AH     0086H     UNIT         ?PR?_RELAYKEYCHANGE?RELAY
            CODE    6520H     0085H     UNIT         ?PR?UART2_INT?USART1
            CODE    65A5H     0085H     UNIT         ?PR?UART3_INT?USART1
            CODE    662AH     0085H     UNIT         ?PR?UART4_INT?USART1
            CODE    66AFH     007CH     UNIT         ?PR?TIMERINIT?TIMER
            CODE    672BH     007BH     UNIT         ?PR?PULSER_1INT?FIXEDPULSER
            CODE    67A6H     007BH     UNIT         ?PR?PULSER_2INT?FIXEDPULSER
            CODE    6821H     0079H     UNIT         ?PR?GETANGLE?ANGLE
            CODE    689AH     0070H     UNIT         ?PR?_LCD_PRINTNUM_F?LCD5510_V2
            CODE    690AH     006FH     UNIT         ?PR?_DS1302_READ_BYTE?DS1302
            CODE    6979H     006BH     UNIT         ?PR?DC_MOTOR_CONFIG?MOTOR
            CODE    69E4H     0069H     UNIT         ?PR?PRINTADS1115?ABSTASK
            CODE    6A4DH     0069H     UNIT         ?PR?EXT_INT0?HC_SR04
            CODE    6AB6H     0065H     UNIT         ?PR?_LCD_PRINTNUM_I?LCD5510_V2
            CODE    6B1BH     0065H     UNIT         ?PR?_SETSTEPMOTORWITHANGLE?STEP_MOTOR
            CODE    6B80H     0063H     UNIT         ?PR?_LIMITINGFILTER?FILTER
            CODE    6BE3H     0062H     UNIT         ?PR?TEST?SETUP
            CODE    6C45H     0061H     UNIT         ?PR?_SET_PWM_PERIOD?STC15_PWM
            CODE    6CA6H     005EH     UNIT         ?PR?_GET_ADC10BITRESULT?ADC
            CODE    6D04H     005BH     UNIT         ?PR?DATAUPDATE?ABSTASK
            CODE    6D5FH     0059H     UNIT         ?PR?SETUP?SETUP
BL51 BANKED LINKER/LOCATER V6.00                                                      08/07/2017  17:31:50  PAGE 7


            CODE    6DB8H     0055H     UNIT         ?PR?SPI_TRANSIVION?STC15_SPI
            CODE    6E0DH     0054H     UNIT         ?PR?_LCD_PRINTSL?LCD5510_V2
            CODE    6E61H     0053H     UNIT         ?PR?_ADC_INILIZE?ADC
            CODE    6EB4H     0053H     UNIT         ?PR?_IIC_RDDATFROMADD?STC15_IIC
            CODE    6F07H     0050H     UNIT         ?PR?PRINTFBUTTON?ABSTASK
            CODE    6F57H     004AH     UNIT         ?PR?_GETJY901ACCELERATION?MPU9250_SBUF
            CODE    6FA1H     004AH     UNIT         ?PR?_GETJY901PALSTANCE?MPU9250_SBUF
            CODE    6FEBH     0048H     UNIT         ?PR?_WRITECONFIGREGISTER?ADS1115
            CODE    7033H     0048H     UNIT         ?PR?TIMER4_INT?TIMER
            CODE    707BH     0047H     UNIT         ?CO?SETUP
            CODE    70C2H     0047H     UNIT         ?PR?GETTM1638READ?TM1638
            CODE    7109H     0046H     UNIT         ?PR?HC_SR04_INIT?HC_SR04
            CODE    714FH     0045H     UNIT         ?PR?_POSCLASSPID?PID
            CODE    7194H     0044H     UNIT         ?C?LDIV
            CODE    71D8H     0043H     UNIT         ?PR?LCD5510_INIT?LCD5510_V2
            CODE    721BH     0040H     UNIT         ?PR?PRINTANGLEDATA?ABSTASK
            CODE    725BH     003FH     UNIT         ?PR?_EEPROM_READ_N?STC15_EEPROM
            CODE    729AH     003FH     UNIT         ?PR?_EEPROM_WRITE_N?STC15_EEPROM
            CODE    72D9H     003EH     UNIT         ?PR?_DS1302_WRITE_BYTE?DS1302
            CODE    7317H     003DH     UNIT         ?PR?_LCD_PRINTC?LCD5510_V2
            CODE    7354H     003CH     UNIT         ?PR?_SETTM1638WRITE?TM1638
            CODE    7390H     003CH     UNIT         ?PR?_INIT_MEMPOOL?INIT_MEM
            CODE    73CCH     003BH     UNIT         ?PR?_LCD_PRINTS?LCD5510_V2
            CODE    7407H     003BH     UNIT         ?PR?_INITJY901?MPU9250_SBUF
            CODE    7442H     003BH     UNIT         ?PR?_CLOSERELAYMODULAR?RELAY
            CODE    747DH     0039H     UNIT         ?PR?_SETSTEPMOTORWITHROUND?STEP_MOTOR
            CODE    74B6H     0038H     UNIT         ?PR?BUTTONSCAN?BUTTON
            CODE    74EEH     0036H     UNIT         ?PR?_GETJY901MAGNETIC?MPU9250_SBUF
            CODE    7524H     0036H     UNIT         ?PR?_IIC_WRDATTOADD?STC15_IIC
            CODE    755AH     0035H     UNIT         ?PR?BUZZ?ABSTASK
            CODE    758FH     0035H     UNIT         ?PR?_UART1_INIT?SETUP
            CODE    75C4H     0033H     UNIT         ?PR?READCONVERSIONREGISTER?ADS1115
            CODE    75F7H     0032H     UNIT         ?PR?_GETJY901ANGLE?MPU9250_SBUF
            CODE    7629H     0031H     UNIT         ?PR?_SENDSCOPEDATA?DATASCOPE_DP
            CODE    765AH     0031H     UNIT         ?PR?_CLOSERELAYKEY?RELAY
            CODE    768BH     0030H     UNIT         ?PR?_OPENRELAYKEY?RELAY
            CODE    76BBH     002FH     UNIT         ?PR?INIT_TM1638?TM1638
            CODE    76EAH     002EH     UNIT         ?PR?_DELAY_US?DELAY
            CODE    7718H     002DH     UNIT         ?PR?PULSERINIT?FIXEDPULSER
            CODE    7745H     002DH     UNIT         ?PR?DS1302_INIT?DS1302
            CODE    7772H     0029H     UNIT         ?PR?_SETTIMEOUT?TIMER
            CODE    779BH     0028H     UNIT         ?PR?BOARD_LED_INIT?LED
            CODE    77C3H     0028H     UNIT         ?PR?_OPEN_PWM_N?STC15_PWM
            CODE    77EBH     0028H     UNIT         ?PR?_TX2_WRITE2BUFF?USART1
            CODE    7813H     0028H     UNIT         ?PR?_TX3_WRITE2BUFF?USART1
            CODE    783BH     0028H     UNIT         ?PR?_TX4_WRITE2BUFF?USART1
            CODE    7863H     0027H     UNIT         ?PR?IIC_RDACK?STC15_IIC
            CODE    788AH     0027H     UNIT         ?PR?SPI_TRIGTX?STC15_SPI
            CODE    78B1H     0027H     UNIT         ?PR?_TX1_WRITE2BUFF?USART1
            CODE    78D8H     0027H     UNIT         ?PR?PUTCHAR?PUTCHAR
            CODE    78FFH     0026H     UNIT         ?PR?_INPUTONEBYTE?STC15_IIC
            CODE    7925H     0025H     UNIT         ?PR?_SETSTEPMOTORWITHPULSE?STEP_MOTOR
            CODE    794AH     0025H     UNIT         ?PR?_CLOSE_PWM_N?STC15_PWM
            CODE    796FH     0024H     UNIT         ?PR?SPEAKER_INIT?SPEAKER
            CODE    7993H     0024H     UNIT         ?PR?OUTPUTONEBYTE?STC15_IIC
            CODE    79B7H     0024H     UNIT         ?PR?SPI_SPI_READBYTETORXBUF?STC15_SPI
            CODE    79DBH     0022H     UNIT         ?PR?_BLINK?LED
BL51 BANKED LINKER/LOCATER V6.00                                                      08/07/2017  17:31:50  PAGE 8


            CODE    79FDH     0021H     UNIT         ?PR?_SETPARAMETERINFERIORLIMIT?PID
            CODE    7A1EH     0021H     UNIT         ?PR?_SETPARAMETERUPPERLIMIT?PID
            CODE    7A3FH     0021H     UNIT         ?PR?_SETACTUALPARAMETER?PID
            CODE    7A60H     0021H     UNIT         ?PR?_SETKI?PID
            CODE    7A81H     0021H     UNIT         ?PR?_SETKP?PID
            CODE    7AA2H     0021H     UNIT         ?PR?_SETKD?PID
            CODE    7AC3H     0021H     UNIT         ?PR?_SETPARAMETER?PID
            CODE    7AE4H     0021H     UNIT         ?PR?_SETMAXERROR?PID
            CODE    7B05H     0021H     UNIT         ?PR?LCD_CLR_SCR?LCD5510_V2
            CODE    7B26H     0021H     UNIT         ?PR?BUZZSUCCEED?SPEAKER
            CODE    7B47H     0021H     UNIT         ?PR?BUZZFAILED?SPEAKER
            CODE    7B68H     0021H     UNIT         ?PR?_SETDISTANCE?HC_SR04
            CODE    7B89H     0020H     UNIT         ?PR?_LCD_WRITE_BYTE?LCD5510_V2
            CODE    7BA9H     0020H     UNIT         ?PR?_OPEN_STR?SERVO
            CODE    7BC9H     0020H     UNIT         ?PR?_EEPROM_SECTORERASE?STC15_EEPROM
            CODE    7BE9H     001FH     UNIT         ?PR?PRINTDISTANCE?ABSTASK
            CODE    7C08H     001FH     UNIT         ?PR?_CLOSE_STR?SERVO
            CODE    7C27H     001FH     UNIT         ?PR?_SETTM1638COM?TM1638
            CODE    7C46H     001FH     UNIT         ?PR?_UPDATEDISTANCE?HC_SR04
            CODE    7C65H     001FH     UNIT         ?PR?_PWM_SET_PERIOD?STC15_PWM
            CODE    7C84H     001FH     UNIT         ?PR?_SPI_WRITENBYTETOTXBUF?STC15_SPI
            CODE    7CA3H     001FH     UNIT         ?PR?_ISACTIVETIMER?TIMER
            CODE    7CC2H     001FH     UNIT         ?PR?_ISEXPIREDTIMER?TIMER
            CODE    7CE1H     001EH     UNIT         ?PR?_OPEN_DC_MOTOR?MOTOR
            CODE    7CFFH     001EH     UNIT         ?PR?_OPENPULSER?FIXEDPULSER
            CODE    7D1DH     001EH     UNIT         ?PR?_GETADS1115CONVSIONDATA?ADS1115
            CODE    7D3BH     001DH     UNIT         ?PR?_CLOSE_DC_MOTOR?MOTOR
            CODE    7D58H     001DH     UNIT         ?PR?_CLOSE_STEPMOTOR?STEP_MOTOR
            CODE    7D75H     001DH     UNIT         ?PR?_CLOSEPULSER?FIXEDPULSER
            CODE    7D92H     001DH     UNIT         ?PR?_ISSTOPPED?TIMER
            CODE    7DAFH     001CH     UNIT         ?PR?_FREESTEPMOTOR?STEP_MOTOR
            CODE    7DCBH     001CH     UNIT         ?PR?_LOCKSTEPMOTOR?STEP_MOTOR
            CODE    7DE7H     001CH     UNIT         ?PR?_ADC_CONFIG?ANGLE
            CODE    7E03H     001CH     UNIT         ?PR?_SETTIMERHERTZ?TIMER
            CODE    7E1FH     001BH     UNIT         ?PR?_GETBUTTONSTATE?BUTTON
            CODE    7E3AH     001BH     UNIT         ?PR?_SETSTEPMOTORDIVERSION?STEP_MOTOR
            CODE    7E55H     001BH     UNIT         ?PR?_SPI_SPI_READTHENBYTETORXBUF?STC15_SPI
            CODE    7E70H     001AH     UNIT         ?PR?_GETPARAMETER?PID
            CODE    7E8AH     001AH     UNIT         ?PR?_GETERR?PID
            CODE    7EA4H     001AH     UNIT         ?PR?_GETERRLAST?PID
            CODE    7EBEH     001AH     UNIT         ?PR?_GETKP?PID
            CODE    7ED8H     001AH     UNIT         ?PR?_GETKI?PID
            CODE    7EF2H     001AH     UNIT         ?PR?_GETKD?PID
            CODE    7F0CH     001AH     UNIT         ?PR?_GETOUTPUT?PID
            CODE    7F26H     001AH     UNIT         ?PR?_GETINTEGRAL?PID
            CODE    7F40H     001AH     UNIT         ?PR?_READ_STR_ANGLE?SERVO
            CODE    7F5AH     001AH     UNIT         ?PR?_ADS1115_CONFIG?ADS1115
            CODE    7F74H     001AH     UNIT         ?PR?_GETDISTANCE?HC_SR04
            CODE    7F8EH     001AH     UNIT         ?PR?_GET_PWM_PERIOD?STC15_PWM
            CODE    7FA8H     001AH     UNIT         ?PR?_GET_PWM_N_DUTY?STC15_PWM
            CODE    7FC2H     001AH     UNIT         ?PR?_GETTIMEROUT?TIMER
            CODE    7FDCH     001AH     UNIT         ?PR?_GETTIMERHERTZ?TIMER
            CODE    7FF6H     001AH     UNIT         ?RTX?TASKENT?S
            CODE    8010H     0019H     UNIT         ?PR?_INCCLASSPID?PID
            CODE    8029H     0019H     UNIT         ?PR?_HC595_INIT?74HC595
            CODE    8042H     0019H     UNIT         ?PR?_IIC_WRDEVADDANDDATADD?STC15_IIC
            CODE    805BH     0017H     UNIT         ?PR?BUTTON_CONFIG?BUTTON
BL51 BANKED LINKER/LOCATER V6.00                                                      08/07/2017  17:31:50  PAGE 9


            CODE    8072H     0017H     UNIT         ?PR?_PRINTSTRING1?USART1
            CODE    8089H     0016H     UNIT         ?CO?TM1638
            CODE    809FH     0016H     UNIT         ?PR?CHANGEREGISTER?ADS1115
            CODE    80B5H     0015H     UNIT         ?PR?BUTTONSOUND?ABSTASK
            CODE    80CAH     0015H     UNIT         ?PR?_RESTARTTIMER?TIMER
            CODE    80DFH     0014H     UNIT         ?PR?_LCD_POS_BYTE?LCD5510_V2
            CODE    80F3H     0014H     UNIT         ?PR?RELAY_INIT?RELAY
            CODE    8107H     0014H     UNIT         ?PR?_SETTIMERVALUE?HC_SR04
            CODE    811BH     0014H     UNIT         ?PR?_GETTIMERVALUE?HC_SR04
            CODE    812FH     0014H     UNIT         ?PR?_SPI_WRITEBYTETOTXBUF?STC15_SPI
            CODE    8143H     0013H     UNIT         ?CO?ABSTASK
            CODE    8156H     0013H     UNIT         ?PR?_LCD_CLR_ROW?LCD5510_V2
            CODE    8169H     0013H     UNIT         ?PR?_OPEN_STEPMOTOR?STEP_MOTOR
            CODE    817CH     0013H     UNIT         ?PR?_PRINTSTRING2?USART1
            CODE    818FH     0013H     UNIT         ?PR?_PRINTSTRING3?USART1
            CODE    81A2H     0013H     UNIT         ?PR?_PRINTSTRING4?USART1
            CODE    81B5H     0012H     UNIT         ?PR?TASKSTART?ABSTASK
            CODE    81C7H     0012H     UNIT         ?PR?_OPENPID?PID
            CODE    81D9H     0012H     UNIT         ?PR?_GETPULSERSTATE?FIXEDPULSER
            CODE    81EBH     0012H     UNIT         ?PR?_ENABLEJY901?MPU9250_SBUF
            CODE    81FDH     0012H     UNIT         ?PR?_OPENJY901SBUFMODE?MPU9250_SBUF
            CODE    820FH     0012H     UNIT         ?PR?_OPENRELAYMODULAR?RELAY
            CODE    8221H     0012H     UNIT         ?PR?_OPEN_ADS1115?ADS1115
            CODE    8233H     0012H     UNIT         ?PR?_OPEN_HC_SR04?HC_SR04
            CODE    8245H     0012H     UNIT         ?PR?_GET_PWM_N_STATE?STC15_PWM
            CODE    8257H     0011H     UNIT         ?PR?_CLOSEPID?PID
            CODE    8268H     0011H     UNIT         ?PR?_GETSTEPMOTORSTATE?STEP_MOTOR
            CODE    8279H     0011H     UNIT         ?PR?_DISABLEJY901?MPU9250_SBUF
            CODE    828AH     0011H     UNIT         ?PR?_CLOSEJY901SBUFMODE?MPU9250_SBUF
            CODE    829BH     0011H     UNIT         ?PR?_CLOSE_ADS1115?ADS1115
            CODE    82ACH     0011H     UNIT         ?PR?_HC595SENDDATA?74HC595
            CODE    82BDH     0011H     UNIT         ?PR?_CLOSE_HC_SR04?HC_SR04
            CODE    82CEH     0011H     UNIT         ?PR?_GETHC_SR04_STATE?HC_SR04
            CODE    82DFH     0011H     UNIT         ?PR?_SETPWM_DIV?STC15_PWM
            CODE    82F0H     0011H     UNIT         ?PR?_GETPWM_DIV?STC15_PWM
            CODE    8301H     0011H     UNIT         ?PR?_SETUART1INTERRUPT?USART1
            CODE    8312H     0010H     UNIT         ?PR?_GETDC_MOTORSTATE?MOTOR
            CODE    8322H     0010H     UNIT         ?PR?_DELAY_MS?DELAY
            CODE    8332H     000FH     UNIT         ?PR?ABUTTONSCAN?ABSTASK
            CODE    8341H     000FH     UNIT         ?PR?_SETSTEPMOTORSTATE?STEP_MOTOR
            CODE    8350H     000FH     UNIT         ?CO?DS1302
            CODE    835FH     000EH     UNIT         ?PR?DISABLEEEPROM?STC15_EEPROM
            CODE    836DH     000EH     UNIT         ?PR?DELAY5US?STC15_IIC
            CODE    837BH     000EH     UNIT         ?PR?_ONRESTARTTIMER?TIMER
            CODE    8389H     000DH     UNIT         ?PR?IIC_ACK?STC15_IIC
            CODE    8396H     000DH     UNIT         ?PR?_STOPTIMER?TIMER
            CODE    83A3H     000DH     UNIT         ?PR?_FABS?FABS
            CODE    83B0H     000CH     UNIT         ?PR?_ADC_POWERCONTROL?ADC
            CODE    83BCH     000CH     UNIT         ?PR?_ABS?ABS
            CODE    83C8H     000BH     UNIT         ?PR?BUZZWAIT?SPEAKER
            CODE    83D3H     000BH     UNIT         ?PR?_SPI_SETMODE?STC15_SPI
            CODE    83DEH     000AH     UNIT         ?PR?IIC_START?STC15_IIC
            CODE    83E8H     000AH     UNIT         ?PR?IIC_NACK?STC15_IIC
            CODE    83F2H     000AH     UNIT         ?PR?OPEN_PWM_ALL?STC15_PWM
            CODE    83FCH     000AH     UNIT         ?PR?CLOSE_PWM_ALL?STC15_PWM
            CODE    8406H     0009H     UNIT         ?PR?_SETSPEAKERPERIOD?SPEAKER
            CODE    840FH     0009H     UNIT         ?PR?_SETLENGTH?SPEAKER
BL51 BANKED LINKER/LOCATER V6.00                                                      08/07/2017  17:31:50  PAGE 10


            CODE    8418H     0009H     UNIT         ?PR?SETCARFORWARD?MT_1_L298N
            CODE    8421H     0009H     UNIT         ?PR?SETCARBACK?MT_1_L298N
            CODE    842AH     0009H     UNIT         ?PR?SETCARSTOP?MT_1_L298N
            CODE    8433H     0009H     UNIT         ?PR?SETCARRIGHTFORWARD?MT_1_L298N
            CODE    843CH     0009H     UNIT         ?PR?SETCARRIGHTBACK?MT_1_L298N
            CODE    8445H     0009H     UNIT         ?PR?SETCARRIGHTTURN?MT_1_L298N
            CODE    844EH     0009H     UNIT         ?PR?SETCARLEFTFORWARD?MT_1_L298N
            CODE    8457H     0009H     UNIT         ?PR?SETCARLEFTBACK?MT_1_L298N
            CODE    8460H     0009H     UNIT         ?PR?SETCARLEFTTURN?MT_1_L298N
            CODE    8469H     0009H     UNIT         ?PR?GETMICROS?TIMER
            CODE    8472H     0009H     UNIT         ?PR?GETMILLIS?TIMER
            CODE    847BH     0006H     UNIT         ?PR?_BOARD_LED_PWM?LED
            CODE    8481H     0006H     UNIT         ?PR?_OPEN_SPEAKER?SPEAKER
            CODE    8487H     0006H     UNIT         ?PR?_CLOSE_SPEAKER?SPEAKER
            CODE    848DH     0006H     UNIT         ?PR?IIC_STOP?STC15_IIC
            CODE    8493H     0006H     UNIT         ?PR?GETSECONDS?TIMER
            CODE    8499H     0006H     UNIT         ?PR?GETMINUTES?TIMER
            CODE    849FH     0006H     UNIT         ?PR?GETHOURS?TIMER
            CODE    84A5H     0006H     UNIT         ?PR?GETDAYS?TIMER
            CODE    84ABH     0005H     UNIT         ?PR?OPEN_BOARD_LED?LED
            CODE    84B0H     0005H     UNIT         ?PR?CLOSE_BOARD_LED?LED
            CODE    84B5H     0005H     UNIT         ?PR?CLOSETM1638DISPLAY?TM1638
            CODE    84BAH     0004H     UNIT         ?PR?ADC_INT?ADC
            CODE    84BEH     0003H     UNIT         ?PR?GETBOARD_LED_STATE?LED
            CODE    84C1H     0003H     UNIT         ?PR?_SETPINSTATE?GPIO
            CODE    84C4H     0001H     UNIT         ?PR?MODE1?MODE
            CODE    84C5H     0001H     UNIT         ?PR?MODE2?MODE
            CODE    84C6H     0001H     UNIT         ?PR?MODE3?MODE
            CODE    84C7H     0001H     UNIT         ?PR?MODE4?MODE
            CODE    84C8H     0001H     UNIT         ?PR?MODELAUNCHER?MODE
            CODE    84C9H     0001H     UNIT         ?PR?EXT_INT1?STC15_EXTI
            CODE    84CAH     0001H     UNIT         ?PR?EXT_INT2?STC15_EXTI
            CODE    84CBH     0001H     UNIT         ?PR?EXT_INT3?STC15_EXTI
            CODE    84CCH     0001H     UNIT         ?PR?EXT_INT4?STC15_EXTI



OVERLAY MAP OF MODULE:   电子大赛程序框架 (ABSTASK)


SEGMENT                                             BIT_GROUP          DATA_GROUP          XDATA_GROUP
  +--> CALLED SEGMENT                            START    LENGTH     START    LENGTH     START    LENGTH
--------------------------------------------------------------------------------------------------------
?PR?TASKSTART?ABSTASK                            -----    -----      -----    -----      -----    -----
  +--> ?PR?SETUP?SETUP
  +--> ?PR?_BLINK?LED

?PR?SETUP?SETUP                                  -----    -----      -----    -----      -----    -----
  +--> ?PR?_UART1_INIT?SETUP
  +--> ?PR?TIMERINIT?TIMER
  +--> ?PR?BOARD_LED_INIT?LED
  +--> ?PR?LCD5510_INIT?LCD5510_V2
  +--> ?CO?SETUP
  +--> ?PR?_LCD_PRINTSL?LCD5510_V2
  +--> ?PR?LCD_CLR_SCR?LCD5510_V2
  +--> ?PR?BUTTON_CONFIG?BUTTON
  +--> ?PR?SPEAKER_INIT?SPEAKER
BL51 BANKED LINKER/LOCATER V6.00                                                      08/07/2017  17:31:50  PAGE 11


  +--> ?PR?_ADC_CONFIG?ANGLE
  +--> ?PR?_ADS1115_CONFIG?ADS1115
  +--> ?PR?HC_SR04_INIT?HC_SR04
  +--> ?PR?_OPEN_HC_SR04?HC_SR04
  +--> ?PR?_OPEN_ADS1115?ADS1115

?PR?_UART1_INIT?SETUP                            -----    -----      -----    -----      0290H    000DH
  +--> ?PR?_USART_CONFIGURATION?USART1
  +--> ?CO?SETUP
  +--> ?PR?_PRINTSTRING1?USART1

?PR?_USART_CONFIGURATION?USART1                  -----    -----      -----    -----      029DH    0009H

?PR?_PRINTSTRING1?USART1                         -----    -----      -----    -----      -----    -----
  +--> ?PR?_TX1_WRITE2BUFF?USART1

?PR?TIMERINIT?TIMER                              -----    -----      -----    -----      0290H    0021H
  +--> ?PR?_TIMER_INILIZE?TIMER

?PR?BOARD_LED_INIT?LED                           -----    -----      -----    -----      0290H    0002H
  +--> ?PR?_GPIO_INILIZE?GPIO
  +--> ?PR?OPEN_BOARD_LED?LED
  +--> ?PR?_DELAY_MS?DELAY
  +--> ?PR?CLOSE_BOARD_LED?LED

?PR?LCD5510_INIT?LCD5510_V2                      -----    -----      -----    -----      0290H    0002H
  +--> ?PR?_GPIO_INILIZE?GPIO
  +--> ?PR?_LCD_WRITE_BYTE?LCD5510_V2
  +--> ?PR?LCD_CLR_SCR?LCD5510_V2

?PR?LCD_CLR_SCR?LCD5510_V2                       -----    -----      -----    -----      -----    -----
  +--> ?PR?_LCD_WRITE_BYTE?LCD5510_V2

?PR?_LCD_PRINTSL?LCD5510_V2                      -----    -----      -----    -----      032AH    0005H
  +--> ?PR?_LCD_PRINTC?LCD5510_V2

?PR?_LCD_PRINTC?LCD5510_V2                       -----    -----      -----    -----      -----    -----
  +--> ?PR?_LCD_POS_BYTE?LCD5510_V2
  +--> ?CO?LCD5510_V2
  +--> ?PR?_LCD_WRITE_BYTE?LCD5510_V2

?PR?_LCD_POS_BYTE?LCD5510_V2                     -----    -----      -----    -----      -----    -----
  +--> ?PR?_LCD_WRITE_BYTE?LCD5510_V2

?PR?BUTTON_CONFIG?BUTTON                         -----    -----      -----    -----      0290H    0002H
  +--> ?PR?_GPIO_INILIZE?GPIO
  +--> ?PR?INIT_TM1638?TM1638

?PR?INIT_TM1638?TM1638                           -----    -----      -----    -----      0292H    0001H
  +--> ?PR?_SETTM1638COM?TM1638
  +--> ?PR?_SETTM1638WRITE?TM1638

?PR?_SETTM1638COM?TM1638                         -----    -----      -----    -----      0293H    0001H
  +--> ?PR?_DELAY_US?DELAY
  +--> ?PR?_SETTM1638WRITE?TM1638

?PR?_SETTM1638WRITE?TM1638                       -----    -----      -----    -----      0467H    0002H
BL51 BANKED LINKER/LOCATER V6.00                                                      08/07/2017  17:31:50  PAGE 12


  +--> ?PR?_DELAY_US?DELAY

?PR?SPEAKER_INIT?SPEAKER                         -----    -----      -----    -----      -----    -----
  +--> ?PR?PULSERINIT?FIXEDPULSER
  +--> ?PR?_BUZZ?SPEAKER

?PR?PULSERINIT?FIXEDPULSER                       -----    -----      -----    -----      0290H    0002H
  +--> ?PR?_GPIO_INILIZE?GPIO

?PR?_BUZZ?SPEAKER                                -----    -----      -----    -----      0461H    0007H
  +--> ?PR?_CLOSEPULSER?FIXEDPULSER
  +--> ?PR?_SETPULSE?FIXEDPULSER
  +--> ?PR?_OPENPULSER?FIXEDPULSER

?PR?_SETPULSE?FIXEDPULSER                        -----    -----      -----    -----      0468H    000BH

?PR?_ADC_CONFIG?ANGLE                            -----    -----      -----    -----      0290H    0006H
  +--> ?PR?_ADC_INILIZE?ADC

?PR?_ADS1115_CONFIG?ADS1115                      -----    -----      -----    -----      0290H    0004H
  +--> ?PR?_GPIO_INILIZE?GPIO

?PR?HC_SR04_INIT?HC_SR04                         -----    -----      -----    -----      0290H    0005H
  +--> ?PR?_GPIO_INILIZE?GPIO
  +--> ?PR?_EXT_INILIZE?STC15_EXTI

?PR?_BLINK?LED                                   -----    -----      -----    -----      0290H    0001H
  +--> ?PR?OPEN_BOARD_LED?LED
  +--> ?PR?_DELAY_MS?DELAY
  +--> ?PR?CLOSE_BOARD_LED?LED

*** NEW ROOT ***************************************************

?PR?PRINTANGLEDATA?ABSTASK                       -----    -----      -----    -----      -----    -----
  +--> ?PR?_GETJY901ANGLE?MPU9250_SBUF
  +--> ?PR?_DATASCOPE_GET_CHANNEL_DATA?DATAS...
  +--> ?PR?_SENDSCOPEDATA?DATASCOPE_DP

?PR?_DATASCOPE_GET_CHANNEL_DATA?DATAS...         -----    -----      -----    -----      0448H    0005H
  +--> ?PR?_FLOAT2BYTE?DATASCOPE_DP

?PR?_FLOAT2BYTE?DATASCOPE_DP                     -----    -----      -----    -----      044DH    000AH

?PR?_SENDSCOPEDATA?DATASCOPE_DP                  -----    -----      -----    -----      0448H    0002H
  +--> ?PR?_DATASCOPE_DATA_GENERATE?DATASCOP...
  +--> ?PR?_TX1_WRITE2BUFF?USART1

*** NEW ROOT ***************************************************

?PR?DATAUPDATE?ABSTASK                           -----    -----      -----    -----      -----    -----
  +--> ?PR?_GETJY901ANGLE?MPU9250_SBUF
  +--> ?PR?_LCD_PRINTNUM_I?LCD5510_V2

?PR?_LCD_PRINTNUM_I?LCD5510_V2                   -----    -----      -----    -----      02C0H    0008H
  +--> ?PR?_MALLOC?MALLOC
  +--> ?CO?LCD5510_V2
  +--> ?PR?PRINTF?PRINTF
BL51 BANKED LINKER/LOCATER V6.00                                                      08/07/2017  17:31:50  PAGE 13


  +--> ?PR?_LCD_PRINTSL?LCD5510_V2
  +--> ?PR?_FREE?FREE

?PR?_MALLOC?MALLOC                               -----    -----      -----    -----      02C8H    0006H

?PR?PRINTF?PRINTF                                0020H.0  0001H.1    0016H    0005H      02C8H    0030H
  +--> ?PR?PUTCHAR?PUTCHAR

?PR?_FREE?FREE                                   -----    -----      -----    -----      02C8H    0006H

*** NEW ROOT ***************************************************

?PR?PRINTADS1115?ABSTASK                         -----    -----      -----    -----      -----    -----
  +--> ?PR?_GETADS1115CONVSIONDATA?ADS1115
  +--> ?PR?_DATASCOPE_GET_CHANNEL_DATA?DATAS...
  +--> ?PR?_SENDSCOPEDATA?DATASCOPE_DP

?PR?_GETADS1115CONVSIONDATA?ADS1115              -----    -----      -----    -----      02F8H    0002H
  +--> ?PR?_WRITECONFIGREGISTER?ADS1115
  +--> ?PR?CHANGEREGISTER?ADS1115
  +--> ?PR?READCONVERSIONREGISTER?ADS1115

?PR?_WRITECONFIGREGISTER?ADS1115                 -----    -----      -----    -----      02FAH    0001H
  +--> ?PR?IIC_START?STC15_IIC
  +--> ?PR?_INPUTONEBYTE?STC15_IIC
  +--> ?PR?IIC_RDACK?STC15_IIC
  +--> ?PR?IIC_STOP?STC15_IIC

?PR?IIC_START?STC15_IIC                          -----    -----      -----    -----      -----    -----
  +--> ?PR?DELAY5US?STC15_IIC

?PR?_INPUTONEBYTE?STC15_IIC                      -----    -----      -----    -----      -----    -----
  +--> ?PR?DELAY5US?STC15_IIC

?PR?IIC_RDACK?STC15_IIC                          0021H.1  0000H.1    -----    -----      -----    -----
  +--> ?PR?_INPUTONEBYTE?STC15_IIC
  +--> ?PR?DELAY5US?STC15_IIC

?PR?IIC_STOP?STC15_IIC                           -----    -----      -----    -----      -----    -----
  +--> ?PR?DELAY5US?STC15_IIC

?PR?CHANGEREGISTER?ADS1115                       -----    -----      -----    -----      -----    -----
  +--> ?PR?IIC_START?STC15_IIC
  +--> ?PR?_INPUTONEBYTE?STC15_IIC
  +--> ?PR?IIC_RDACK?STC15_IIC
  +--> ?PR?IIC_STOP?STC15_IIC

?PR?READCONVERSIONREGISTER?ADS1115               -----    -----      -----    -----      02FAH    000CH
  +--> ?PR?IIC_START?STC15_IIC
  +--> ?PR?_INPUTONEBYTE?STC15_IIC
  +--> ?PR?IIC_RDACK?STC15_IIC
  +--> ?PR?OUTPUTONEBYTE?STC15_IIC
  +--> ?PR?IIC_ACK?STC15_IIC
  +--> ?PR?IIC_STOP?STC15_IIC

?PR?OUTPUTONEBYTE?STC15_IIC                      -----    -----      -----    -----      0306H    0008H
  +--> ?PR?DELAY5US?STC15_IIC
BL51 BANKED LINKER/LOCATER V6.00                                                      08/07/2017  17:31:50  PAGE 14



?PR?IIC_ACK?STC15_IIC                            -----    -----      -----    -----      -----    -----
  +--> ?PR?DELAY5US?STC15_IIC

*** NEW ROOT ***************************************************

?PR?BUZZ?ABSTASK                                 -----    -----      -----    -----      -----    -----
  +--> ?PR?_GETBUTTONSTATE?BUTTON
  +--> ?PR?_BUZZ?SPEAKER
  +--> ?PR?BUZZSUCCEED?SPEAKER
  +--> ?PR?BUZZFAILED?SPEAKER

?PR?BUZZSUCCEED?SPEAKER                          -----    -----      -----    -----      -----    -----
  +--> ?PR?_BUZZ?SPEAKER

?PR?BUZZFAILED?SPEAKER                           -----    -----      -----    -----      -----    -----
  +--> ?PR?_BUZZ?SPEAKER

*** NEW ROOT ***************************************************

?PR?ABUTTONSCAN?ABSTASK                          -----    -----      -----    -----      -----    -----
  +--> ?PR?BUTTONSCAN?BUTTON

?PR?BUTTONSCAN?BUTTON                            -----    -----      -----    -----      0320H    0002H
  +--> ?PR?GETBUTTONNUM?TM1638

?PR?GETBUTTONNUM?TM1638                          -----    -----      -----    -----      0461H    0006H
  +--> ?CO?TM1638
  +--> ?PR?_SETTM1638WRITE?TM1638
  +--> ?PR?_DELAY_US?DELAY
  +--> ?PR?GETTM1638READ?TM1638

?PR?GETTM1638READ?TM1638                         -----    -----      -----    -----      0467H    0002H
  +--> ?PR?_DELAY_US?DELAY

*** NEW ROOT ***************************************************

?PR?PRINTFBUTTON?ABSTASK                         -----    -----      -----    -----      -----    -----
  +--> ?PR?_GETBUTTONSTATE?BUTTON
  +--> ?CO?ABSTASK
  +--> ?PR?_LCD_PRINTSL?LCD5510_V2
  +--> ?PR?LCD_CLR_SCR?LCD5510_V2

*** NEW ROOT ***************************************************

?PR?PRINTDISTANCE?ABSTASK                        -----    -----      -----    -----      -----    -----
  +--> ?PR?_GETDISTANCE?HC_SR04
  +--> ?PR?_DATASCOPE_GET_CHANNEL_DATA?DATAS...
  +--> ?PR?_SENDSCOPEDATA?DATASCOPE_DP

*** NEW ROOT ***************************************************

?PR?DISTANCEUPDATA?ABSTASK                       -----    -----      -----    -----      033EH    0085H
  +--> ?PR?_UPDATEDISTANCE?HC_SR04
  +--> ?PR?_GETTIMERVALUE?HC_SR04
  +--> ?PR?_KALMANFILTER?FILTER
  +--> ?PR?_SETDISTANCE?HC_SR04
BL51 BANKED LINKER/LOCATER V6.00                                                      08/07/2017  17:31:50  PAGE 15



?PR?_UPDATEDISTANCE?HC_SR04                      -----    -----      -----    -----      -----    -----
  +--> ?PR?_DELAY_US?DELAY

?PR?_KALMANFILTER?FILTER                         -----    -----      -----    -----      03C3H    0028H

?PR?_SETDISTANCE?HC_SR04                         -----    -----      -----    -----      03C3H    0005H

*** NEW ROOT ***************************************************

?PR?DISTANCE?ABSTASK                             -----    -----      -----    -----      03EBH    005DH
  +--> ?PR?_UPDATEDISTANCE?HC_SR04
  +--> ?PR?_GETTIMERVALUE?HC_SR04
  +--> ?PR?_LIMITINGFILTER?FILTER
  +--> ?PR?_SHUDDERINGFILTER?FILTER
  +--> ?PR?_MOVINGAVERAGEFILTER?FILTER
  +--> ?PR?_FILTER?FILTER
  +--> ?PR?_DATASCOPE_GET_CHANNEL_DATA?DATAS...
  +--> ?PR?_SENDSCOPEDATA?DATASCOPE_DP

?PR?_LIMITINGFILTER?FILTER                       -----    -----      -----    -----      0448H    0008H
  +--> ?PR?_FABS?FABS

?PR?_SHUDDERINGFILTER?FILTER                     -----    -----      -----    -----      0448H    0007H
  +--> ?PR?_FABS?FABS

?PR?_MOVINGAVERAGEFILTER?FILTER                  -----    -----      -----    -----      0448H    0009H

?PR?_FILTER?FILTER                               -----    -----      -----    -----      0448H    0019H

*** NEW ROOT ***************************************************

?PR?BUTTONSOUND?ABSTASK                          -----    -----      -----    -----      -----    -----
  +--> ?PR?GETBUTTONNUM?TM1638
  +--> ?PR?BUZZWAIT?SPEAKER

?PR?BUZZWAIT?SPEAKER                             -----    -----      -----    -----      -----    -----
  +--> ?PR?_BUZZ?SPEAKER

*** NEW ROOT ***************************************************

?PR?PULSER_1INT?FIXEDPULSER                      -----    -----      -----    -----      -----    -----
  +--> ?PR?_CLOSEPULSER?FIXEDPULSER

*** NEW ROOT ***************************************************

?PR?PULSER_2INT?FIXEDPULSER                      -----    -----      -----    -----      -----    -----
  +--> ?PR?_CLOSEPULSER?FIXEDPULSER

*** NEW ROOT ***************************************************

?C_C51STARTUP                                    -----    -----      -----    -----      -----    -----
  +--> ?C_INITSEG



SYMBOL TABLE OF MODULE:  电子大赛程序框架 (ABSTASK)
BL51 BANKED LINKER/LOCATER V6.00                                                      08/07/2017  17:31:50  PAGE 16



  VALUE           TYPE          NAME
  ----------------------------------

  -------         MODULE        ABSTASK
  C:0000H         SYMBOL        _ICE_DUMMY_
  D:0080H         PUBLIC        P0
  D:0090H         PUBLIC        P1
  D:00A0H         PUBLIC        P2
  D:00B0H         PUBLIC        P3
  C:6D04H         PUBLIC        dataUpdate
  D:00C0H         PUBLIC        P4
  D:00C8H         PUBLIC        P5
  D:00E8H         PUBLIC        P6
  D:00F8H         PUBLIC        P7
  C:80B5H         PUBLIC        ButtonSound
  D:00A8H         PUBLIC        IE
  C:6F07H         PUBLIC        printfButton
  C:721BH         PUBLIC        printAngleData
  D:00B8H         PUBLIC        IP
  D:00D8H         PUBLIC        CCON
  C:755AH         PUBLIC        Buzz
  C:4AFAH         PUBLIC        Distance
  C:57A0H         PUBLIC        distanceUpdata
  D:0098H         PUBLIC        SCON
  D:0088H         PUBLIC        TCON
  D:00F0H         PUBLIC        B
  C:81B5H         PUBLIC        taskStart
  D:00E0H         PUBLIC        ACC
  C:69E4H         PUBLIC        printADS1115
  C:7BE9H         PUBLIC        printDistance
  C:8332H         PUBLIC        aButtonScan
  D:00D0H         PUBLIC        PSW
  -------         PROC          TASKSTART
  C:81B5H         LINE#         3
  C:81B5H         LINE#         5
  C:81B8H         LINE#         6
  C:81BDH         LINE#         7
  C:81C2H         LINE#         9
  -------         ENDPROC       TASKSTART
  -------         PROC          PRINTANGLEDATA
  C:721BH         LINE#         12
  C:721BH         LINE#         14
  C:721BH         LINE#         15
  C:721BH         LINE#         16
  C:722AH         LINE#         17
  C:723AH         LINE#         18
  C:724AH         LINE#         19
  C:724FH         LINE#         20
  C:7259H         LINE#         21
  -------         ENDPROC       PRINTANGLEDATA
  -------         PROC          DATAUPDATE
  C:6D04H         LINE#         23
  C:6D04H         LINE#         25
  C:6D04H         LINE#         26
  C:6D04H         LINE#         27
  C:6D1DH         LINE#         28
BL51 BANKED LINKER/LOCATER V6.00                                                      08/07/2017  17:31:50  PAGE 17


  C:6D38H         LINE#         29
  C:6D53H         LINE#         30
  C:6D5DH         LINE#         32
  -------         ENDPROC       DATAUPDATE
  -------         PROC          PRINTADS1115
  C:69E4H         LINE#         35
  C:69E4H         LINE#         37
  C:69E4H         LINE#         38
  C:69E4H         LINE#         39
  C:69FAH         LINE#         40
  C:6A10H         LINE#         41
  C:6A26H         LINE#         42
  C:6A3CH         LINE#         43
  C:6A41H         LINE#         44
  C:6A4BH         LINE#         46
  -------         ENDPROC       PRINTADS1115
  -------         PROC          BUZZ
  C:755AH         LINE#         49
  C:755AH         LINE#         51
  C:755AH         LINE#         52
  C:755AH         LINE#         54
  C:7562H         LINE#         55
  C:7562H         LINE#         56
  C:756DH         LINE#         58
  C:756DH         LINE#         59
  C:7575H         LINE#         60
  C:7575H         LINE#         61
  C:7578H         LINE#         62
  C:7578H         LINE#         63
  C:7580H         LINE#         64
  C:7580H         LINE#         65
  C:7583H         LINE#         66
  C:7583H         LINE#         67
  C:758DH         LINE#         68
  -------         ENDPROC       BUZZ
  -------         PROC          ABUTTONSCAN
  C:8332H         LINE#         71
  C:8332H         LINE#         73
  C:8332H         LINE#         74
  C:8332H         LINE#         75
  C:8335H         LINE#         78
  C:833FH         LINE#         80
  -------         ENDPROC       ABUTTONSCAN
  -------         PROC          PRINTFBUTTON
  C:6F07H         LINE#         83
  C:6F07H         LINE#         85
  C:6F07H         LINE#         86
  C:6F07H         LINE#         87
  C:6F0FH         LINE#         88
  C:6F0FH         LINE#         89
  C:6F1CH         LINE#         90
  C:6F26H         LINE#         91
  C:6F29H         LINE#         93
  C:6F29H         LINE#         94
  C:6F31H         LINE#         95
  C:6F31H         LINE#         96
  C:6F3EH         LINE#         97
BL51 BANKED LINKER/LOCATER V6.00                                                      08/07/2017  17:31:50  PAGE 18


  C:6F48H         LINE#         98
  C:6F4BH         LINE#         100
  C:6F4BH         LINE#         101
  C:6F55H         LINE#         102
  -------         ENDPROC       PRINTFBUTTON
  -------         PROC          PRINTDISTANCE
  C:7BE9H         LINE#         104
  C:7BE9H         LINE#         106
  C:7BE9H         LINE#         107
  C:7BE9H         LINE#         108
  C:7BF7H         LINE#         110
  C:7BFCH         LINE#         111
  C:7C06H         LINE#         112
  -------         ENDPROC       PRINTDISTANCE
  -------         PROC          DISTANCEUPDATA
  -------         DO            
  X:033EH         SYMBOL        time
  X:0342H         SYMBOL        distance
  X:0346H         SYMBOL        i
  X:0347H         SYMBOL        Data
  -------         ENDDO         
  C:57A0H         LINE#         114
  C:57A0H         LINE#         116
  C:57AAH         LINE#         117
  C:57B4H         LINE#         119
  C:57B9H         LINE#         121
  C:57B9H         LINE#         122
  C:57B9H         LINE#         124
  C:57B9H         LINE#         125
  C:57BEH         LINE#         126
  C:57C8H         LINE#         128
  C:57C8H         LINE#         130
  C:580CH         LINE#         131
  C:582BH         LINE#         133
  C:5852H         LINE#         135
  C:586BH         LINE#         138
  -------         ENDPROC       DISTANCEUPDATA
  -------         PROC          DISTANCE
  -------         DO            
  X:03EBH         SYMBOL        value
  X:03EFH         SYMBOL        actValue
  X:03F3H         SYMBOL        Data
  X:0447H         SYMBOL        i
  -------         ENDDO         
  C:4AFAH         LINE#         140
  C:4AFAH         LINE#         145
  C:4AFFH         LINE#         146
  C:4AFFH         LINE#         147
  C:4AFFH         LINE#         148
  C:4B04H         LINE#         149
  C:4B04H         LINE#         150
  C:4B09H         LINE#         151
  C:4B13H         LINE#         152
  C:4B26H         LINE#         153
  C:4B47H         LINE#         154
  C:4B64H         LINE#         155
  C:4B7BH         LINE#         156
BL51 BANKED LINKER/LOCATER V6.00                                                      08/07/2017  17:31:50  PAGE 19


  C:4B9DH         LINE#         157
  C:4BACH         LINE#         158
  C:4BD1H         LINE#         159
  C:4BE8H         LINE#         160
  C:4BFFH         LINE#         161
  C:4C2AH         LINE#         162
  C:4C55H         LINE#         163
  C:4C5AH         LINE#         165
  C:4C64H         LINE#         167
  -------         ENDPROC       DISTANCE
  -------         PROC          BUTTONSOUND
  C:80B5H         LINE#         169
  C:80B5H         LINE#         171
  C:80B5H         LINE#         172
  C:80B5H         LINE#         173
  C:80BBH         LINE#         174
  C:80BBH         LINE#         175
  C:80BEH         LINE#         176
  C:80BEH         LINE#         177
  C:80C8H         LINE#         178
  -------         ENDPROC       BUTTONSOUND
  -------         ENDMOD        ABSTASK

  -------         MODULE        SETUP
  C:0000H         SYMBOL        _ICE_DUMMY_
  D:0080H         PUBLIC        P0
  D:0090H         PUBLIC        P1
  D:00A0H         PUBLIC        P2
  D:00B0H         PUBLIC        P3
  D:00C0H         PUBLIC        P4
  D:00C8H         PUBLIC        P5
  C:758FH         PUBLIC        _UART1_init
  D:00E8H         PUBLIC        P6
  D:00F8H         PUBLIC        P7
  D:00A8H         PUBLIC        IE
  D:00B8H         PUBLIC        IP
  D:00D8H         PUBLIC        CCON
  C:6D5FH         PUBLIC        setup
  D:0098H         PUBLIC        SCON
  D:0088H         PUBLIC        TCON
  D:00F0H         PUBLIC        B
  C:6BE3H         PUBLIC        test
  D:00E0H         PUBLIC        ACC
  D:00D0H         PUBLIC        PSW
  -------         PROC          _UART1_INIT
  D:0004H         SYMBOL        BandRate
  -------         DO            
  X:0290H         SYMBOL        COMx_InitStructure
  -------         ENDDO         
  C:758FH         LINE#         24
  C:758FH         LINE#         25
  C:758FH         LINE#         27
  C:7595H         LINE#         28
  C:7599H         LINE#         29
  C:759DH         LINE#         30
  C:75A3H         LINE#         31
  C:75A6H         LINE#         32
BL51 BANKED LINKER/LOCATER V6.00                                                      08/07/2017  17:31:50  PAGE 20


  C:75A9H         LINE#         33
  C:75ABH         LINE#         34
  C:75AEH         LINE#         35
  C:75B0H         LINE#         36
  C:75BBH         LINE#         37
  -------         ENDPROC       _UART1_INIT
  -------         PROC          TEST
  -------         DO            
  D:0007H         SYMBOL        i
  -------         ENDDO         
  C:6BE3H         LINE#         39
  C:6BE3H         LINE#         40
  C:6BE3H         LINE#         41
  C:6BE5H         LINE#         42
  C:6BE8H         LINE#         43
  C:6BF1H         LINE#         44
  C:6BF1H         LINE#         45
  C:6BF1H         LINE#         46
  C:6BFCH         LINE#         47
  C:6BFEH         LINE#         48
  C:6BFEH         LINE#         49
  C:6BFEH         LINE#         50
  C:6BFEH         LINE#         51
  C:6C01H         LINE#         52
  C:6C3EH         LINE#         53
  C:6C43H         LINE#         54
  C:6C43H         LINE#         55
  -------         ENDPROC       TEST
  -------         PROC          SETUP
  C:6D5FH         LINE#         57
  C:6D5FH         LINE#         58
  C:6D5FH         LINE#         60
  C:6D6AH         LINE#         61
  C:6D6DH         LINE#         62
  C:6D70H         LINE#         63
  C:6D73H         LINE#         64
  C:6D7FH         LINE#         65
  C:6D89H         LINE#         66
  C:6D8CH         LINE#         67
  C:6D8FH         LINE#         68
  C:6D92H         LINE#         74
  C:6D99H         LINE#         75
  C:6D9CH         LINE#         76
  C:6D9FH         LINE#         77
  C:6DA4H         LINE#         78
  C:6DA9H         LINE#         79
  C:6DAEH         LINE#         80
  C:6DB3H         LINE#         81
  -------         ENDPROC       SETUP
  -------         ENDMOD        SETUP

  -------         MODULE        MODE
  C:0000H         SYMBOL        _ICE_DUMMY_
  D:0080H         PUBLIC        P0
  D:0090H         PUBLIC        P1
  D:00A0H         PUBLIC        P2
  D:00B0H         PUBLIC        P3
BL51 BANKED LINKER/LOCATER V6.00                                                      08/07/2017  17:31:50  PAGE 21


  D:00C0H         PUBLIC        P4
  D:00C8H         PUBLIC        P5
  D:00E8H         PUBLIC        P6
  D:00F8H         PUBLIC        P7
  D:00A8H         PUBLIC        IE
  D:00B8H         PUBLIC        IP
  D:00D8H         PUBLIC        CCON
  D:0098H         PUBLIC        SCON
  D:0088H         PUBLIC        TCON
  D:00F0H         PUBLIC        B
  D:00E0H         PUBLIC        ACC
  C:84C4H         PUBLIC        mode1
  C:84C5H         PUBLIC        mode2
  C:84C6H         PUBLIC        mode3
  C:84C7H         PUBLIC        mode4
  C:84C8H         PUBLIC        modeLauncher
  D:00D0H         PUBLIC        PSW
  -------         PROC          MODE1
  C:84C4H         LINE#         2
  C:84C4H         LINE#         3
  C:84C4H         LINE#         5
  -------         ENDPROC       MODE1
  -------         PROC          MODE2
  C:84C5H         LINE#         7
  C:84C5H         LINE#         8
  C:84C5H         LINE#         10
  -------         ENDPROC       MODE2
  -------         PROC          MODE3
  C:84C6H         LINE#         13
  C:84C6H         LINE#         14
  C:84C6H         LINE#         16
  -------         ENDPROC       MODE3
  -------         PROC          MODE4
  C:84C7H         LINE#         18
  C:84C7H         LINE#         19
  C:84C7H         LINE#         21
  -------         ENDPROC       MODE4
  -------         PROC          MODELAUNCHER
  C:84C8H         LINE#         22
  C:84C8H         LINE#         23
  C:84C8H         LINE#         25
  -------         ENDPROC       MODELAUNCHER
  -------         ENDMOD        MODE

  -------         MODULE        FILTER
  C:0000H         SYMBOL        _ICE_DUMMY_
  D:0080H         PUBLIC        P0
  D:0090H         PUBLIC        P1
  D:00A0H         PUBLIC        P2
  D:00B0H         PUBLIC        P3
  D:00C0H         PUBLIC        P4
  D:00C8H         PUBLIC        P5
  D:00E8H         PUBLIC        P6
  D:00F8H         PUBLIC        P7
  C:42A9H         PUBLIC        _filter
  D:00A8H         PUBLIC        IE
  D:00B8H         PUBLIC        IP
BL51 BANKED LINKER/LOCATER V6.00                                                      08/07/2017  17:31:50  PAGE 22


  C:6410H         PUBLIC        _shudderingFilter
  D:00D8H         PUBLIC        CCON
  D:0098H         PUBLIC        SCON
  D:0088H         PUBLIC        TCON
  C:5B71H         PUBLIC        _movingAverageFilter
  D:00F0H         PUBLIC        B
  C:4C67H         PUBLIC        _KalmanFilter
  D:00E0H         PUBLIC        ACC
  C:6B80H         PUBLIC        _limitingFilter
  D:00D0H         PUBLIC        PSW
  -------         PROC          _FILTER
  X:0448H         SYMBOL        ary
  X:044BH         SYMBOL        num
  X:044CH         SYMBOL        MaxValue
  X:0450H         SYMBOL        MinValue
  -------         DO            
  X:0454H         SYMBOL        angleDataloopTemp2
  X:0455H         SYMBOL        finalData
  X:0459H         SYMBOL        maxValue
  X:045DH         SYMBOL        minValue
  -------         ENDDO         
  C:42A9H         LINE#         15
  C:42B7H         LINE#         16
  C:42B7H         LINE#         18
  C:42C1H         LINE#         19
  C:42D5H         LINE#         20
  C:42E9H         LINE#         21
  C:42FEH         LINE#         22
  C:42FEH         LINE#         23
  C:432CH         LINE#         24
  C:432CH         LINE#         25
  C:434DH         LINE#         26
  C:434DH         LINE#         27
  C:437DH         LINE#         28
  C:437DH         LINE#         29
  C:439EH         LINE#         30
  C:439EH         LINE#         31
  C:43D0H         LINE#         32
  C:43D9H         LINE#         33
  C:4427H         LINE#         34
  C:4465H         LINE#         35
  C:4473H         LINE#         36
  -------         ENDPROC       _FILTER
  -------         PROC          _KALMANFILTER
  X:03C3H         SYMBOL        ResrcData
  X:03C7H         SYMBOL        ProcessNiose_Q
  X:03CBH         SYMBOL        MeasureNoise_R
  X:03CFH         SYMBOL        InitialPrediction
  -------         DO            
  X:03D3H         SYMBOL        R
  X:03D7H         SYMBOL        Q
  X:0473H         SYMBOL        x_last
  X:03DBH         SYMBOL        x_mid
  X:03DFH         SYMBOL        x_now
  X:0477H         SYMBOL        p_last
  X:03E3H         SYMBOL        p_mid
  D:0004H         SYMBOL        p_now
BL51 BANKED LINKER/LOCATER V6.00                                                      08/07/2017  17:31:50  PAGE 23


  X:03E7H         SYMBOL        kg
  -------         ENDDO         
  C:4C67H         LINE#         38
  C:4C6DH         LINE#         39
  C:4C6DH         LINE#         40
  C:4C81H         LINE#         41
  C:4C95H         LINE#         45
  C:4CA9H         LINE#         54
  C:4CBDH         LINE#         55
  C:4CE2H         LINE#         56
  C:4D20H         LINE#         57
  C:4D67H         LINE#         59
  C:4D90H         LINE#         61
  C:4D96H         LINE#         62
  C:4DAAH         LINE#         64
  C:4DB8H         LINE#         65
  -------         ENDPROC       _KALMANFILTER
  -------         PROC          _LIMITINGFILTER
  X:0448H         SYMBOL        value
  X:044CH         SYMBOL        A
  -------         DO            
  X:047BH         SYMBOL        lastValue
  -------         ENDDO         
  C:6B80H         LINE#         84
  C:6B86H         LINE#         85
  C:6B86H         LINE#         87
  C:6BBBH         LINE#         88
  C:6BBBH         LINE#         89
  C:6BC0H         LINE#         90
  C:6BC0H         LINE#         92
  C:6BC0H         LINE#         94
  C:6BD4H         LINE#         95
  C:6BE2H         LINE#         97
  C:6BE2H         LINE#         98
  -------         ENDPROC       _LIMITINGFILTER
  -------         PROC          _MOVINGAVERAGEFILTER
  X:0448H         SYMBOL        value
  -------         DO            
  X:047FH         SYMBOL        filter_buf
  X:044CH         SYMBOL        i
  X:044DH         SYMBOL        filter_sum
  -------         ENDDO         
  C:5B71H         LINE#         116
  C:5B77H         LINE#         117
  C:5B77H         LINE#         121
  C:5B81H         LINE#         122
  C:5B95H         LINE#         123
  C:5BA4H         LINE#         124
  C:5BD0H         LINE#         125
  C:5C04H         LINE#         126
  C:5C0CH         LINE#         127
  C:5C24H         LINE#         128
  -------         ENDPROC       _MOVINGAVERAGEFILTER
  -------         PROC          _SHUDDERINGFILTER
  D:0004H         SYMBOL        value
  X:044CH         SYMBOL        filter_n
  -------         DO            
BL51 BANKED LINKER/LOCATER V6.00                                                      08/07/2017  17:31:50  PAGE 24


  X:0613H         SYMBOL        i
  X:0615H         SYMBOL        lastValue
  X:044DH         SYMBOL        newValue
  -------         ENDDO         
  C:6410H         LINE#         154
  C:6410H         LINE#         155
  C:6410H         LINE#         160
  C:641BH         LINE#         161
  C:644BH         LINE#         162
  C:644BH         LINE#         163
  C:6459H         LINE#         164
  C:646CH         LINE#         165
  C:6470H         LINE#         166
  C:6482H         LINE#         167
  C:6482H         LINE#         168
  C:6484H         LINE#         170
  C:6484H         LINE#         171
  C:648BH         LINE#         172
  C:648BH         LINE#         173
  C:6499H         LINE#         175
  -------         ENDPROC       _SHUDDERINGFILTER
  -------         ENDMOD        FILTER

  -------         MODULE        PID
  C:0000H         SYMBOL        _ICE_DUMMY_
  D:0080H         PUBLIC        P0
  D:0090H         PUBLIC        P1
  D:00A0H         PUBLIC        P2
  C:7A60H         PUBLIC        _setKi
  D:00B0H         PUBLIC        P3
  C:7EA4H         PUBLIC        _getErrLast
  C:7AE4H         PUBLIC        _setMaxError
  D:00C0H         PUBLIC        P4
  D:00C8H         PUBLIC        P5
  D:00E8H         PUBLIC        P6
  D:00F8H         PUBLIC        P7
  C:7A1EH         PUBLIC        _setParameterUpperLimit
  C:7A81H         PUBLIC        _setKp
  C:714FH         PUBLIC        _PosClassPID
  D:00A8H         PUBLIC        IE
  C:81C7H         PUBLIC        _openPID
  C:3EF9H         PUBLIC        _Position_PID
  D:00B8H         PUBLIC        IP
  D:00D8H         PUBLIC        CCON
  C:26D5H         PUBLIC        _Anti_Windup_PID
  D:0098H         PUBLIC        SCON
  D:0088H         PUBLIC        TCON
  C:4638H         PUBLIC        _Incremental_PID
  C:4DB9H         PUBLIC        _PID_config
  C:3CB3H         PUBLIC        _Integral_Separa_PID
  C:79FDH         PUBLIC        _setParameterInferiorLimit
  D:00F0H         PUBLIC        B
  D:00E0H         PUBLIC        ACC
  C:7A3FH         PUBLIC        _setActualParameter
  C:7F0CH         PUBLIC        _getOutput
  C:22F4H         PUBLIC        _Trapezoidal_Integral_PID
  X:06BCH         SYMBOL        g_pid_n_info
BL51 BANKED LINKER/LOCATER V6.00                                                      08/07/2017  17:31:50  PAGE 25


  C:7E70H         PUBLIC        _getParameter
  C:7E8AH         PUBLIC        _getErr
  C:7EF2H         PUBLIC        _getKd
  C:8010H         PUBLIC        _IncClassPID
  C:7AC3H         PUBLIC        _setParameter
  C:7ED8H         PUBLIC        _getKi
  C:8257H         PUBLIC        _closePID
  D:00D0H         PUBLIC        PSW
  C:7F26H         PUBLIC        _getIntegral
  C:7EBEH         PUBLIC        _getKp
  C:7AA2H         PUBLIC        _setKd
  -------         PROC          _PID_CONFIG
  D:0003H         SYMBOL        PID_N
  X:099CH         SYMBOL        kp
  X:09A0H         SYMBOL        ki
  X:09A4H         SYMBOL        kd
  C:4DB9H         LINE#         53
  C:4DBBH         LINE#         54
  C:4DBBH         LINE#         55
  C:4DD0H         LINE#         56
  C:4DE5H         LINE#         57
  C:4DFAH         LINE#         58
  C:4E0FH         LINE#         59
  C:4E24H         LINE#         60
  C:4E43H         LINE#         61
  C:4E62H         LINE#         62
  C:4E81H         LINE#         63
  C:4EABH         LINE#         64
  C:4ED5H         LINE#         65
  -------         ENDPROC       _PID_CONFIG
  -------         PROC          _OPENPID
  D:0007H         SYMBOL        PID_N
  C:81C7H         LINE#         76
  C:81C7H         LINE#         77
  C:81C7H         LINE#         78
  C:81D8H         LINE#         80
  -------         ENDPROC       _OPENPID
  -------         PROC          _CLOSEPID
  D:0007H         SYMBOL        PID_N
  C:8257H         LINE#         90
  C:8257H         LINE#         91
  C:8257H         LINE#         92
  C:8267H         LINE#         95
  -------         ENDPROC       _CLOSEPID
  -------         PROC          _POSITION_PID
  X:0A6DH         SYMBOL        PID_N
  C:3EF9H         LINE#         105
  C:3EFEH         LINE#         106
  C:3EFEH         LINE#         107
  C:3F11H         LINE#         108
  C:3F11H         LINE#         109
  C:3F5FH         LINE#         110
  C:3FA2H         LINE#         111
  C:40A7H         LINE#         114
  C:40D1H         LINE#         115
  C:40D3H         LINE#         116
  C:40D3H         LINE#         117
BL51 BANKED LINKER/LOCATER V6.00                                                      08/07/2017  17:31:50  PAGE 26


  C:40D4H         LINE#         118
  -------         ENDPROC       _POSITION_PID
  -------         PROC          _INTEGRAL_SEPARA_PID
  X:0A4EH         SYMBOL        PID_N
  -------         DO            
  X:0A4FH         SYMBOL        multiple
  -------         ENDDO         
  C:3CB3H         LINE#         128
  C:3CB8H         LINE#         129
  C:3CB8H         LINE#         131
  C:3D03H         LINE#         132
  C:3D17H         LINE#         133
  C:3D17H         LINE#         134
  C:3D50H         LINE#         135
  C:3D50H         LINE#         136
  C:3D57H         LINE#         137
  C:3D59H         LINE#         139
  C:3D59H         LINE#         140
  C:3D61H         LINE#         141
  C:3DA7H         LINE#         142
  C:3DA7H         LINE#         144
  C:3ECBH         LINE#         147
  C:3EF5H         LINE#         148
  C:3EF7H         LINE#         149
  C:3EF7H         LINE#         150
  C:3EF8H         LINE#         151
  -------         ENDPROC       _INTEGRAL_SEPARA_PID
  -------         PROC          _ANTI_WINDUP_PID
  X:0A51H         SYMBOL        PID_N
  -------         DO            
  X:0A52H         SYMBOL        multiple
  -------         ENDDO         
  C:26D5H         LINE#         161
  C:26DAH         LINE#         162
  C:26DAH         LINE#         164
  C:2725H         LINE#         165
  C:2739H         LINE#         166
  C:2739H         LINE#         167
  C:2775H         LINE#         168
  C:2775H         LINE#         169
  C:27C0H         LINE#         170
  C:27C0H         LINE#         171
  C:27C0H         LINE#         172
  C:27C3H         LINE#         174
  C:27C3H         LINE#         175
  C:27CBH         LINE#         176
  C:27F6H         LINE#         177
  C:27F6H         LINE#         178
  C:27F6H         LINE#         179
  C:27F6H         LINE#         180
  C:27F6H         LINE#         181
  C:27F9H         LINE#         182
  C:2839H         LINE#         183
  C:2839H         LINE#         184
  C:2884H         LINE#         185
  C:2884H         LINE#         186
  C:2884H         LINE#         187
BL51 BANKED LINKER/LOCATER V6.00                                                      08/07/2017  17:31:50  PAGE 27


  C:2886H         LINE#         189
  C:2886H         LINE#         190
  C:288EH         LINE#         191
  C:28B7H         LINE#         192
  C:28B7H         LINE#         193
  C:28B7H         LINE#         194
  C:28B7H         LINE#         195
  C:28B7H         LINE#         196
  C:28B9H         LINE#         198
  C:28B9H         LINE#         199
  C:2904H         LINE#         200
  C:2904H         LINE#         201
  C:290BH         LINE#         202
  C:290DH         LINE#         204
  C:290DH         LINE#         205
  C:2915H         LINE#         206
  C:295BH         LINE#         207
  C:295BH         LINE#         208
  C:295BH         LINE#         210
  C:2A7FH         LINE#         213
  C:2AA9H         LINE#         214
  C:2AABH         LINE#         215
  C:2AABH         LINE#         216
  C:2AACH         LINE#         217
  -------         ENDPROC       _ANTI_WINDUP_PID
  -------         PROC          _TRAPEZOIDAL_INTEGRAL_PID
  X:0A54H         SYMBOL        PID_N
  -------         DO            
  X:0A55H         SYMBOL        multiple
  -------         ENDDO         
  C:22F4H         LINE#         227
  C:22F9H         LINE#         228
  C:22F9H         LINE#         230
  C:2344H         LINE#         231
  C:2358H         LINE#         232
  C:2358H         LINE#         233
  C:2394H         LINE#         234
  C:2394H         LINE#         235
  C:23DFH         LINE#         236
  C:23DFH         LINE#         237
  C:23DFH         LINE#         238
  C:23E2H         LINE#         240
  C:23E2H         LINE#         241
  C:23EAH         LINE#         242
  C:2415H         LINE#         243
  C:2415H         LINE#         244
  C:2415H         LINE#         245
  C:2415H         LINE#         246
  C:2415H         LINE#         247
  C:2418H         LINE#         248
  C:2458H         LINE#         249
  C:2458H         LINE#         250
  C:24A3H         LINE#         251
  C:24A3H         LINE#         252
  C:24A3H         LINE#         253
  C:24A5H         LINE#         255
  C:24A5H         LINE#         256
BL51 BANKED LINKER/LOCATER V6.00                                                      08/07/2017  17:31:50  PAGE 28


  C:24ADH         LINE#         257
  C:24D6H         LINE#         258
  C:24D6H         LINE#         259
  C:24D6H         LINE#         260
  C:24D6H         LINE#         261
  C:24D6H         LINE#         262
  C:24D8H         LINE#         264
  C:24D8H         LINE#         265
  C:2523H         LINE#         266
  C:2523H         LINE#         267
  C:252AH         LINE#         268
  C:252CH         LINE#         270
  C:252CH         LINE#         271
  C:2534H         LINE#         272
  C:257AH         LINE#         273
  C:257AH         LINE#         274
  C:257AH         LINE#         276
  C:26A7H         LINE#         279
  C:26D1H         LINE#         280
  C:26D3H         LINE#         281
  C:26D3H         LINE#         282
  C:26D4H         LINE#         283
  -------         ENDPROC       _TRAPEZOIDAL_INTEGRAL_PID
  -------         PROC          _INCREMENTAL_PID
  X:0A6EH         SYMBOL        PID_N
  C:4638H         LINE#         293
  C:463DH         LINE#         294
  C:463DH         LINE#         295
  C:4650H         LINE#         296
  C:4650H         LINE#         297
  C:469EH         LINE#         298
  C:4780H         LINE#         301
  C:47AAH         LINE#         302
  C:47D4H         LINE#         303
  C:47D6H         LINE#         304
  C:47D6H         LINE#         305
  C:47D7H         LINE#         306
  -------         ENDPROC       _INCREMENTAL_PID
  -------         PROC          _SETPARAMETERINFERIORLIMIT
  D:0003H         SYMBOL        PID_N
  X:0A0CH         SYMBOL        value
  C:79FDH         LINE#         317
  C:79FFH         LINE#         318
  C:79FFH         LINE#         319
  -------         ENDPROC       _SETPARAMETERINFERIORLIMIT
  -------         PROC          _SETPARAMETERUPPERLIMIT
  D:0003H         SYMBOL        PID_N
  X:0A11H         SYMBOL        value
  C:7A1EH         LINE#         331
  C:7A20H         LINE#         332
  C:7A20H         LINE#         333
  -------         ENDPROC       _SETPARAMETERUPPERLIMIT
  -------         PROC          _SETACTUALPARAMETER
  D:0003H         SYMBOL        PID_N
  X:0A16H         SYMBOL        value
  C:7A3FH         LINE#         346
  C:7A41H         LINE#         347
BL51 BANKED LINKER/LOCATER V6.00                                                      08/07/2017  17:31:50  PAGE 29


  C:7A41H         LINE#         348
  -------         ENDPROC       _SETACTUALPARAMETER
  -------         PROC          _SETKI
  D:0003H         SYMBOL        PID_N
  X:0A1BH         SYMBOL        value
  C:7A60H         LINE#         361
  C:7A62H         LINE#         362
  C:7A62H         LINE#         363
  -------         ENDPROC       _SETKI
  -------         PROC          _SETKP
  D:0003H         SYMBOL        PID_N
  X:0A20H         SYMBOL        value
  C:7A81H         LINE#         375
  C:7A83H         LINE#         376
  C:7A83H         LINE#         377
  -------         ENDPROC       _SETKP
  -------         PROC          _SETKD
  D:0003H         SYMBOL        PID_N
  X:0A25H         SYMBOL        value
  C:7AA2H         LINE#         389
  C:7AA4H         LINE#         390
  C:7AA4H         LINE#         391
  -------         ENDPROC       _SETKD
  -------         PROC          _SETPARAMETER
  D:0003H         SYMBOL        PID_N
  X:0A2AH         SYMBOL        value
  C:7AC3H         LINE#         403
  C:7AC5H         LINE#         404
  C:7AC5H         LINE#         405
  -------         ENDPROC       _SETPARAMETER
  -------         PROC          _GETPARAMETER
  D:0007H         SYMBOL        PID_N
  C:7E70H         LINE#         417
  C:7E70H         LINE#         418
  C:7E70H         LINE#         419
  C:7E89H         LINE#         420
  -------         ENDPROC       _GETPARAMETER
  -------         PROC          _GETERR
  D:0007H         SYMBOL        PID_N
  C:7E8AH         LINE#         430
  C:7E8AH         LINE#         431
  C:7E8AH         LINE#         432
  C:7EA3H         LINE#         433
  -------         ENDPROC       _GETERR
  -------         PROC          _GETERRLAST
  D:0007H         SYMBOL        PID_N
  C:7EA4H         LINE#         443
  C:7EA4H         LINE#         444
  C:7EA4H         LINE#         445
  C:7EBDH         LINE#         446
  -------         ENDPROC       _GETERRLAST
  -------         PROC          _GETKP
  D:0007H         SYMBOL        PID_N
  C:7EBEH         LINE#         456
  C:7EBEH         LINE#         457
  C:7EBEH         LINE#         458
  C:7ED7H         LINE#         459
BL51 BANKED LINKER/LOCATER V6.00                                                      08/07/2017  17:31:50  PAGE 30


  -------         ENDPROC       _GETKP
  -------         PROC          _GETKI
  D:0007H         SYMBOL        PID_N
  C:7ED8H         LINE#         469
  C:7ED8H         LINE#         470
  C:7ED8H         LINE#         471
  C:7EF1H         LINE#         472
  -------         ENDPROC       _GETKI
  -------         PROC          _GETKD
  D:0007H         SYMBOL        PID_N
  C:7EF2H         LINE#         482
  C:7EF2H         LINE#         483
  C:7EF2H         LINE#         484
  C:7F0BH         LINE#         485
  -------         ENDPROC       _GETKD
  -------         PROC          _GETOUTPUT
  D:0007H         SYMBOL        PID_N
  C:7F0CH         LINE#         495
  C:7F0CH         LINE#         496
  C:7F0CH         LINE#         497
  C:7F25H         LINE#         498
  -------         ENDPROC       _GETOUTPUT
  -------         PROC          _GETINTEGRAL
  D:0007H         SYMBOL        PID_N
  C:7F26H         LINE#         508
  C:7F26H         LINE#         509
  C:7F26H         LINE#         510
  C:7F3FH         LINE#         511
  -------         ENDPROC       _GETINTEGRAL
  -------         PROC          _SETMAXERROR
  D:0003H         SYMBOL        PID_N
  X:0A2FH         SYMBOL        err_max
  C:7AE4H         LINE#         521
  C:7AE6H         LINE#         522
  C:7AE6H         LINE#         523
  -------         ENDPROC       _SETMAXERROR
  -------         PROC          _POSCLASSPID
  X:0A6FH         SYMBOL        PID_N
  D:0005H         SYMBOL        PID_MODE
  C:714FH         LINE#         535
  C:7154H         LINE#         536
  C:7154H         LINE#         537
  C:7164H         LINE#         538
  C:7164H         LINE#         539
  C:7173H         LINE#         540
  C:7173H         LINE#         541
  C:7173H         LINE#         542
  C:717BH         LINE#         543
  C:717BH         LINE#         544
  C:717BH         LINE#         545
  C:7183H         LINE#         546
  C:7183H         LINE#         547
  C:7183H         LINE#         548
  C:718BH         LINE#         549
  C:718BH         LINE#         550
  C:718BH         LINE#         551
  C:7193H         LINE#         552
BL51 BANKED LINKER/LOCATER V6.00                                                      08/07/2017  17:31:50  PAGE 31


  C:7193H         LINE#         553
  C:7193H         LINE#         554
  C:7193H         LINE#         555
  -------         ENDPROC       _POSCLASSPID
  -------         PROC          _INCCLASSPID
  D:0007H         SYMBOL        PID_N
  D:0005H         SYMBOL        PID_MODE
  C:8010H         LINE#         566
  C:8010H         LINE#         567
  C:8010H         LINE#         568
  C:8021H         LINE#         569
  C:8021H         LINE#         570
  C:8025H         LINE#         571
  C:8025H         LINE#         572
  C:8025H         LINE#         573
  C:8028H         LINE#         574
  C:8028H         LINE#         575
  C:8028H         LINE#         576
  C:8028H         LINE#         577
  -------         ENDPROC       _INCCLASSPID
  -------         ENDMOD        PID

  -------         MODULE        DATASCOPE_DP
  C:0000H         SYMBOL        _ICE_DUMMY_
  D:0080H         PUBLIC        P0
  D:0090H         PUBLIC        P1
  D:00A0H         PUBLIC        P2
  D:00B0H         PUBLIC        P3
  D:00C0H         PUBLIC        P4
  D:00C8H         PUBLIC        P5
  D:00E8H         PUBLIC        P6
  D:00F8H         PUBLIC        P7
  X:0845H         PUBLIC        DataScope_OutPut_Buffer
  D:00A8H         PUBLIC        IE
  D:00B8H         PUBLIC        IP
  D:00D8H         PUBLIC        CCON
  C:7629H         PUBLIC        _sendScopeData
  D:0098H         PUBLIC        SCON
  D:0088H         PUBLIC        TCON
  D:00F0H         PUBLIC        B
  C:5D82H         PUBLIC        _Float2Byte
  D:00E0H         PUBLIC        ACC
  C:5E2CH         PUBLIC        _DataScope_Data_Generate
  C:52B5H         PUBLIC        _DataScope_Get_Channel_Data
  D:00D0H         PUBLIC        PSW
  -------         PROC          _FLOAT2BYTE
  D:0001H         SYMBOL        target
  X:0450H         SYMBOL        buf
  X:0453H         SYMBOL        beg
  -------         DO            
  X:0454H         SYMBOL        point
  -------         ENDDO         
  C:5D82H         LINE#         26
  C:5D82H         LINE#         27
  C:5D82H         LINE#         29
  C:5D8DH         LINE#         30
  C:5DABH         LINE#         31
BL51 BANKED LINKER/LOCATER V6.00                                                      08/07/2017  17:31:50  PAGE 32


  C:5DD7H         LINE#         32
  C:5E03H         LINE#         33
  -------         ENDPROC       _FLOAT2BYTE
  -------         PROC          _SENDSCOPEDATA
  X:0448H         SYMBOL        channe_num
  -------         DO            
  X:0449H         SYMBOL        a
  -------         ENDDO         
  C:7629H         LINE#         43
  C:762EH         LINE#         44
  C:762EH         LINE#         48
  C:7642H         LINE#         49
  C:7642H         LINE#         50
  C:7651H         LINE#         51
  C:7659H         LINE#         53
  -------         ENDPROC       _SENDSCOPEDATA
  -------         PROC          _DATASCOPE_GET_CHANNEL_DATA
  X:0448H         SYMBOL        Data
  X:044CH         SYMBOL        Channel
  C:52B5H         LINE#         59
  C:52BBH         LINE#         60
  C:52BBH         LINE#         61
  C:52CEH         LINE#         62
  C:52CEH         LINE#         64
  C:52CEH         LINE#         66
  C:52CEH         LINE#         67
  C:5304H         LINE#         68
  C:5304H         LINE#         69
  C:5304H         LINE#         70
  C:5317H         LINE#         71
  C:531AH         LINE#         72
  C:531AH         LINE#         73
  C:532EH         LINE#         74
  C:5331H         LINE#         75
  C:5331H         LINE#         76
  C:5345H         LINE#         77
  C:5348H         LINE#         78
  C:5348H         LINE#         79
  C:535CH         LINE#         80
  C:535FH         LINE#         81
  C:535FH         LINE#         82
  C:5373H         LINE#         83
  C:5375H         LINE#         84
  C:5375H         LINE#         85
  C:5389H         LINE#         86
  C:538BH         LINE#         87
  C:538BH         LINE#         88
  C:539FH         LINE#         89
  C:53A1H         LINE#         90
  C:53A1H         LINE#         91
  C:53B5H         LINE#         92
  C:53B7H         LINE#         93
  C:53B7H         LINE#         94
  C:53CBH         LINE#         95
  C:53CDH         LINE#         96
  C:53CDH         LINE#         97
  C:53E8H         LINE#         98
BL51 BANKED LINKER/LOCATER V6.00                                                      08/07/2017  17:31:50  PAGE 33


  C:53E8H         LINE#         99
  C:53E8H         LINE#         100
  C:53E8H         LINE#         101
  -------         ENDPROC       _DATASCOPE_GET_CHANNEL_DATA
  -------         PROC          _DATASCOPE_DATA_GENERATE
  D:0007H         SYMBOL        Channel_Number
  C:5E2CH         LINE#         106
  C:5E2CH         LINE#         107
  C:5E2CH         LINE#         108
  C:5E35H         LINE#         109
  C:5E35H         LINE#         110
  C:5E38H         LINE#         111
  C:5E38H         LINE#         113
  C:5E38H         LINE#         114
  C:5E3EH         LINE#         115
  C:5E74H         LINE#         116
  C:5E74H         LINE#         117
  C:5E74H         LINE#         118
  C:5E7AH         LINE#         119
  C:5E7DH         LINE#         120
  C:5E7DH         LINE#         121
  C:5E7DH         LINE#         122
  C:5E83H         LINE#         123
  C:5E86H         LINE#         124
  C:5E86H         LINE#         125
  C:5E86H         LINE#         126
  C:5E8CH         LINE#         127
  C:5E8FH         LINE#         128
  C:5E8FH         LINE#         129
  C:5E8FH         LINE#         130
  C:5E95H         LINE#         131
  C:5E98H         LINE#         132
  C:5E98H         LINE#         133
  C:5E98H         LINE#         134
  C:5E9EH         LINE#         135
  C:5EA1H         LINE#         136
  C:5EA1H         LINE#         137
  C:5EA1H         LINE#         138
  C:5EA7H         LINE#         139
  C:5EAAH         LINE#         140
  C:5EAAH         LINE#         141
  C:5EAAH         LINE#         142
  C:5EB0H         LINE#         143
  C:5EB3H         LINE#         144
  C:5EB3H         LINE#         145
  C:5EB3H         LINE#         146
  C:5EB9H         LINE#         147
  C:5EBCH         LINE#         148
  C:5EBCH         LINE#         149
  C:5EBCH         LINE#         150
  C:5EC2H         LINE#         151
  C:5EC5H         LINE#         152
  C:5EC5H         LINE#         153
  C:5EC5H         LINE#         154
  C:5ECBH         LINE#         155
  C:5ECEH         LINE#         156
  C:5ECEH         LINE#         157
BL51 BANKED LINKER/LOCATER V6.00                                                      08/07/2017  17:31:50  PAGE 34


  C:5ECEH         LINE#         158
  C:5ECEH         LINE#         159
  C:5ED0H         LINE#         160
  -------         ENDPROC       _DATASCOPE_DATA_GENERATE
  -------         ENDMOD        DATASCOPE_DP

  -------         MODULE        BUTTON
  C:0000H         SYMBOL        _ICE_DUMMY_
  D:0080H         PUBLIC        P0
  D:0090H         PUBLIC        P1
  D:00A0H         PUBLIC        P2
  D:00B0H         PUBLIC        P3
  D:00C0H         PUBLIC        P4
  D:00C8H         PUBLIC        P5
  D:00E8H         PUBLIC        P6
  D:00F8H         PUBLIC        P7
  D:00A8H         PUBLIC        IE
  D:00B8H         PUBLIC        IP
  D:00D8H         PUBLIC        CCON
  C:74B6H         PUBLIC        buttonScan
  D:0098H         PUBLIC        SCON
  D:0088H         PUBLIC        TCON
  D:00F0H         PUBLIC        B
  X:095DH         SYMBOL        g_Button
  C:7E1FH         PUBLIC        _getButtonState
  D:00E0H         PUBLIC        ACC
  C:805BH         PUBLIC        Button_config
  D:00D0H         PUBLIC        PSW
  -------         PROC          BUTTON_CONFIG
  -------         DO            
  X:0290H         SYMBOL        GPIO_InitStructure
  -------         ENDDO         
  C:805BH         LINE#         24
  C:805BH         LINE#         25
  C:805BH         LINE#         27
  C:8060H         LINE#         28
  C:8064H         LINE#         29
  C:806FH         LINE#         30
  -------         ENDPROC       BUTTON_CONFIG
  -------         PROC          _GETBUTTONSTATE
  D:0007H         SYMBOL        BUTTON_data
  -------         DO            
  D:0006H         SYMBOL        ButtonState
  -------         ENDDO         
  C:7E1FH         LINE#         40
  C:7E1FH         LINE#         41
  C:7E1FH         LINE#         43
  C:7E2BH         LINE#         44
  C:7E37H         LINE#         45
  C:7E39H         LINE#         46
  -------         ENDPROC       _GETBUTTONSTATE
  -------         PROC          BUTTONSCAN
  -------         DO            
  X:0320H         SYMBOL        i
  X:0321H         SYMBOL        num
  -------         ENDDO         
  C:74B6H         LINE#         57
BL51 BANKED LINKER/LOCATER V6.00                                                      08/07/2017  17:31:50  PAGE 35


  C:74B6H         LINE#         58
  C:74B6H         LINE#         60
  C:74BEH         LINE#         61
  C:74C3H         LINE#         62
  C:74C3H         LINE#         63
  C:74D0H         LINE#         64
  C:74D6H         LINE#         65
  C:74D6H         LINE#         66
  C:74DEH         LINE#         67
  C:74DEH         LINE#         69
  C:74DEH         LINE#         70
  C:74EDH         LINE#         71
  C:74EDH         LINE#         72
  C:74EDH         LINE#         73
  -------         ENDPROC       BUTTONSCAN
  -------         ENDMOD        BUTTON

  -------         MODULE        LCD5510_V2
  C:0000H         SYMBOL        _ICE_DUMMY_
  D:0080H         PUBLIC        P0
  D:0090H         PUBLIC        P1
  D:00A0H         PUBLIC        P2
  D:00B0H         PUBLIC        P3
  D:00C0H         PUBLIC        P4
  D:00C8H         PUBLIC        P5
  D:00E8H         PUBLIC        P6
  D:00F8H         PUBLIC        P7
  D:00A8H         PUBLIC        IE
  B:00C8H.4       PUBLIC        LCD_CLK
  B:00C8H.3       PUBLIC        LCD_DIN
  C:3803H         PUBLIC        Font_code
  C:71D8H         PUBLIC        LCD5510_Init
  D:00B8H         PUBLIC        IP
  C:80DFH         PUBLIC        _LCD_pos_byte
  C:7B05H         PUBLIC        LCD_clr_scr
  D:00D8H         PUBLIC        CCON
  B:00C8H.0       PUBLIC        LCD_RST
  C:8156H         PUBLIC        _LCD_clr_row
  D:0098H         PUBLIC        SCON
  D:0088H         PUBLIC        TCON
  B:00C8H.2       PUBLIC        LCD_DC
  C:689AH         PUBLIC        _LCD_printNum_F
  C:6AB6H         PUBLIC        _LCD_printNum_I
  D:00F0H         PUBLIC        B
  C:6E16H         PUBLIC        _LCD_printsl
  D:00E0H         PUBLIC        ACC
  C:731EH         PUBLIC        _LCD_printc
  B:00C8H.1       PUBLIC        LCD_CS
  C:73CCH         PUBLIC        _LCD_prints
  C:7B89H         PUBLIC        _LCD_write_byte
  D:00D0H         PUBLIC        PSW
  -------         PROC          _LCD_WRITE_BYTE
  D:0007H         SYMBOL        wbyte
  D:0005H         SYMBOL        dat_cmd
  -------         DO            
  D:0006H         SYMBOL        i
  -------         ENDDO         
BL51 BANKED LINKER/LOCATER V6.00                                                      08/07/2017  17:31:50  PAGE 36


  C:7B89H         LINE#         111
  C:7B89H         LINE#         112
  C:7B89H         LINE#         115
  C:7B8BH         LINE#         116
  C:7B90H         LINE#         118
  C:7B92H         LINE#         119
  C:7B92H         LINE#         120
  C:7B9AH         LINE#         121
  C:7B9CH         LINE#         123
  C:7B9EH         LINE#         124
  C:7BA2H         LINE#         125
  C:7BA4H         LINE#         126
  C:7BA6H         LINE#         128
  C:7BA8H         LINE#         129
  -------         ENDPROC       _LCD_WRITE_BYTE
  -------         PROC          LCD_CLR_SCR
  -------         DO            
  D:0002H         SYMBOL        i
  -------         ENDDO         
  C:7B05H         LINE#         164
  C:7B05H         LINE#         165
  C:7B05H         LINE#         168
  C:7B0CH         LINE#         169
  C:7B11H         LINE#         171
  C:7B25H         LINE#         172
  -------         ENDPROC       LCD_CLR_SCR
  -------         PROC          _LCD_CLR_ROW
  D:0007H         SYMBOL        num
  -------         DO            
  D:0004H         SYMBOL        i
  -------         ENDDO         
  C:8156H         LINE#         178
  C:8156H         LINE#         179
  C:8156H         LINE#         182
  C:815DH         LINE#         183
  C:8168H         LINE#         184
  -------         ENDPROC       _LCD_CLR_ROW
  -------         PROC          _LCD_POS_BYTE
  D:0007H         SYMBOL        x
  D:0004H         SYMBOL        y
  C:80DFH         LINE#         192
  C:80E1H         LINE#         193
  C:80E1H         LINE#         194
  C:80E5H         LINE#         195
  C:80E9H         LINE#         196
  C:80EEH         LINE#         197
  -------         ENDPROC       _LCD_POS_BYTE
  -------         PROC          L?0033
  -------         ENDPROC       L?0033
  -------         PROC          _LCD_PRINTC
  D:0007H         SYMBOL        x
  D:0005H         SYMBOL        y
  D:0003H         SYMBOL        c_dat
  -------         DO            
  D:0004H         SYMBOL        i
  -------         ENDDO         
  C:731EH         LINE#         205
BL51 BANKED LINKER/LOCATER V6.00                                                      08/07/2017  17:31:50  PAGE 37


  C:731EH         LINE#         206
  C:731EH         LINE#         209
  C:7322H         LINE#         210
  C:7328H         LINE#         212
  C:732BH         LINE#         213
  C:7353H         LINE#         214
  -------         ENDPROC       _LCD_PRINTC
  -------         PROC          _LCD_PRINTS
  X:0A33H         SYMBOL        x
  X:0A34H         SYMBOL        y
  X:0A35H         SYMBOL        s_dat
  C:73CCH         LINE#         221
  C:73DDH         LINE#         222
  C:73DDH         LINE#         223
  C:7406H         LINE#         224
  -------         ENDPROC       _LCD_PRINTS
  -------         PROC          L?0032
  -------         ENDPROC       L?0032
  -------         PROC          _LCD_PRINTSL
  X:032AH         SYMBOL        x
  X:032BH         SYMBOL        y
  X:032CH         SYMBOL        s_dat
  C:6E16H         LINE#         231
  C:6E27H         LINE#         232
  C:6E27H         LINE#         233
  C:6E38H         LINE#         234
  C:6E38H         LINE#         235
  C:6E3EH         LINE#         236
  C:6E48H         LINE#         237
  C:6E55H         LINE#         238
  C:6E5EH         LINE#         239
  C:6E60H         LINE#         240
  -------         ENDPROC       _LCD_PRINTSL
  -------         PROC          _LCD_PRINTNUM_I
  X:02C0H         SYMBOL        x
  X:02C1H         SYMBOL        y
  X:02C2H         SYMBOL        num
  X:02C4H         SYMBOL        numLength
  -------         DO            
  X:02C5H         SYMBOL        str
  -------         ENDDO         
  C:6AB6H         LINE#         241
  C:6AC4H         LINE#         242
  C:6AC4H         LINE#         243
  C:6AE0H         LINE#         245
  C:6B00H         LINE#         246
  C:6B0DH         LINE#         247
  -------         ENDPROC       _LCD_PRINTNUM_I
  -------         PROC          _LCD_PRINTNUM_F
  X:09A8H         SYMBOL        x
  X:09A9H         SYMBOL        y
  X:09AAH         SYMBOL        num
  X:09AEH         SYMBOL        numLength
  X:09AFH         SYMBOL        accuracy
  -------         DO            
  X:09B0H         SYMBOL        str
  -------         ENDDO         
BL51 BANKED LINKER/LOCATER V6.00                                                      08/07/2017  17:31:50  PAGE 38


  C:689AH         LINE#         249
  C:68A2H         LINE#         250
  C:68A2H         LINE#         251
  C:68CAH         LINE#         253
  C:68EFH         LINE#         254
  C:68FCH         LINE#         255
  -------         ENDPROC       _LCD_PRINTNUM_F
  -------         PROC          LCD5510_INIT
  -------         DO            
  X:0290H         SYMBOL        GPIO_InitStructure
  -------         ENDDO         
  C:71D8H         LINE#         278
  C:71D8H         LINE#         279
  C:71D8H         LINE#         281
  C:71DDH         LINE#         282
  C:71E0H         LINE#         283
  C:71EAH         LINE#         284
  C:71EEH         LINE#         287
  C:71F5H         LINE#         288
  C:71FAH         LINE#         289
  C:71FFH         LINE#         290
  C:7204H         LINE#         292
  C:7209H         LINE#         293
  C:720EH         LINE#         294
  C:7213H         LINE#         295
  C:7218H         LINE#         296
  -------         ENDPROC       LCD5510_INIT
  -------         ENDMOD        LCD5510_V2

  -------         MODULE        LED
  C:0000H         SYMBOL        _ICE_DUMMY_
  D:0080H         PUBLIC        P0
  D:0090H         PUBLIC        P1
  D:00A0H         PUBLIC        P2
  D:00B0H         PUBLIC        P3
  D:00C0H         PUBLIC        P4
  D:00C8H         PUBLIC        P5
  B:0021H.7       SYMBOL        Board_LED_State
  D:00E8H         PUBLIC        P6
  D:00F8H         PUBLIC        P7
  D:00A8H         PUBLIC        IE
  C:79DBH         PUBLIC        _blink
  C:779BH         PUBLIC        Board_LED_Init
  D:00B8H         PUBLIC        IP
  C:84B0H         PUBLIC        close_Board_LED
  D:00D8H         PUBLIC        CCON
  D:0098H         PUBLIC        SCON
  D:0088H         PUBLIC        TCON
  C:84ABH         PUBLIC        open_Board_LED
  B:00C8H.5       PUBLIC        P55
  D:00F0H         PUBLIC        B
  D:00E0H         PUBLIC        ACC
  C:84BEH         PUBLIC        getBoard_LED_State
  C:847BH         PUBLIC        _Board_LED_PWM
  D:00D0H         PUBLIC        PSW
  -------         PROC          BOARD_LED_INIT
  -------         DO            
BL51 BANKED LINKER/LOCATER V6.00                                                      08/07/2017  17:31:50  PAGE 39


  X:0290H         SYMBOL        GPIO_InitStructure
  -------         ENDDO         
  C:779BH         LINE#         6
  C:779BH         LINE#         7
  C:779BH         LINE#         9
  C:77A1H         LINE#         10
  C:77A6H         LINE#         11
  C:77B1H         LINE#         12
  C:77B4H         LINE#         13
  C:77B9H         LINE#         14
  C:77BCH         LINE#         15
  C:77C1H         LINE#         16
  C:77C2H         LINE#         17
  -------         ENDPROC       BOARD_LED_INIT
  -------         PROC          OPEN_BOARD_LED
  C:84ABH         LINE#         18
  C:84ABH         LINE#         19
  C:84ABH         LINE#         20
  C:84ADH         LINE#         21
  C:84AFH         LINE#         22
  -------         ENDPROC       OPEN_BOARD_LED
  -------         PROC          CLOSE_BOARD_LED
  C:84B0H         LINE#         23
  C:84B0H         LINE#         24
  C:84B0H         LINE#         25
  C:84B2H         LINE#         26
  C:84B4H         LINE#         28
  -------         ENDPROC       CLOSE_BOARD_LED
  -------         PROC          _BLINK
  X:0290H         SYMBOL        time
  C:79DBH         LINE#         29
  C:79E0H         LINE#         30
  C:79E0H         LINE#         31
  C:79EAH         LINE#         32
  C:79EAH         LINE#         33
  C:79EDH         LINE#         34
  C:79F2H         LINE#         35
  C:79F5H         LINE#         36
  C:79FAH         LINE#         38
  C:79FCH         LINE#         39
  -------         ENDPROC       _BLINK
  -------         PROC          GETBOARD_LED_STATE
  C:84BEH         LINE#         40
  C:84BEH         LINE#         41
  C:84BEH         LINE#         42
  C:84C0H         LINE#         43
  -------         ENDPROC       GETBOARD_LED_STATE
  -------         PROC          _BOARD_LED_PWM
  X:0A70H         SYMBOL        luminance
  C:847BH         LINE#         44
  C:8480H         LINE#         45
  C:8480H         LINE#         46
  C:8480H         LINE#         47
  C:8480H         LINE#         50
  C:8480H         LINE#         52
  -------         ENDPROC       _BOARD_LED_PWM
  -------         ENDMOD        LED
BL51 BANKED LINKER/LOCATER V6.00                                                      08/07/2017  17:31:50  PAGE 40



  -------         MODULE        MOTOR
  C:0000H         SYMBOL        _ICE_DUMMY_
  D:0080H         PUBLIC        P0
  D:0090H         PUBLIC        P1
  D:00A0H         PUBLIC        P2
  D:00B0H         PUBLIC        P3
  D:00C0H         PUBLIC        P4
  D:00C8H         PUBLIC        P5
  D:00E8H         PUBLIC        P6
  D:00F8H         PUBLIC        P7
  D:00BAH         PUBLIC        P_SW2
  D:00A8H         PUBLIC        IE
  C:7CE1H         PUBLIC        _open_DC_Motor
  D:00B8H         PUBLIC        IP
  D:00D8H         PUBLIC        CCON
  B:00A0H.2       PUBLIC        P22
  D:0098H         PUBLIC        SCON
  B:00A0H.3       PUBLIC        P23
  D:0088H         PUBLIC        TCON
  C:61D4H         PUBLIC        _setDC_MotorSpeed
  D:00F0H         PUBLIC        B
  X:0A42H         SYMBOL        g_DC_Motor
  C:8312H         PUBLIC        _getDC_MotorState
  D:00E0H         PUBLIC        ACC
  C:6979H         PUBLIC        DC_MOTOR_config
  C:7D3BH         PUBLIC        _close_DC_Motor
  D:00D0H         PUBLIC        PSW
  -------         PROC          _SETDC_MOTORSPEED
  X:0A38H         SYMBOL        motor
  X:0A39H         SYMBOL        speed
  C:61D4H         LINE#         36
  C:61D9H         LINE#         37
  C:61D9H         LINE#         39
  C:61F4H         LINE#         40
  C:61F4H         LINE#         41
  C:61FEH         LINE#         42
  C:61FEH         LINE#         43
  C:6219H         LINE#         44
  C:6219H         LINE#         46
  C:6223H         LINE#         47
  C:6223H         LINE#         50
  C:6243H         LINE#         51
  C:6265H         LINE#         52
  -------         ENDPROC       _SETDC_MOTORSPEED
  -------         PROC          _OPEN_DC_MOTOR
  X:0A71H         SYMBOL        motor
  C:7CE1H         LINE#         53
  C:7CE6H         LINE#         54
  C:7CE6H         LINE#         55
  C:7CECH         LINE#         56
  C:7CFEH         LINE#         57
  -------         ENDPROC       _OPEN_DC_MOTOR
  -------         PROC          _CLOSE_DC_MOTOR
  X:0A72H         SYMBOL        motor
  C:7D3BH         LINE#         58
  C:7D40H         LINE#         59
BL51 BANKED LINKER/LOCATER V6.00                                                      08/07/2017  17:31:50  PAGE 41


  C:7D40H         LINE#         60
  C:7D46H         LINE#         61
  C:7D57H         LINE#         65
  -------         ENDPROC       _CLOSE_DC_MOTOR
  -------         PROC          _GETDC_MOTORSTATE
  D:0007H         SYMBOL        motor
  C:8312H         LINE#         66
  C:8312H         LINE#         67
  C:8312H         LINE#         68
  C:8321H         LINE#         70
  -------         ENDPROC       _GETDC_MOTORSTATE
  -------         PROC          DC_MOTOR_CONFIG
  -------         DO            
  X:094BH         SYMBOL        GPIO_InitStructure
  X:094DH         SYMBOL        PWM_InitStructure
  -------         ENDDO         
  C:6979H         LINE#         78
  C:6979H         LINE#         79
  C:6979H         LINE#         83
  C:697EH         LINE#         86
  C:6982H         LINE#         87
  C:698DH         LINE#         91
  C:6993H         LINE#         92
  C:699EH         LINE#         93
  C:69A0H         LINE#         94
  C:69A2H         LINE#         97
  C:69A5H         LINE#         98
  C:69AAH         LINE#         99
  C:69ACH         LINE#         100
  C:69AEH         LINE#         101
  C:69B1H         LINE#         102
  C:69B4H         LINE#         103
  C:69B6H         LINE#         104
  C:69B8H         LINE#         105
  C:69BAH         LINE#         106
  C:69BCH         LINE#         107
  C:69BEH         LINE#         108
  C:69C0H         LINE#         109
  C:69C2H         LINE#         110
  C:69C4H         LINE#         111
  C:69C6H         LINE#         112
  C:69C8H         LINE#         113
  C:69CAH         LINE#         114
  C:69D5H         LINE#         115
  C:69E0H         LINE#         117
  C:69E3H         LINE#         120
  -------         ENDPROC       DC_MOTOR_CONFIG
  -------         ENDMOD        MOTOR

  -------         MODULE        SERVO
  C:0000H         SYMBOL        _ICE_DUMMY_
  D:0080H         PUBLIC        P0
  D:0090H         PUBLIC        P1
  D:00A0H         PUBLIC        P2
  D:00B0H         PUBLIC        P3
  D:00C0H         PUBLIC        P4
  D:00C8H         PUBLIC        P5
BL51 BANKED LINKER/LOCATER V6.00                                                      08/07/2017  17:31:50  PAGE 42


  D:00E8H         PUBLIC        P6
  D:00F8H         PUBLIC        P7
  D:00BAH         PUBLIC        P_SW2
  D:00A8H         PUBLIC        IE
  C:7BA9H         PUBLIC        _open_STR
  C:53E9H         PUBLIC        _set_STR_angle
  D:00B8H         PUBLIC        IP
  D:00D8H         PUBLIC        CCON
  C:40D5H         PUBLIC        _Init_Str_Motor
  D:0098H         PUBLIC        SCON
  D:0088H         PUBLIC        TCON
  B:00B0H.7       PUBLIC        P37
  D:00F0H         PUBLIC        B
  D:00E0H         PUBLIC        ACC
  C:7F40H         PUBLIC        _read_STR_angle
  X:0791H         SYMBOL        str_motor
  C:7C08H         PUBLIC        _close_STR
  D:00D0H         PUBLIC        PSW
  -------         PROC          _INIT_STR_MOTOR
  X:086FH         SYMBOL        MOTOR
  X:0870H         SYMBOL        pl
  X:0874H         SYMBOL        ph
  X:0878H         SYMBOL        ma
  X:087CH         SYMBOL        n
  -------         DO            
  X:087EH         SYMBOL        GPIO_InitStructure
  X:0880H         SYMBOL        PWM_InitStructure
  -------         ENDDO         
  C:40D5H         LINE#         41
  C:40DAH         LINE#         42
  C:40DAH         LINE#         45
  C:40DFH         LINE#         46
  C:40E3H         LINE#         47
  C:40EEH         LINE#         52
  C:40F0H         LINE#         54
  C:40F3H         LINE#         55
  C:40F8H         LINE#         56
  C:40FAH         LINE#         57
  C:40FCH         LINE#         58
  C:40FFH         LINE#         59
  C:4102H         LINE#         60
  C:4104H         LINE#         61
  C:4106H         LINE#         62
  C:4108H         LINE#         63
  C:410AH         LINE#         64
  C:410CH         LINE#         65
  C:4110H         LINE#         66
  C:4113H         LINE#         67
  C:4115H         LINE#         68
  C:4117H         LINE#         69
  C:4119H         LINE#         70
  C:411BH         LINE#         71
  C:4129H         LINE#         73
  C:412CH         LINE#         74
  C:4136H         LINE#         75
  C:4142H         LINE#         76
  C:4165H         LINE#         77
BL51 BANKED LINKER/LOCATER V6.00                                                      08/07/2017  17:31:50  PAGE 43


  C:4184H         LINE#         78
  C:41A3H         LINE#         79
  C:41BEH         LINE#         80
  C:4240H         LINE#         81
  C:4293H         LINE#         82
  C:42A8H         LINE#         83
  -------         ENDPROC       _INIT_STR_MOTOR
  -------         PROC          _SET_STR_ANGLE
  X:09BDH         SYMBOL        MOTOR
  X:09BEH         SYMBOL        angle
  -------         DO            
  X:09C2H         SYMBOL        str_duty
  -------         ENDDO         
  C:53E9H         LINE#         94
  C:53EEH         LINE#         95
  C:53EEH         LINE#         97
  C:540FH         LINE#         98
  C:548CH         LINE#         108
  C:548CH         LINE#         109
  C:54B5H         LINE#         110
  C:54D1H         LINE#         111
  C:54D1H         LINE#         112
  -------         ENDPROC       _SET_STR_ANGLE
  -------         PROC          _READ_STR_ANGLE
  D:0007H         SYMBOL        MOTOR
  C:7F40H         LINE#         123
  C:7F40H         LINE#         124
  C:7F40H         LINE#         125
  C:7F59H         LINE#         126
  -------         ENDPROC       _READ_STR_ANGLE
  -------         PROC          _OPEN_STR
  X:0A73H         SYMBOL        MOTOR
  C:7BA9H         LINE#         127
  C:7BAEH         LINE#         128
  C:7BAEH         LINE#         129
  C:7BB1H         LINE#         130
  C:7BC7H         LINE#         131
  C:7BC8H         LINE#         132
  -------         ENDPROC       _OPEN_STR
  -------         PROC          _CLOSE_STR
  X:0A74H         SYMBOL        MOTOR
  C:7C08H         LINE#         133
  C:7C0DH         LINE#         134
  C:7C0DH         LINE#         135
  C:7C10H         LINE#         136
  C:7C25H         LINE#         137
  C:7C26H         LINE#         138
  -------         ENDPROC       _CLOSE_STR
  -------         ENDMOD        SERVO

  -------         MODULE        STEP_MOTOR
  C:0000H         SYMBOL        _ICE_DUMMY_
  D:0080H         PUBLIC        P0
  D:0090H         PUBLIC        P1
  D:00A0H         PUBLIC        P2
  D:00B0H         PUBLIC        P3
  D:00C0H         PUBLIC        P4
BL51 BANKED LINKER/LOCATER V6.00                                                      08/07/2017  17:31:50  PAGE 44


  D:00C8H         PUBLIC        P5
  D:00E8H         PUBLIC        P6
  C:8341H         PUBLIC        _setStepMotorState
  D:00F8H         PUBLIC        P7
  C:6B1BH         PUBLIC        _setStepMotorWithAngle
  D:00A8H         PUBLIC        IE
  B:00A0H.6       PUBLIC        StepMotor_1_LockControl
  B:00A0H.4       PUBLIC        StepMotor_2_LockControl
  D:00B8H         PUBLIC        IP
  X:08B0H         SYMBOL        g_stepMotor
  D:00D8H         PUBLIC        CCON
  C:7D58H         PUBLIC        _close_StepMotor
  C:747DH         PUBLIC        _setStepMotorWithRound
  C:7925H         PUBLIC        _setStepMotorWithPulse
  D:0098H         PUBLIC        SCON
  D:0088H         PUBLIC        TCON
  C:7E3AH         PUBLIC        _setStepMotorDiversion
  D:00F0H         PUBLIC        B
  B:00A0H.7       PUBLIC        StepMotor_1_DiversionControl
  B:00A0H.5       PUBLIC        StepMotor_2_DiversionControl
  D:00E0H         PUBLIC        ACC
  C:8169H         PUBLIC        _open_StepMotor
  C:5F74H         PUBLIC        _stepMotor_Init
  C:586EH         PUBLIC        _setStepMotorWithDistance
  C:7DAFH         PUBLIC        _freeStepMotor
  C:7DCBH         PUBLIC        _lockStepMotor
  C:8268H         PUBLIC        _getStepMotorState
  D:00D0H         PUBLIC        PSW
  -------         PROC          _SETSTEPMOTORWITHPULSE
  D:0007H         SYMBOL        motor
  X:09D7H         SYMBOL        pulse
  X:09DBH         SYMBOL        speed
  C:7925H         LINE#         28
  C:7925H         LINE#         29
  C:7925H         LINE#         30
  C:7948H         LINE#         31
  C:7949H         LINE#         32
  -------         ENDPROC       _SETSTEPMOTORWITHPULSE
  -------         PROC          _SETSTEPMOTORWITHDISTANCE
  X:09DDH         SYMBOL        motor
  X:09DEH         SYMBOL        distance
  X:09E2H         SYMBOL        speed
  C:586EH         LINE#         43
  C:5873H         LINE#         44
  C:5873H         LINE#         47
  C:5933H         LINE#         49
  C:5934H         LINE#         51
  -------         ENDPROC       _SETSTEPMOTORWITHDISTANCE
  -------         PROC          _SETSTEPMOTORWITHANGLE
  X:09E4H         SYMBOL        motor
  X:09E5H         SYMBOL        angle
  X:09E9H         SYMBOL        speed
  C:6B1BH         LINE#         62
  C:6B20H         LINE#         63
  C:6B20H         LINE#         65
  C:6B7EH         LINE#         66
  C:6B7FH         LINE#         67
BL51 BANKED LINKER/LOCATER V6.00                                                      08/07/2017  17:31:50  PAGE 45


  -------         ENDPROC       _SETSTEPMOTORWITHANGLE
  -------         PROC          _SETSTEPMOTORWITHROUND
  D:0007H         SYMBOL        motor
  D:0004H         SYMBOL        round
  X:0A5DH         SYMBOL        speed
  C:747DH         LINE#         78
  C:7485H         LINE#         79
  C:7485H         LINE#         80
  C:74B4H         LINE#         81
  C:74B5H         LINE#         82
  -------         ENDPROC       _SETSTEPMOTORWITHROUND
  -------         PROC          _SETSTEPMOTORSTATE
  D:0007H         SYMBOL        motor
  D:0005H         SYMBOL        state
  C:8341H         LINE#         83
  C:8341H         LINE#         84
  C:8341H         LINE#         85
  C:8344H         LINE#         86
  C:8344H         LINE#         87
  C:8349H         LINE#         88
  C:834AH         LINE#         90
  C:834AH         LINE#         91
  C:834FH         LINE#         92
  C:834FH         LINE#         93
  -------         ENDPROC       _SETSTEPMOTORSTATE
  -------         PROC          _GETSTEPMOTORSTATE
  D:0007H         SYMBOL        motor
  C:8268H         LINE#         102
  C:8268H         LINE#         103
  C:8268H         LINE#         104
  C:8278H         LINE#         105
  -------         ENDPROC       _GETSTEPMOTORSTATE
  -------         PROC          _SETSTEPMOTORDIVERSION
  D:0007H         SYMBOL        motor
  B:0022H.0       SYMBOL        diversion
  C:7E3AH         LINE#         107
  C:7E3AH         LINE#         108
  C:7E3AH         LINE#         110
  C:7E3DH         LINE#         111
  C:7E3DH         LINE#         112
  C:7E40H         LINE#         113
  C:7E40H         LINE#         114
  C:7E42H         LINE#         115
  C:7E44H         LINE#         117
  C:7E44H         LINE#         118
  C:7E46H         LINE#         119
  C:7E46H         LINE#         120
  C:7E46H         LINE#         121
  C:7E4AH         LINE#         122
  C:7E4AH         LINE#         123
  C:7E4DH         LINE#         124
  C:7E4DH         LINE#         125
  C:7E4FH         LINE#         126
  C:7E51H         LINE#         128
  C:7E51H         LINE#         129
  C:7E53H         LINE#         130
  C:7E53H         LINE#         131
BL51 BANKED LINKER/LOCATER V6.00                                                      08/07/2017  17:31:50  PAGE 46


  C:7E53H         LINE#         134
  C:7E54H         LINE#         135
  -------         ENDPROC       _SETSTEPMOTORDIVERSION
  -------         PROC          _CLOSE_STEPMOTOR
  X:0A75H         SYMBOL        motor
  C:7D58H         LINE#         144
  C:7D5DH         LINE#         145
  C:7D5DH         LINE#         146
  C:7D60H         LINE#         147
  C:7D74H         LINE#         149
  -------         ENDPROC       _CLOSE_STEPMOTOR
  -------         PROC          _OPEN_STEPMOTOR
  D:0007H         SYMBOL        motor
  C:8169H         LINE#         158
  C:8169H         LINE#         159
  C:8169H         LINE#         160
  C:8179H         LINE#         161
  -------         ENDPROC       _OPEN_STEPMOTOR
  -------         PROC          _FREESTEPMOTOR
  D:0007H         SYMBOL        motor
  C:7DAFH         LINE#         171
  C:7DAFH         LINE#         172
  C:7DAFH         LINE#         173
  C:7DB2H         LINE#         174
  C:7DB2H         LINE#         175
  C:7DB4H         LINE#         176
  C:7DB6H         LINE#         178
  C:7DB6H         LINE#         179
  C:7DB8H         LINE#         180
  C:7DB8H         LINE#         181
  C:7DC9H         LINE#         182
  C:7DCAH         LINE#         183
  -------         ENDPROC       _FREESTEPMOTOR
  -------         PROC          _LOCKSTEPMOTOR
  D:0007H         SYMBOL        motor
  C:7DCBH         LINE#         192
  C:7DCBH         LINE#         193
  C:7DCBH         LINE#         194
  C:7DCEH         LINE#         195
  C:7DCEH         LINE#         196
  C:7DD0H         LINE#         197
  C:7DD2H         LINE#         199
  C:7DD2H         LINE#         200
  C:7DD4H         LINE#         201
  C:7DD4H         LINE#         202
  C:7DE5H         LINE#         204
  C:7DE6H         LINE#         205
  -------         ENDPROC       _LOCKSTEPMOTOR
  -------         PROC          _STEPMOTOR_INIT
  X:098DH         SYMBOL        motor
  X:098EH         SYMBOL        div
  X:0992H         SYMBOL        driverDiv
  X:0993H         SYMBOL        maxPeriod
  X:0995H         SYMBOL        bearingDia
  -------         DO            
  X:0999H         SYMBOL        GPIO_InitStructure
  -------         ENDDO         
BL51 BANKED LINKER/LOCATER V6.00                                                      08/07/2017  17:31:50  PAGE 47


  C:5F74H         LINE#         217
  C:5F79H         LINE#         218
  C:5F79H         LINE#         224
  C:5F7EH         LINE#         225
  C:5F82H         LINE#         226
  C:5F8DH         LINE#         227
  C:5FB0H         LINE#         228
  C:5FC5H         LINE#         229
  C:5FE0H         LINE#         230
  C:5FFFH         LINE#         231
  C:6010H         LINE#         232
  -------         ENDPROC       _STEPMOTOR_INIT
  -------         ENDMOD        STEP_MOTOR

  -------         MODULE        ANGLE
  C:0000H         SYMBOL        _ICE_DUMMY_
  D:0080H         PUBLIC        P0
  D:0090H         PUBLIC        P1
  D:00A0H         PUBLIC        P2
  D:00B0H         PUBLIC        P3
  D:00C0H         PUBLIC        P4
  D:00C8H         PUBLIC        P5
  D:00E8H         PUBLIC        P6
  D:00F8H         PUBLIC        P7
  D:00A8H         PUBLIC        IE
  D:00B8H         PUBLIC        IP
  C:7DE7H         PUBLIC        _ADC_config
  D:00D8H         PUBLIC        CCON
  C:6821H         PUBLIC        getAngle
  D:0098H         PUBLIC        SCON
  D:0088H         PUBLIC        TCON
  D:00F0H         PUBLIC        B
  D:00E0H         PUBLIC        ACC
  D:00D0H         PUBLIC        PSW
  -------         PROC          _ADC_CONFIG
  D:0007H         SYMBOL        pin
  D:0005H         SYMBOL        speed
  -------         DO            
  X:0290H         SYMBOL        ADC_InitStructure
  -------         ENDDO         
  C:7DE7H         LINE#         26
  C:7DE7H         LINE#         27
  C:7DE7H         LINE#         29
  C:7DECH         LINE#         30
  C:7DEFH         LINE#         31
  C:7DF3H         LINE#         32
  C:7DF6H         LINE#         33
  C:7DF8H         LINE#         34
  C:7DFAH         LINE#         35
  -------         ENDPROC       _ADC_CONFIG
  -------         PROC          GETANGLE
  B:0022H.1       SYMBOL        whichAngle
  -------         DO            
  X:08FAH         SYMBOL        angleData
  X:090EH         SYMBOL        angleDataloopTemp1
  X:09C6H         SYMBOL        presentAngle
  X:09CAH         SYMBOL        lastAngle
BL51 BANKED LINKER/LOCATER V6.00                                                      08/07/2017  17:31:50  PAGE 48


  -------         ENDDO         
  C:6821H         LINE#         52
  C:6821H         LINE#         53
  C:6821H         LINE#         55
  C:6826H         LINE#         57
  C:6829H         LINE#         58
  C:6829H         LINE#         60
  C:682AH         LINE#         61
  C:682AH         LINE#         62
  C:6843H         LINE#         63
  C:684FH         LINE#         64
  C:6874H         LINE#         66
  C:6886H         LINE#         67
  C:688BH         LINE#         68
  C:688BH         LINE#         70
  C:688BH         LINE#         71
  C:6899H         LINE#         72
  C:6899H         LINE#         73
  -------         ENDPROC       GETANGLE
  -------         ENDMOD        ANGLE

  -------         MODULE        PHSENSOR
  C:0000H         SYMBOL        _ICE_DUMMY_
  D:0080H         PUBLIC        P0
  D:0090H         PUBLIC        P1
  D:00A0H         PUBLIC        P2
  D:00B0H         PUBLIC        P3
  D:00C0H         PUBLIC        P4
  D:00C8H         PUBLIC        P5
  D:00E8H         PUBLIC        P6
  D:00F8H         PUBLIC        P7
  D:00A8H         PUBLIC        IE
  D:00B8H         PUBLIC        IP
  D:00D8H         PUBLIC        CCON
  D:0098H         PUBLIC        SCON
  D:0088H         PUBLIC        TCON
  D:00F0H         PUBLIC        B
  D:00E0H         PUBLIC        ACC
  D:00D0H         PUBLIC        PSW
  -------         ENDMOD        PHSENSOR

  -------         MODULE        LIQUIDOMETER
  C:0000H         SYMBOL        _ICE_DUMMY_
  D:0080H         PUBLIC        P0
  D:0090H         PUBLIC        P1
  D:00A0H         PUBLIC        P2
  D:00B0H         PUBLIC        P3
  D:00C0H         PUBLIC        P4
  D:00C8H         PUBLIC        P5
  D:00E8H         PUBLIC        P6
  D:00F8H         PUBLIC        P7
  D:00A8H         PUBLIC        IE
  D:00B8H         PUBLIC        IP
  D:00D8H         PUBLIC        CCON
  D:0098H         PUBLIC        SCON
  D:0088H         PUBLIC        TCON
  D:00F0H         PUBLIC        B
BL51 BANKED LINKER/LOCATER V6.00                                                      08/07/2017  17:31:50  PAGE 49


  D:00E0H         PUBLIC        ACC
  D:00D0H         PUBLIC        PSW
  -------         ENDMOD        LIQUIDOMETER

  -------         MODULE        SPEAKER
  C:0000H         SYMBOL        _ICE_DUMMY_
  D:0080H         PUBLIC        P0
  D:0090H         PUBLIC        P1
  D:00A0H         PUBLIC        P2
  D:00B0H         PUBLIC        P3
  D:00C0H         PUBLIC        P4
  D:00C8H         PUBLIC        P5
  C:8406H         PUBLIC        _setSpeakerPeriod
  D:00E8H         PUBLIC        P6
  D:00F8H         PUBLIC        P7
  D:00A8H         PUBLIC        IE
  C:7B26H         PUBLIC        buzzSucceed
  C:7B47H         PUBLIC        buzzFailed
  D:00B8H         PUBLIC        IP
  D:00D8H         PUBLIC        CCON
  C:840FH         PUBLIC        _setLength
  D:0098H         PUBLIC        SCON
  D:0088H         PUBLIC        TCON
  D:00F0H         PUBLIC        B
  C:796FH         PUBLIC        Speaker_Init
  D:00E0H         PUBLIC        ACC
  C:8487H         PUBLIC        _close_Speaker
  C:5A01H         PUBLIC        _buzz
  C:8481H         PUBLIC        _open_Speaker
  C:83C8H         PUBLIC        buzzWait
  D:00D0H         PUBLIC        PSW
  -------         PROC          _SETSPEAKERPERIOD
  X:0A5FH         SYMBOL        value
  C:8406H         LINE#         2
  C:840EH         LINE#         3
  C:840EH         LINE#         5
  -------         ENDPROC       _SETSPEAKERPERIOD
  -------         PROC          _SETLENGTH
  X:0A61H         SYMBOL        value
  C:840FH         LINE#         6
  C:8417H         LINE#         7
  C:8417H         LINE#         9
  -------         ENDPROC       _SETLENGTH
  -------         PROC          _OPEN_SPEAKER
  X:0A76H         SYMBOL        value
  C:8481H         LINE#         10
  C:8486H         LINE#         11
  C:8486H         LINE#         13
  -------         ENDPROC       _OPEN_SPEAKER
  -------         PROC          _CLOSE_SPEAKER
  X:0A77H         SYMBOL        value
  C:8487H         LINE#         14
  C:848CH         LINE#         15
  C:848CH         LINE#         17
  -------         ENDPROC       _CLOSE_SPEAKER
  C:59FBH         SYMBOL        L?0016
  -------         PROC          L?0015
BL51 BANKED LINKER/LOCATER V6.00                                                      08/07/2017  17:31:50  PAGE 50


  -------         ENDPROC       L?0015
  C:59FBH         SYMBOL        L?0016
  -------         PROC          _BUZZ
  X:0461H         SYMBOL        type
  X:0463H         SYMBOL        time
  -------         DO            
  X:0465H         SYMBOL        pulse
  X:0467H         SYMBOL        loopTime
  -------         ENDDO         
  C:5A01H         LINE#         27
  C:5A13H         LINE#         28
  C:5A13H         LINE#         29
  C:5A3DH         LINE#         30
  C:5A51H         LINE#         31
  C:5A56H         LINE#         32
  C:5A74H         LINE#         33
  C:5A79H         LINE#         35
  C:5A89H         LINE#         36
  C:5A89H         LINE#         37
  C:5A8BH         LINE#         39
  C:5A8DH         LINE#         41
  C:5A8DH         LINE#         42
  C:5A97H         LINE#         43
  C:5A97H         LINE#         44
  C:5AA1H         LINE#         46
  C:5AA3H         LINE#         47
  C:5ABAH         LINE#         49
  C:5ABAH         LINE#         51
  -------         ENDPROC       _BUZZ
  -------         PROC          BUZZSUCCEED
  C:7B26H         LINE#         52
  C:7B26H         LINE#         53
  C:7B26H         LINE#         54
  C:7B31H         LINE#         55
  C:7B3CH         LINE#         56
  -------         ENDPROC       BUZZSUCCEED
  -------         PROC          BUZZWAIT
  C:83C8H         LINE#         58
  C:83C8H         LINE#         59
  C:83C8H         LINE#         60
  -------         ENDPROC       BUZZWAIT
  -------         PROC          BUZZFAILED
  C:7B47H         LINE#         63
  C:7B47H         LINE#         64
  C:7B47H         LINE#         65
  C:7B52H         LINE#         66
  C:7B5DH         LINE#         67
  -------         ENDPROC       BUZZFAILED
  -------         PROC          SPEAKER_INIT
  C:796FH         LINE#         70
  C:796FH         LINE#         71
  C:796FH         LINE#         72
  C:7972H         LINE#         73
  C:7977H         LINE#         74
  C:797AH         LINE#         75
  C:7985H         LINE#         76
  C:7988H         LINE#         77
BL51 BANKED LINKER/LOCATER V6.00                                                      08/07/2017  17:31:50  PAGE 51


  -------         ENDPROC       SPEAKER_INIT
  -------         ENDMOD        SPEAKER

  -------         MODULE        FIXEDPULSER
  C:0000H         SYMBOL        _ICE_DUMMY_
  D:0080H         PUBLIC        P0
  D:0090H         PUBLIC        P1
  D:00A0H         PUBLIC        P2
  D:00B0H         PUBLIC        P3
  X:08CCH         SYMBOL        pulser1Tmp
  D:00C0H         PUBLIC        P4
  X:08CEH         SYMBOL        pulser2Tmp
  D:00C8H         PUBLIC        P5
  D:00E8H         PUBLIC        P6
  D:00F8H         PUBLIC        P7
  D:00A8H         PUBLIC        IE
  X:08D0H         SYMBOL        count1Tmp
  X:08D2H         SYMBOL        count2Tmp
  C:7718H         PUBLIC        PulserInit
  C:7D75H         PUBLIC        _closePulser
  D:00B8H         PUBLIC        IP
  D:00D8H         PUBLIC        CCON
  B:0021H.5       SYMBOL        timer2UseBit
  B:0021H.6       SYMBOL        timer3UseBit
  C:7CFFH         PUBLIC        _openPulser
  D:0098H         PUBLIC        SCON
  D:0088H         PUBLIC        TCON
  C:672BH         SYMBOL        Pulser_1Int
  C:67A6H         SYMBOL        Pulser_2Int
  D:00F0H         PUBLIC        B
  D:008EH         PUBLIC        AUXR
  C:81D9H         PUBLIC        _getPulserState
  D:00E0H         PUBLIC        ACC
  D:00D6H         PUBLIC        TH2
  D:00D4H         PUBLIC        TH3
  X:08D4H         SYMBOL        tmp
  D:00D7H         PUBLIC        TL2
  D:00D5H         PUBLIC        TL3
  C:54FFH         PUBLIC        _setPulse
  D:00D1H         PUBLIC        T4T3M
  X:08D6H         SYMBOL        g_pulser
  D:008FH         PUBLIC        INT_CLKO
  D:00D0H         PUBLIC        PSW
  -------         PROC          _SETPULSE
  D:0003H         SYMBOL        pulser_num
  X:0469H         SYMBOL        Hz
  X:046BH         SYMBOL        count
  -------         DO            
  X:046FH         SYMBOL        timerTmp
  X:0471H         SYMBOL        TIM_Value
  -------         ENDDO         
  C:54FFH         LINE#         37
  C:5509H         LINE#         38
  C:5509H         LINE#         39
  C:5510H         LINE#         41
  C:552BH         LINE#         42
  C:554AH         LINE#         43
BL51 BANKED LINKER/LOCATER V6.00                                                      08/07/2017  17:31:50  PAGE 52


  C:554DH         LINE#         44
  C:554DH         LINE#         45
  C:555DH         LINE#         46
  C:555DH         LINE#         49
  C:5584H         LINE#         50
  C:5586H         LINE#         51
  C:5589H         LINE#         52
  C:5594H         LINE#         53
  C:5596H         LINE#         55
  C:5598H         LINE#         57
  C:5598H         LINE#         58
  C:559AH         LINE#         60
  C:559AH         LINE#         61
  C:559CH         LINE#         63
  C:559CH         LINE#         64
  C:55ACH         LINE#         65
  C:55ACH         LINE#         66
  C:55D3H         LINE#         67
  C:55D5H         LINE#         68
  C:55D8H         LINE#         69
  C:55E3H         LINE#         70
  C:55E5H         LINE#         72
  C:55E7H         LINE#         74
  C:55E7H         LINE#         75
  C:55E9H         LINE#         76
  C:55E9H         LINE#         77
  C:55E9H         LINE#         79
  C:55EAH         LINE#         80
  -------         ENDPROC       _SETPULSE
  -------         PROC          _OPENPULSER
  D:0007H         SYMBOL        pulser_num
  C:7CFFH         LINE#         81
  C:7CFFH         LINE#         82
  C:7CFFH         LINE#         84
  C:7D10H         LINE#         86
  C:7D13H         LINE#         87
  C:7D13H         LINE#         88
  C:7D16H         LINE#         90
  C:7D18H         LINE#         92
  C:7D18H         LINE#         93
  C:7D1BH         LINE#         94
  C:7D1BH         LINE#         96
  C:7D1CH         LINE#         97
  -------         ENDPROC       _OPENPULSER
  -------         PROC          _CLOSEPULSER
  D:0007H         SYMBOL        pulser_num
  C:7D75H         LINE#         98
  C:7D75H         LINE#         99
  C:7D75H         LINE#         100
  C:7D78H         LINE#         101
  C:7D78H         LINE#         102
  C:7D7BH         LINE#         105
  C:7D7DH         LINE#         107
  C:7D7DH         LINE#         108
  C:7D80H         LINE#         110
  C:7D80H         LINE#         111
  C:7D90H         LINE#         112
BL51 BANKED LINKER/LOCATER V6.00                                                      08/07/2017  17:31:50  PAGE 53


  C:7D91H         LINE#         114
  -------         ENDPROC       _CLOSEPULSER
  -------         PROC          _GETPULSERSTATE
  D:0007H         SYMBOL        pulser_num
  C:81D9H         LINE#         115
  C:81D9H         LINE#         116
  C:81D9H         LINE#         118
  C:81EAH         LINE#         120
  -------         ENDPROC       _GETPULSERSTATE
  -------         PROC          PULSERINIT
  -------         DO            
  X:0290H         SYMBOL        GPIO_InitStructure
  -------         ENDDO         
  C:7718H         LINE#         121
  C:7718H         LINE#         122
  C:7718H         LINE#         126
  C:771DH         LINE#         127
  C:7720H         LINE#         128
  C:772AH         LINE#         129
  C:7730H         LINE#         130
  C:773BH         LINE#         131
  C:7740H         LINE#         132
  C:7744H         LINE#         141
  -------         ENDPROC       PULSERINIT
  -------         PROC          PULSER_1INT
  C:672BH         LINE#         183
  C:6748H         LINE#         185
  C:677FH         LINE#         186
  C:677FH         LINE#         187
  C:6784H         LINE#         188
  C:678BH         LINE#         189
  C:678BH         LINE#         191
  -------         ENDPROC       PULSER_1INT
  -------         PROC          PULSER_2INT
  C:67A6H         LINE#         195
  C:67C3H         LINE#         197
  C:67FAH         LINE#         198
  C:67FAH         LINE#         199
  C:67FFH         LINE#         200
  C:6806H         LINE#         201
  C:6806H         LINE#         203
  -------         ENDPROC       PULSER_2INT
  -------         ENDMOD        FIXEDPULSER

  -------         MODULE        MT_1_L298N
  C:0000H         SYMBOL        _ICE_DUMMY_
  D:0080H         PUBLIC        P0
  D:0090H         PUBLIC        P1
  D:00A0H         PUBLIC        P2
  D:00B0H         PUBLIC        P3
  D:00C0H         PUBLIC        P4
  D:00C8H         PUBLIC        P5
  D:00E8H         PUBLIC        P6
  D:00F8H         PUBLIC        P7
  D:00A8H         PUBLIC        IE
  C:842AH         PUBLIC        setCarStop
  C:8445H         PUBLIC        setCarRightTurn
BL51 BANKED LINKER/LOCATER V6.00                                                      08/07/2017  17:31:50  PAGE 54


  D:00B8H         PUBLIC        IP
  C:8460H         PUBLIC        setCarLeftTurn
  D:00D8H         PUBLIC        CCON
  D:0098H         PUBLIC        SCON
  D:0088H         PUBLIC        TCON
  C:8418H         PUBLIC        setCarForward
  D:00F0H         PUBLIC        B
  C:8433H         PUBLIC        setCarRightForward
  D:00E0H         PUBLIC        ACC
  B:0080H.0       PUBLIC        IN1
  B:0080H.1       PUBLIC        IN2
  B:0080H.2       PUBLIC        IN3
  B:0080H.3       PUBLIC        IN4
  C:844EH         PUBLIC        setCarLeftForward
  C:8421H         PUBLIC        setCarBack
  C:843CH         PUBLIC        setCarRightBack
  C:8457H         PUBLIC        setCarLeftBack
  D:00D0H         PUBLIC        PSW
  -------         PROC          SETCARFORWARD
  C:8418H         LINE#         13
  C:8418H         LINE#         14
  C:8418H         LINE#         15
  C:841AH         LINE#         16
  C:841CH         LINE#         17
  C:841EH         LINE#         18
  C:8420H         LINE#         19
  -------         ENDPROC       SETCARFORWARD
  -------         PROC          SETCARBACK
  C:8421H         LINE#         21
  C:8421H         LINE#         22
  C:8421H         LINE#         23
  C:8423H         LINE#         24
  C:8425H         LINE#         25
  C:8427H         LINE#         26
  C:8429H         LINE#         27
  -------         ENDPROC       SETCARBACK
  -------         PROC          SETCARSTOP
  C:842AH         LINE#         29
  C:842AH         LINE#         30
  C:842AH         LINE#         31
  C:842CH         LINE#         32
  C:8432H         LINE#         35
  -------         ENDPROC       SETCARSTOP
  -------         PROC          SETCARRIGHTFORWARD
  C:8433H         LINE#         37
  C:8433H         LINE#         38
  C:8433H         LINE#         39
  C:8435H         LINE#         40
  C:8437H         LINE#         41
  C:8439H         LINE#         42
  C:843BH         LINE#         43
  -------         ENDPROC       SETCARRIGHTFORWARD
  -------         PROC          SETCARRIGHTBACK
  C:843CH         LINE#         45
  C:843CH         LINE#         46
  C:843CH         LINE#         47
  C:843EH         LINE#         48
BL51 BANKED LINKER/LOCATER V6.00                                                      08/07/2017  17:31:50  PAGE 55


  C:8440H         LINE#         49
  C:8442H         LINE#         50
  C:8444H         LINE#         51
  -------         ENDPROC       SETCARRIGHTBACK
  -------         PROC          SETCARRIGHTTURN
  C:8445H         LINE#         53
  C:8445H         LINE#         54
  C:8445H         LINE#         55
  C:8447H         LINE#         56
  C:8449H         LINE#         57
  C:844BH         LINE#         58
  C:844DH         LINE#         59
  -------         ENDPROC       SETCARRIGHTTURN
  -------         PROC          SETCARLEFTFORWARD
  C:844EH         LINE#         61
  C:844EH         LINE#         62
  C:844EH         LINE#         63
  C:8450H         LINE#         64
  C:8452H         LINE#         65
  C:8454H         LINE#         66
  C:8456H         LINE#         67
  -------         ENDPROC       SETCARLEFTFORWARD
  -------         PROC          SETCARLEFTBACK
  C:8457H         LINE#         69
  C:8457H         LINE#         70
  C:8457H         LINE#         71
  C:8459H         LINE#         72
  C:845BH         LINE#         73
  C:845DH         LINE#         74
  C:845FH         LINE#         75
  -------         ENDPROC       SETCARLEFTBACK
  -------         PROC          SETCARLEFTTURN
  C:8460H         LINE#         77
  C:8460H         LINE#         78
  C:8460H         LINE#         79
  C:8462H         LINE#         80
  C:8464H         LINE#         81
  C:8466H         LINE#         82
  C:8468H         LINE#         83
  -------         ENDPROC       SETCARLEFTTURN
  -------         ENDMOD        MT_1_L298N

  -------         MODULE        MPU9250_SBUF
  C:0000H         SYMBOL        _ICE_DUMMY_
  D:0080H         PUBLIC        P0
  D:0090H         PUBLIC        P1
  D:00A0H         PUBLIC        P2
  D:00B0H         PUBLIC        P3
  D:00C0H         PUBLIC        P4
  D:00C8H         PUBLIC        P5
  D:00E8H         PUBLIC        P6
  D:00F8H         PUBLIC        P7
  C:81EBH         PUBLIC        _EnableJY901
  D:00A8H         PUBLIC        IE
  C:81FDH         PUBLIC        _openJY901SbufMode
  D:00B8H         PUBLIC        IP
  C:6FA1H         PUBLIC        _getJY901Palstance
BL51 BANKED LINKER/LOCATER V6.00                                                      08/07/2017  17:31:50  PAGE 56


  D:00D8H         PUBLIC        CCON
  C:74EEH         PUBLIC        _getJY901Magnetic
  D:0098H         PUBLIC        SCON
  D:0088H         PUBLIC        TCON
  D:00F0H         PUBLIC        B
  X:0626H         SYMBOL        MPU9250
  D:00E0H         PUBLIC        ACC
  C:6F57H         PUBLIC        _getJY901Acceleration
  C:7407H         PUBLIC        _InitJY901
  C:6141H         PUBLIC        _CharToLong
  C:19D7H         PUBLIC        _CopeSerialData
  C:75F7H         PUBLIC        _getJY901Angle
  C:828AH         PUBLIC        _closeJY901SbufMode
  C:8279H         PUBLIC        _DisableJY901
  D:00D0H         PUBLIC        PSW
  -------         PROC          _INITJY901
  D:0007H         SYMBOL        JY901_N
  C:7407H         LINE#         103
  C:7407H         LINE#         104
  C:7407H         LINE#         105
  C:7417H         LINE#         106
  C:7427H         LINE#         107
  C:7437H         LINE#         108
  -------         ENDPROC       _INITJY901
  -------         PROC          _ENABLEJY901
  D:0007H         SYMBOL        JY901_N
  C:81EBH         LINE#         120
  C:81EBH         LINE#         121
  C:81EBH         LINE#         122
  C:81FCH         LINE#         123
  -------         ENDPROC       _ENABLEJY901
  -------         PROC          _DISABLEJY901
  D:0007H         SYMBOL        JY901_N
  C:8279H         LINE#         133
  C:8279H         LINE#         134
  C:8279H         LINE#         135
  C:8289H         LINE#         136
  -------         ENDPROC       _DISABLEJY901
  -------         PROC          _OPENJY901SBUFMODE
  D:0007H         SYMBOL        JY901_N
  C:81FDH         LINE#         146
  C:81FDH         LINE#         147
  C:81FDH         LINE#         148
  C:820EH         LINE#         149
  -------         ENDPROC       _OPENJY901SBUFMODE
  -------         PROC          _CLOSEJY901SBUFMODE
  D:0007H         SYMBOL        JY901_N
  C:828AH         LINE#         159
  C:828AH         LINE#         160
  C:828AH         LINE#         161
  C:829AH         LINE#         162
  -------         ENDPROC       _CLOSEJY901SBUFMODE
  -------         PROC          _GETJY901ACCELERATION
  D:0007H         SYMBOL        JY901_N
  D:0005H         SYMBOL        axis
  C:6F57H         LINE#         173
  C:6F57H         LINE#         174
BL51 BANKED LINKER/LOCATER V6.00                                                      08/07/2017  17:31:50  PAGE 57


  C:6F57H         LINE#         175
  C:6F6AH         LINE#         176
  C:6F6AH         LINE#         177
  C:6F9BH         LINE#         178
  C:6F9BH         LINE#         179
  C:6FA0H         LINE#         180
  -------         ENDPROC       _GETJY901ACCELERATION
  -------         PROC          _GETJY901PALSTANCE
  D:0007H         SYMBOL        JY901_N
  D:0005H         SYMBOL        axis
  C:6FA1H         LINE#         191
  C:6FA1H         LINE#         192
  C:6FA1H         LINE#         193
  C:6FB4H         LINE#         194
  C:6FB4H         LINE#         195
  C:6FE5H         LINE#         196
  C:6FE5H         LINE#         197
  C:6FEAH         LINE#         198
  -------         ENDPROC       _GETJY901PALSTANCE
  -------         PROC          _GETJY901ANGLE
  D:0007H         SYMBOL        JY901_N
  D:0005H         SYMBOL        axis
  C:75F7H         LINE#         209
  C:75F7H         LINE#         210
  C:75F7H         LINE#         212
  C:75F7H         LINE#         213
  C:7628H         LINE#         214
  C:7628H         LINE#         216
  -------         ENDPROC       _GETJY901ANGLE
  -------         PROC          _GETJY901MAGNETIC
  D:0007H         SYMBOL        JY901_N
  D:0005H         SYMBOL        axis
  C:74EEH         LINE#         227
  C:74EEH         LINE#         228
  C:74EEH         LINE#         229
  C:7500H         LINE#         230
  C:7500H         LINE#         231
  C:751EH         LINE#         232
  C:751EH         LINE#         233
  C:7523H         LINE#         234
  -------         ENDPROC       _GETJY901MAGNETIC
  -------         PROC          _CHARTOLONG
  X:09F9H         SYMBOL        Dest
  X:09FCH         SYMBOL        Source
  C:6141H         LINE#         237
  C:614CH         LINE#         238
  C:614CH         LINE#         239
  C:616BH         LINE#         240
  C:618FH         LINE#         241
  C:61B3H         LINE#         242
  -------         ENDPROC       _CHARTOLONG
  -------         PROC          _COPESERIALDATA
  X:0817H         SYMBOL        JY901_N
  -------         DO            
  X:0818H         SYMBOL        str_0
  X:0827H         SYMBOL        str_1
  X:0836H         SYMBOL        str_2
BL51 BANKED LINKER/LOCATER V6.00                                                      08/07/2017  17:31:50  PAGE 58


  X:0619H         SYMBOL        ucRxBuffer
  X:0625H         SYMBOL        ucRxCnt
  -------         ENDDO         
  C:19D7H         LINE#         245
  C:19DCH         LINE#         246
  C:19DCH         LINE#         250
  C:19EFH         LINE#         251
  C:19EFH         LINE#         252
  C:1A07H         LINE#         253
  C:1A07H         LINE#         254
  C:1A17H         LINE#         255
  C:1A1FH         LINE#         256
  C:1A1FH         LINE#         257
  C:1A24H         LINE#         258
  C:1A29H         LINE#         262
  C:1A29H         LINE#         264
  C:1A45H         LINE#         266
  C:1A51H         LINE#         267
  C:1A51H         LINE#         271
  C:1A51H         LINE#         283
  C:1A51H         LINE#         285
  C:1A88H         LINE#         286
  C:1A88H         LINE#         287
  C:1A88H         LINE#         288
  C:1AA1H         LINE#         289
  C:1AB6H         LINE#         290
  C:1ACBH         LINE#         291
  C:1AE0H         LINE#         292
  C:1AF5H         LINE#         293
  C:1B0AH         LINE#         294
  C:1B25H         LINE#         297
  C:1B28H         LINE#         298
  C:1B28H         LINE#         299
  C:1B4BH         LINE#         300
  C:1B6AH         LINE#         301
  C:1B85H         LINE#         305
  C:1B88H         LINE#         306
  C:1B88H         LINE#         307
  C:1BABH         LINE#         308
  C:1BCAH         LINE#         309
  C:1BE5H         LINE#         312
  C:1BE8H         LINE#         313
  C:1BE8H         LINE#         314
  C:1C0BH         LINE#         315
  C:1C2AH         LINE#         316
  C:1C4DH         LINE#         317
  C:1C65H         LINE#         326
  C:1C68H         LINE#         327
  C:1C68H         LINE#         328
  C:1C8BH         LINE#         329
  C:1CAAH         LINE#         330
  C:1CCDH         LINE#         331
  C:1CE5H         LINE#         334
  C:1CE7H         LINE#         335
  C:1CE7H         LINE#         336
  C:1D0AH         LINE#         337
  C:1D29H         LINE#         338
BL51 BANKED LINKER/LOCATER V6.00                                                      08/07/2017  17:31:50  PAGE 59


  C:1D4CH         LINE#         339
  C:1D6BH         LINE#         340
  C:1D6EH         LINE#         341
  C:1D6EH         LINE#         342
  C:1D74H         LINE#         343
  C:1D78H         LINE#         344
  C:1D7CH         LINE#         345
  C:1D80H         LINE#         346
  C:1DA6H         LINE#         347
  C:1DB3H         LINE#         348
  C:1DB6H         LINE#         349
  C:1DB6H         LINE#         350
  C:1DDCH         LINE#         351
  C:1DE9H         LINE#         352
  C:1DEBH         LINE#         353
  C:1DEBH         LINE#         354
  C:1E0EH         LINE#         355
  C:1E2DH         LINE#         356
  C:1E53H         LINE#         357
  C:1E53H         LINE#         358
  C:1E53H         LINE#         359
  C:1E53H         LINE#         360
  C:1E58H         LINE#         361
  C:1E5CH         LINE#         362
  C:1E70H         LINE#         370
  C:1E70H         LINE#         371
  C:1E70H         LINE#         372
  -------         ENDPROC       _COPESERIALDATA
  -------         ENDMOD        MPU9250_SBUF

  -------         MODULE        RELAY
  C:0000H         SYMBOL        _ICE_DUMMY_
  D:0080H         PUBLIC        P0
  D:0090H         PUBLIC        P1
  D:00A0H         PUBLIC        P2
  D:00B0H         PUBLIC        P3
  D:00C0H         PUBLIC        P4
  D:00C8H         PUBLIC        P5
  D:00E8H         PUBLIC        P6
  D:00F8H         PUBLIC        P7
  D:00A8H         PUBLIC        IE
  C:820FH         PUBLIC        _openRelayModular
  D:00B8H         PUBLIC        IP
  D:00D8H         PUBLIC        CCON
  X:09B3H         SYMBOL        s_RelayModular
  D:0098H         PUBLIC        SCON
  D:0088H         PUBLIC        TCON
  D:00F0H         PUBLIC        B
  C:765AH         PUBLIC        _closeRelayKey
  D:00E0H         PUBLIC        ACC
  B:00A0H.7       PUBLIC        IN1
  B:00A0H.6       PUBLIC        IN2
  B:00A0H.5       PUBLIC        IN3
  B:00A0H.4       PUBLIC        IN4
  C:768BH         PUBLIC        _openRelayKey
  C:7442H         PUBLIC        _closeRelayModular
  C:649AH         SYMBOL        _RelayKeyChange
BL51 BANKED LINKER/LOCATER V6.00                                                      08/07/2017  17:31:50  PAGE 60


  C:80F3H         PUBLIC        Relay_Init
  D:00D0H         PUBLIC        PSW
  -------         PROC          RELAY_INIT
  -------         DO            
  X:0A63H         SYMBOL        GPIO_InitStructure
  -------         ENDDO         
  C:80F3H         LINE#         25
  C:80F3H         LINE#         26
  C:80F3H         LINE#         28
  C:80F8H         LINE#         29
  C:80FCH         LINE#         30
  -------         ENDPROC       RELAY_INIT
  -------         PROC          _RELAYKEYCHANGE
  D:0007H         SYMBOL        RELAY_MODULAR_N
  D:0005H         SYMBOL        RELAY_N
  C:649AH         LINE#         33
  C:649AH         LINE#         34
  C:649AH         LINE#         35
  C:64A8H         LINE#         36
  C:64A8H         LINE#         37
  C:64A8H         LINE#         38
  C:64C5H         LINE#         39
  C:64C6H         LINE#         40
  C:64C6H         LINE#         41
  C:64E3H         LINE#         42
  C:64E4H         LINE#         43
  C:64E4H         LINE#         44
  C:6501H         LINE#         45
  C:6502H         LINE#         46
  C:6502H         LINE#         47
  C:651FH         LINE#         48
  C:651FH         LINE#         49
  C:651FH         LINE#         50
  -------         ENDPROC       _RELAYKEYCHANGE
  -------         PROC          _OPENRELAYMODULAR
  D:0007H         SYMBOL        RELAY_MODULAR_N
  C:820FH         LINE#         51
  C:820FH         LINE#         52
  C:820FH         LINE#         53
  C:8220H         LINE#         54
  -------         ENDPROC       _OPENRELAYMODULAR
  -------         PROC          _CLOSERELAYMODULAR
  D:0006H         SYMBOL        RELAY_MODULAR_N
  -------         DO            
  D:0004H         SYMBOL        val
  -------         ENDDO         
  C:7442H         LINE#         56
  C:7444H         LINE#         57
  C:7444H         LINE#         59
  C:7454H         LINE#         60
  C:7455H         LINE#         61
  C:7455H         LINE#         62
  C:7470H         LINE#         63
  C:7477H         LINE#         64
  C:747CH         LINE#         65
  -------         ENDPROC       _CLOSERELAYMODULAR
  -------         PROC          _OPENRELAYKEY
BL51 BANKED LINKER/LOCATER V6.00                                                      08/07/2017  17:31:50  PAGE 61


  D:0007H         SYMBOL        RELAY_MODULAR_N
  D:0005H         SYMBOL        RELAY_N
  C:768BH         LINE#         67
  C:768BH         LINE#         68
  C:768BH         LINE#         69
  C:769DH         LINE#         70
  C:769DH         LINE#         71
  C:76B7H         LINE#         72
  C:76BAH         LINE#         73
  C:76BAH         LINE#         74
  -------         ENDPROC       _OPENRELAYKEY
  -------         PROC          _CLOSERELAYKEY
  D:0007H         SYMBOL        RELAY_MODULAR_N
  D:0005H         SYMBOL        RELAY_N
  C:765AH         LINE#         76
  C:765AH         LINE#         77
  C:765AH         LINE#         78
  C:766CH         LINE#         79
  C:766CH         LINE#         80
  C:7687H         LINE#         81
  C:768AH         LINE#         82
  C:768AH         LINE#         83
  -------         ENDPROC       _CLOSERELAYKEY
  -------         ENDMOD        RELAY

  -------         MODULE        TM1638
  C:0000H         SYMBOL        _ICE_DUMMY_
  D:000EH         PUBLIC        DisBuffer
  D:0080H         PUBLIC        P0
  D:0090H         PUBLIC        P1
  D:00A0H         PUBLIC        P2
  D:00B0H         PUBLIC        P3
  D:00C0H         PUBLIC        P4
  D:00C8H         PUBLIC        P5
  D:00E8H         PUBLIC        P6
  D:00F8H         PUBLIC        P7
  D:00A8H         PUBLIC        IE
  D:00B8H         PUBLIC        IP
  C:7C27H         PUBLIC        _setTM1638COM
  D:00D8H         PUBLIC        CCON
  B:00C0H.1       PUBLIC        TM1638_CLK
  B:00C0H.0       PUBLIC        TM1638_DIO
  D:0098H         PUBLIC        SCON
  D:0088H         PUBLIC        TCON
  C:70C2H         PUBLIC        getTM1638Read
  C:8089H         PUBLIC        tab
  B:00C0H.2       PUBLIC        TM1638_STB
  D:00F0H         PUBLIC        B
  C:809BH         SYMBOL        _?ix1000
  D:00E0H         PUBLIC        ACC
  C:84B5H         PUBLIC        CloseTM1638Display
  C:7354H         PUBLIC        _setTM1638Write
  C:2E47H         PUBLIC        _TM1638LedDisplay
  C:76BBH         PUBLIC        Init_TM1638
  C:517AH         PUBLIC        getButtonNum
  D:00D0H         PUBLIC        PSW
  -------         PROC          _SETTM1638WRITE
BL51 BANKED LINKER/LOCATER V6.00                                                      08/07/2017  17:31:50  PAGE 62


  X:0467H         SYMBOL        DATA
  -------         DO            
  X:0468H         SYMBOL        i
  -------         ENDDO         
  C:7354H         LINE#         33
  C:7359H         LINE#         34
  C:7359H         LINE#         36
  C:735CH         LINE#         37
  C:735CH         LINE#         38
  C:735EH         LINE#         39
  C:7365H         LINE#         40
  C:736DH         LINE#         41
  C:7371H         LINE#         43
  C:7373H         LINE#         44
  C:737AH         LINE#         45
  C:737CH         LINE#         46
  C:7383H         LINE#         47
  C:738FH         LINE#         48
  -------         ENDPROC       _SETTM1638WRITE
  -------         PROC          GETTM1638READ
  -------         DO            
  X:0467H         SYMBOL        i
  X:0468H         SYMBOL        temp
  -------         ENDDO         
  C:70C2H         LINE#         58
  C:70C2H         LINE#         59
  C:70C2H         LINE#         61
  C:70C7H         LINE#         62
  C:70C9H         LINE#         63
  C:70CDH         LINE#         64
  C:70CDH         LINE#         65
  C:70D4H         LINE#         66
  C:70D6H         LINE#         67
  C:70DDH         LINE#         68
  C:70E0H         LINE#         69
  C:70E7H         LINE#         70
  C:70E9H         LINE#         71
  C:70F0H         LINE#         72
  C:70FCH         LINE#         73
  C:7103H         LINE#         74
  C:7108H         LINE#         75
  -------         ENDPROC       GETTM1638READ
  -------         PROC          _SETTM1638COM
  X:0293H         SYMBOL        cmd
  C:7C27H         LINE#         85
  C:7C2CH         LINE#         86
  C:7C2CH         LINE#         87
  C:7C2EH         LINE#         88
  C:7C35H         LINE#         89
  C:7C3DH         LINE#         90
  C:7C3FH         LINE#         91
  -------         ENDPROC       _SETTM1638COM
  -------         PROC          GETBUTTONNUM
  -------         DO            
  X:0461H         SYMBOL        c
  X:0465H         SYMBOL        i
  X:0466H         SYMBOL        key_value
BL51 BANKED LINKER/LOCATER V6.00                                                      08/07/2017  17:31:50  PAGE 63


  -------         ENDDO         
  C:517AH         LINE#         102
  C:517AH         LINE#         103
  C:517AH         LINE#         104
  C:5192H         LINE#         105
  C:5194H         LINE#         106
  C:5199H         LINE#         107
  C:51A0H         LINE#         108
  C:51A5H         LINE#         109
  C:51C3H         LINE#         110
  C:51C5H         LINE#         111
  C:51D6H         LINE#         112
  C:51E3H         LINE#         113
  C:51F4H         LINE#         114
  C:5201H         LINE#         115
  C:5212H         LINE#         116
  C:521FH         LINE#         117
  C:5230H         LINE#         118
  C:523CH         LINE#         119
  C:524CH         LINE#         120
  C:5258H         LINE#         121
  C:5268H         LINE#         122
  C:5274H         LINE#         123
  C:5284H         LINE#         124
  C:5290H         LINE#         125
  C:52A0H         LINE#         126
  C:52ACH         LINE#         127
  C:52AFH         LINE#         129
  C:52B4H         LINE#         130
  -------         ENDPROC       GETBUTTONNUM
  -------         PROC          INIT_TM1638
  -------         DO            
  X:0292H         SYMBOL        i
  -------         ENDDO         
  C:76BBH         LINE#         140
  C:76BBH         LINE#         141
  C:76BBH         LINE#         143
  C:76C0H         LINE#         144
  C:76C5H         LINE#         145
  C:76CAH         LINE#         146
  C:76CCH         LINE#         147
  C:76D1H         LINE#         148
  C:76D6H         LINE#         149
  C:76E7H         LINE#         150
  C:76E9H         LINE#         151
  -------         ENDPROC       INIT_TM1638
  -------         PROC          _TM1638LEDDISPLAY
  D:0007H         SYMBOL        ddata0
  D:0005H         SYMBOL        ddata1
  D:0003H         SYMBOL        ddata2
  X:093BH         SYMBOL        ddata3
  X:093CH         SYMBOL        ddata4
  X:093DH         SYMBOL        ddata5
  X:093EH         SYMBOL        ddata6
  X:093FH         SYMBOL        ddata7
  -------         DO            
  X:0940H         SYMBOL        writedata0
BL51 BANKED LINKER/LOCATER V6.00                                                      08/07/2017  17:31:50  PAGE 64


  X:0941H         SYMBOL        writedata1
  X:0942H         SYMBOL        writedata2
  X:0943H         SYMBOL        writedata3
  X:0944H         SYMBOL        writedata4
  X:0945H         SYMBOL        writedata5
  X:0946H         SYMBOL        writedata6
  X:0947H         SYMBOL        writedata7
  X:0948H         SYMBOL        data0
  X:0949H         SYMBOL        data1
  X:094AH         SYMBOL        data2
  D:0001H         SYMBOL        data3
  D:0002H         SYMBOL        data4
  D:0003H         SYMBOL        data5
  D:0004H         SYMBOL        data6
  D:0005H         SYMBOL        data7
  -------         ENDDO         
  C:2E47H         LINE#         232
  C:2E47H         LINE#         234
  C:2E47H         LINE#         237
  C:2E4FH         LINE#         238
  C:2E57H         LINE#         239
  C:2E5FH         LINE#         240
  C:2E64H         LINE#         241
  C:2E69H         LINE#         242
  C:2E69H         LINE#         243
  C:2E6DH         LINE#         244
  C:2E6FH         LINE#         246
  C:2ED0H         LINE#         249
  C:2F2DH         LINE#         252
  C:2F89H         LINE#         255
  C:2FE6H         LINE#         258
  C:3043H         LINE#         261
  C:309FH         LINE#         264
  C:30FCH         LINE#         267
  C:315EH         LINE#         270
  C:3163H         LINE#         271
  C:3168H         LINE#         272
  C:316AH         LINE#         273
  C:316FH         LINE#         275
  C:3177H         LINE#         276
  C:317CH         LINE#         277
  C:3184H         LINE#         278
  C:3189H         LINE#         279
  C:3191H         LINE#         280
  C:3196H         LINE#         281
  C:319EH         LINE#         282
  C:31A3H         LINE#         283
  C:31ABH         LINE#         284
  C:31B0H         LINE#         285
  C:31B8H         LINE#         286
  C:31BDH         LINE#         287
  C:31C5H         LINE#         288
  C:31CAH         LINE#         289
  C:31D2H         LINE#         290
  C:31D7H         LINE#         292
  C:31D9H         LINE#         295
  -------         ENDPROC       _TM1638LEDDISPLAY
BL51 BANKED LINKER/LOCATER V6.00                                                      08/07/2017  17:31:50  PAGE 65


  -------         PROC          CLOSETM1638DISPLAY
  C:84B5H         LINE#         305
  C:84B5H         LINE#         306
  C:84B5H         LINE#         307
  -------         ENDPROC       CLOSETM1638DISPLAY
  -------         ENDMOD        TM1638

  -------         MODULE        ADS1115
  C:0000H         SYMBOL        _ICE_DUMMY_
  D:0080H         PUBLIC        P0
  D:0090H         PUBLIC        P1
  D:00A0H         PUBLIC        P2
  D:00B0H         PUBLIC        P3
  D:00C0H         PUBLIC        P4
  D:00C8H         PUBLIC        P5
  D:00E8H         PUBLIC        P6
  D:00F8H         PUBLIC        P7
  D:00A8H         PUBLIC        IE
  C:75C4H         SYMBOL        readConversionRegister
  D:00B8H         PUBLIC        IP
  C:829BH         PUBLIC        _close_ADS1115
  D:00D8H         PUBLIC        CCON
  X:096DH         SYMBOL        ADCchannel
  D:0098H         PUBLIC        SCON
  C:809FH         SYMBOL        changeRegister
  D:0088H         PUBLIC        TCON
  C:8221H         PUBLIC        _open_ADS1115
  C:7D1DH         PUBLIC        _getADS1115ConvsionData
  D:00F0H         PUBLIC        B
  D:00E0H         PUBLIC        ACC
  C:6FEBH         SYMBOL        _writeConfigRegister
  C:7F5AH         PUBLIC        _ADS1115_Config
  D:00D0H         PUBLIC        PSW
  -------         PROC          _WRITECONFIGREGISTER
  X:02FAH         SYMBOL        channel
  C:6FEBH         LINE#         36
  C:6FF0H         LINE#         37
  C:6FF0H         LINE#         38
  C:6FF3H         LINE#         39
  C:6FF8H         LINE#         40
  C:6FFBH         LINE#         42
  C:7000H         LINE#         43
  C:7003H         LINE#         45
  C:7014H         LINE#         46
  C:7014H         LINE#         47
  C:7014H         LINE#         48
  C:7014H         LINE#         49
  C:7016H         LINE#         50
  C:7016H         LINE#         51
  C:7018H         LINE#         52
  C:7018H         LINE#         53
  C:7018H         LINE#         54
  C:701AH         LINE#         55
  C:701AH         LINE#         56
  C:701CH         LINE#         57
  C:701CH         LINE#         58
  C:701CH         LINE#         59
BL51 BANKED LINKER/LOCATER V6.00                                                      08/07/2017  17:31:50  PAGE 66


  C:701EH         LINE#         60
  C:701EH         LINE#         61
  C:7020H         LINE#         62
  C:7020H         LINE#         63
  C:7020H         LINE#         64
  C:7025H         LINE#         65
  C:7025H         LINE#         66
  C:7025H         LINE#         68
  C:7025H         LINE#         69
  C:7028H         LINE#         71
  C:702DH         LINE#         72
  C:7030H         LINE#         74
  -------         ENDPROC       _WRITECONFIGREGISTER
  -------         PROC          CHANGEREGISTER
  C:809FH         LINE#         84
  C:809FH         LINE#         85
  C:809FH         LINE#         86
  C:80A2H         LINE#         87
  C:80A7H         LINE#         88
  C:80AAH         LINE#         90
  C:80AFH         LINE#         91
  C:80B2H         LINE#         93
  -------         ENDPROC       CHANGEREGISTER
  -------         PROC          READCONVERSIONREGISTER
  -------         DO            
  X:02FAH         SYMBOL        str
  D:0006H         SYMBOL        result
  X:0304H         SYMBOL        resultH
  X:0305H         SYMBOL        resultL
  -------         ENDDO         
  C:75C4H         LINE#         102
  C:75C4H         LINE#         103
  C:75C4H         LINE#         106
  C:75CBH         LINE#         107
  C:75CEH         LINE#         108
  C:75D3H         LINE#         109
  C:75D6H         LINE#         110
  C:75DEH         LINE#         111
  C:75E1H         LINE#         112
  C:75E9H         LINE#         113
  C:75ECH         LINE#         114
  C:75F6H         LINE#         115
  C:75F6H         LINE#         116
  -------         ENDPROC       READCONVERSIONREGISTER
  -------         PROC          _ADS1115_CONFIG
  X:0290H         SYMBOL        speed
  X:0291H         SYMBOL        mode
  -------         DO            
  X:0292H         SYMBOL        IIC_GPIO_Init
  -------         ENDDO         
  C:7F5AH         LINE#         128
  C:7F62H         LINE#         129
  C:7F62H         LINE#         131
  C:7F65H         LINE#         132
  C:7F69H         LINE#         133
  -------         ENDPROC       _ADS1115_CONFIG
  -------         PROC          _GETADS1115CONVSIONDATA
BL51 BANKED LINKER/LOCATER V6.00                                                      08/07/2017  17:31:50  PAGE 67


  D:0007H         SYMBOL        channel
  -------         DO            
  X:02F8H         SYMBOL        Data
  -------         ENDDO         
  C:7D1DH         LINE#         144
  C:7D1DH         LINE#         145
  C:7D1DH         LINE#         148
  C:7D2EH         LINE#         149
  C:7D2EH         LINE#         150
  C:7D31H         LINE#         151
  C:7D31H         LINE#         152
  C:7D34H         LINE#         153
  C:7D37H         LINE#         154
  C:7D3AH         LINE#         155
  -------         ENDPROC       _GETADS1115CONVSIONDATA
  -------         PROC          _OPEN_ADS1115
  D:0007H         SYMBOL        channel
  C:8221H         LINE#         156
  C:8221H         LINE#         157
  C:8221H         LINE#         158
  C:8232H         LINE#         159
  -------         ENDPROC       _OPEN_ADS1115
  -------         PROC          _CLOSE_ADS1115
  D:0007H         SYMBOL        channel
  C:829BH         LINE#         160
  C:829BH         LINE#         161
  C:829BH         LINE#         162
  C:82ABH         LINE#         163
  -------         ENDPROC       _CLOSE_ADS1115
  -------         ENDMOD        ADS1115

  -------         MODULE        74HC595
  C:0000H         SYMBOL        _ICE_DUMMY_
  D:0080H         PUBLIC        P0
  D:0090H         PUBLIC        P1
  D:00A0H         PUBLIC        P2
  D:00B0H         PUBLIC        P3
  D:00C0H         PUBLIC        P4
  D:00C8H         PUBLIC        P5
  D:00E8H         PUBLIC        P6
  D:00F8H         PUBLIC        P7
  D:00A8H         PUBLIC        IE
  D:00B8H         PUBLIC        IP
  D:00D8H         PUBLIC        CCON
  C:8029H         PUBLIC        _HC595_Init
  D:0098H         PUBLIC        SCON
  D:0088H         PUBLIC        TCON
  C:82ACH         PUBLIC        _HC595SendData
  D:00F0H         PUBLIC        B
  D:00E0H         PUBLIC        ACC
  D:00D0H         PUBLIC        PSW
  -------         PROC          _HC595_INIT
  D:0006H         SYMBOL        pin1
  X:0A46H         SYMBOL        pin2
  -------         DO            
  X:0A48H         SYMBOL        HC595_Pin
  -------         ENDDO         
BL51 BANKED LINKER/LOCATER V6.00                                                      08/07/2017  17:31:50  PAGE 68


  C:8029H         LINE#         15
  C:8031H         LINE#         16
  C:8031H         LINE#         18
  C:8034H         LINE#         19
  C:8037H         LINE#         20
  -------         ENDPROC       _HC595_INIT
  -------         PROC          _HC595SENDDATA
  X:0A78H         SYMBOL        SendVal
  -------         DO            
  D:0007H         SYMBOL        i
  -------         ENDDO         
  C:82ACH         LINE#         23
  C:82B1H         LINE#         24
  C:82B1H         LINE#         26
  C:82B3H         LINE#         27
  C:82B3H         LINE#         28
  C:82B3H         LINE#         29
  C:82B3H         LINE#         31
  C:82B3H         LINE#         33
  C:82B3H         LINE#         35
  C:82B3H         LINE#         37
  C:82B5H         LINE#         39
  C:82BAH         LINE#         41
  C:82BCH         LINE#         43
  -------         ENDPROC       _HC595SENDDATA
  -------         ENDMOD        74HC595

  -------         MODULE        DS1302
  C:0000H         SYMBOL        _ICE_DUMMY_
  D:0080H         PUBLIC        P0
  D:0090H         PUBLIC        P1
  X:097DH         PUBLIC        time_buf1
  D:00A0H         PUBLIC        P2
  D:00B0H         PUBLIC        P3
  D:00C0H         PUBLIC        P4
  D:00C8H         PUBLIC        P5
  D:00E8H         PUBLIC        P6
  D:00F8H         PUBLIC        P7
  D:00A8H         PUBLIC        IE
  D:00B8H         PUBLIC        IP
  D:00D8H         PUBLIC        CCON
  D:0098H         PUBLIC        SCON
  D:0088H         PUBLIC        TCON
  D:00F0H         PUBLIC        B
  D:00E0H         PUBLIC        ACC
  C:62F7H         PUBLIC        Ds1302_Read_Time
  X:0985H         PUBLIC        time_buf
  B:0090H.3       PUBLIC        DS_SDA
  C:690AH         PUBLIC        _Ds1302_Read_Byte
  C:60ADH         PUBLIC        Ds1302_Write_Time
  B:0090H.1       PUBLIC        SCK
  C:72DCH         PUBLIC        _Ds1302_Write_Byte
  C:7745H         PUBLIC        Ds1302_Init
  B:0090H.2       PUBLIC        RST
  D:00D0H         PUBLIC        PSW
  -------         PROC          L?0032
  -------         ENDPROC       L?0032
BL51 BANKED LINKER/LOCATER V6.00                                                      08/07/2017  17:31:50  PAGE 69


  -------         PROC          _DS1302_WRITE_BYTE
  D:0007H         SYMBOL        addr
  D:0005H         SYMBOL        d
  -------         DO            
  D:0006H         SYMBOL        i
  -------         ENDDO         
  C:72DCH         LINE#         27
  C:72DCH         LINE#         28
  C:72DCH         LINE#         31
  C:72DEH         LINE#         34
  C:72E2H         LINE#         35
  C:72E4H         LINE#         36
  C:72E4H         LINE#         37
  C:72E8H         LINE#         38
  C:72E8H         LINE#         39
  C:72EAH         LINE#         40
  C:72ECH         LINE#         42
  C:72ECH         LINE#         43
  C:72EEH         LINE#         44
  C:72EEH         LINE#         45
  C:72F0H         LINE#         46
  C:72F2H         LINE#         47
  C:72F6H         LINE#         48
  C:72FBH         LINE#         51
  C:72FDH         LINE#         52
  C:72FDH         LINE#         53
  C:7301H         LINE#         54
  C:7301H         LINE#         55
  C:7303H         LINE#         56
  C:7305H         LINE#         58
  C:7305H         LINE#         59
  C:7307H         LINE#         60
  C:7307H         LINE#         61
  C:7309H         LINE#         62
  C:730BH         LINE#         63
  C:730FH         LINE#         64
  C:7314H         LINE#         65
  C:7316H         LINE#         66
  -------         ENDPROC       _DS1302_WRITE_BYTE
  -------         PROC          _DS1302_READ_BYTE
  D:0007H         SYMBOL        addr
  -------         DO            
  X:0A65H         SYMBOL        i
  X:0A66H         SYMBOL        temp
  -------         ENDDO         
  C:690AH         LINE#         77
  C:690AH         LINE#         78
  C:690AH         LINE#         82
  C:690CH         LINE#         85
  C:6910H         LINE#         86
  C:6915H         LINE#         87
  C:6915H         LINE#         89
  C:6919H         LINE#         90
  C:6919H         LINE#         91
  C:691BH         LINE#         92
  C:691DH         LINE#         94
  C:691DH         LINE#         95
BL51 BANKED LINKER/LOCATER V6.00                                                      08/07/2017  17:31:50  PAGE 70


  C:691FH         LINE#         96
  C:691FH         LINE#         97
  C:6921H         LINE#         98
  C:6923H         LINE#         99
  C:6927H         LINE#         100
  C:6931H         LINE#         103
  C:6936H         LINE#         104
  C:6936H         LINE#         105
  C:693EH         LINE#         106
  C:6943H         LINE#         107
  C:6943H         LINE#         108
  C:694AH         LINE#         109
  C:6951H         LINE#         110
  C:6953H         LINE#         112
  C:6953H         LINE#         113
  C:695AH         LINE#         115
  C:6961H         LINE#         116
  C:6961H         LINE#         117
  C:6963H         LINE#         118
  C:6965H         LINE#         119
  C:6971H         LINE#         121
  C:6973H         LINE#         122
  C:6978H         LINE#         123
  -------         ENDPROC       _DS1302_READ_BYTE
  -------         PROC          DS1302_WRITE_TIME
  -------         DO            
  D:0007H         SYMBOL        i
  D:0005H         SYMBOL        tmp
  -------         ENDDO         
  C:60ADH         LINE#         133
  C:60ADH         LINE#         134
  C:60ADH         LINE#         137
  C:60AFH         LINE#         138
  C:60AFH         LINE#         139
  C:60C0H         LINE#         140
  C:60D2H         LINE#         141
  C:60E4H         LINE#         142
  C:60E9H         LINE#         143
  C:60F0H         LINE#         144
  C:60F7H         LINE#         145
  C:60FEH         LINE#         147
  C:6108H         LINE#         148
  C:610DH         LINE#         149
  C:6112H         LINE#         150
  C:611AH         LINE#         151
  C:6122H         LINE#         152
  C:612AH         LINE#         153
  C:6132H         LINE#         154
  C:613AH         LINE#         155
  -------         ENDPROC       DS1302_WRITE_TIME
  -------         PROC          DS1302_READ_TIME
  -------         DO            
  D:0007H         SYMBOL        i
  D:0005H         SYMBOL        tmp
  -------         ENDDO         
  C:62F7H         LINE#         166
  C:62F7H         LINE#         167
BL51 BANKED LINKER/LOCATER V6.00                                                      08/07/2017  17:31:50  PAGE 71


  C:62F7H         LINE#         171
  C:6301H         LINE#         172
  C:630BH         LINE#         173
  C:6315H         LINE#         174
  C:631FH         LINE#         175
  C:6329H         LINE#         176
  C:6333H         LINE#         177
  C:633FH         LINE#         178
  C:6349H         LINE#         181
  C:634BH         LINE#         182
  C:634BH         LINE#         183
  C:635BH         LINE#         184
  C:636BH         LINE#         185
  C:637EH         LINE#         186
  C:6383H         LINE#         187
  -------         ENDPROC       DS1302_READ_TIME
  -------         PROC          DS1302_INIT
  -------         DO            
  X:0A67H         SYMBOL        GPIO_InitStructure
  -------         ENDDO         
  C:7745H         LINE#         197
  C:7745H         LINE#         198
  C:7745H         LINE#         200
  C:774AH         LINE#         201
  C:774EH         LINE#         202
  C:7759H         LINE#         203
  C:775BH         LINE#         204
  C:7762H         LINE#         205
  C:7764H         LINE#         206
  C:776BH         LINE#         207
  -------         ENDPROC       DS1302_INIT
  -------         ENDMOD        DS1302

  -------         MODULE        HC_SR04
  C:0000H         SYMBOL        _ICE_DUMMY_
  C:7B68H         PUBLIC        _setDistance
  D:0080H         PUBLIC        P0
  D:0090H         PUBLIC        P1
  D:00A0H         PUBLIC        P2
  D:00B0H         PUBLIC        P3
  D:00C0H         PUBLIC        P4
  D:00C8H         PUBLIC        P5
  D:00E8H         PUBLIC        P6
  D:00F8H         PUBLIC        P7
  C:8233H         PUBLIC        _open_HC_SR04
  C:7109H         PUBLIC        HC_SR04_init
  D:00A8H         PUBLIC        IE
  C:7F74H         PUBLIC        _getdistance
  D:00B8H         PUBLIC        IP
  B:00B0H.2       PUBLIC        INT0
  C:82CEH         PUBLIC        _getHC_SR04_State
  D:00D8H         PUBLIC        CCON
  C:6A4DH         SYMBOL        Ext_INT0
  D:0098H         PUBLIC        SCON
  B:00B0H.2       PUBLIC        P32
  D:0088H         PUBLIC        TCON
  B:00B0H.3       PUBLIC        P33
BL51 BANKED LINKER/LOCATER V6.00                                                      08/07/2017  17:31:50  PAGE 72


  C:7C46H         PUBLIC        _updateDistance
  D:00F0H         PUBLIC        B
  C:811BH         PUBLIC        _getTimerValue
  D:00E0H         PUBLIC        ACC
  B:00A8H.0       PUBLIC        EX0
  D:00D2H         PUBLIC        TH4
  C:8107H         PUBLIC        _setTimerValue
  D:00D3H         PUBLIC        TL4
  X:0894H         PUBLIC        str
  X:08A8H         SYMBOL        extiBit
  D:00D1H         PUBLIC        T4T3M
  C:82BDH         PUBLIC        _close_HC_SR04
  X:08A9H         SYMBOL        hc_sr04
  D:00D0H         PUBLIC        PSW
  -------         PROC          HC_SR04_INIT
  -------         DO            
  X:0290H         SYMBOL        hc_sr04_GPIO
  X:0292H         SYMBOL        hc_sr04_EXTI
  -------         ENDDO         
  C:7109H         LINE#         29
  C:7109H         LINE#         30
  C:7109H         LINE#         33
  C:710EH         LINE#         34
  C:7112H         LINE#         35
  C:711DH         LINE#         36
  C:7123H         LINE#         37
  C:7127H         LINE#         38
  C:7132H         LINE#         39
  C:7138H         LINE#         40
  C:713DH         LINE#         41
  C:7140H         LINE#         42
  C:714AH         LINE#         43
  C:714CH         LINE#         44
  C:714EH         LINE#         46
  -------         ENDPROC       HC_SR04_INIT
  -------         PROC          _OPEN_HC_SR04
  D:0007H         SYMBOL        num
  C:8233H         LINE#         58
  C:8233H         LINE#         59
  C:8233H         LINE#         61
  C:8244H         LINE#         64
  -------         ENDPROC       _OPEN_HC_SR04
  -------         PROC          _CLOSE_HC_SR04
  D:0007H         SYMBOL        num
  C:82BDH         LINE#         65
  C:82BDH         LINE#         66
  C:82BDH         LINE#         67
  C:82CDH         LINE#         68
  -------         ENDPROC       _CLOSE_HC_SR04
  -------         PROC          _GETHC_SR04_STATE
  D:0007H         SYMBOL        num
  C:82CEH         LINE#         69
  C:82CEH         LINE#         70
  C:82CEH         LINE#         71
  C:82DEH         LINE#         73
  -------         ENDPROC       _GETHC_SR04_STATE
  -------         PROC          _SETTIMERVALUE
BL51 BANKED LINKER/LOCATER V6.00                                                      08/07/2017  17:31:50  PAGE 73


  D:0007H         SYMBOL        num
  D:0004H         SYMBOL        value
  C:8107H         LINE#         74
  C:8107H         LINE#         75
  C:8107H         LINE#         76
  C:811AH         LINE#         77
  -------         ENDPROC       _SETTIMERVALUE
  -------         PROC          _SETDISTANCE
  D:0003H         SYMBOL        num
  X:03C4H         SYMBOL        value
  C:7B68H         LINE#         78
  C:7B6AH         LINE#         79
  C:7B6AH         LINE#         80
  -------         ENDPROC       _SETDISTANCE
  -------         PROC          _GETTIMERVALUE
  D:0007H         SYMBOL        num
  C:811BH         LINE#         90
  C:811BH         LINE#         91
  C:811BH         LINE#         92
  C:812EH         LINE#         94
  -------         ENDPROC       _GETTIMERVALUE
  -------         PROC          _UPDATEDISTANCE
  D:0007H         SYMBOL        num
  -------         DO            
  X:0890H         SYMBOL        time
  -------         ENDDO         
  C:7C46H         LINE#         103
  C:7C46H         LINE#         104
  C:7C46H         LINE#         106
  C:7C57H         LINE#         107
  C:7C57H         LINE#         109
  C:7C57H         LINE#         110
  C:7C59H         LINE#         112
  C:7C5BH         LINE#         113
  C:7C62H         LINE#         114
  C:7C64H         LINE#         136
  -------         ENDPROC       _UPDATEDISTANCE
  -------         PROC          _GETDISTANCE
  D:0007H         SYMBOL        num
  C:7F74H         LINE#         145
  C:7F74H         LINE#         146
  C:7F74H         LINE#         192
  C:7F8DH         LINE#         193
  -------         ENDPROC       _GETDISTANCE
  -------         PROC          EXT_INT0
  C:6A4DH         LINE#         195
  C:6A60H         LINE#         203
  C:6A63H         LINE#         204
  C:6A63H         LINE#         205
  C:6A66H         LINE#         206
  C:6A6BH         LINE#         211
  C:6A6DH         LINE#         212
  C:6A70H         LINE#         213
  C:6A70H         LINE#         215
  C:6A73H         LINE#         216
  C:6A7DH         LINE#         217
  C:6A8FH         LINE#         224
BL51 BANKED LINKER/LOCATER V6.00                                                      08/07/2017  17:31:50  PAGE 74


  C:6A92H         LINE#         225
  C:6A95H         LINE#         226
  C:6A9BH         LINE#         228
  C:6A9DH         LINE#         230
  C:6A9DH         LINE#         231
  C:6AA2H         LINE#         232
  C:6AA5H         LINE#         237
  C:6AA5H         LINE#         240
  -------         ENDPROC       EXT_INT0
  -------         ENDMOD        HC_SR04

  -------         MODULE        ADC
  C:0000H         SYMBOL        _ICE_DUMMY_
  D:0080H         PUBLIC        P0
  D:0090H         PUBLIC        P1
  C:6E61H         PUBLIC        _ADC_Inilize
  D:00A0H         PUBLIC        P2
  D:00B0H         PUBLIC        P3
  D:00C0H         PUBLIC        P4
  D:00C8H         PUBLIC        P5
  D:00E8H         PUBLIC        P6
  D:00F8H         PUBLIC        P7
  B:00A8H.5       PUBLIC        EADC
  D:00A8H         PUBLIC        IE
  D:00BDH         PUBLIC        ADC_RES
  B:00B8H.5       PUBLIC        PADC
  D:00B8H         PUBLIC        IP
  C:83B0H         PUBLIC        _ADC_PowerControl
  D:00D8H         PUBLIC        CCON
  D:00BCH         PUBLIC        ADC_CONTR
  D:0098H         PUBLIC        SCON
  D:0088H         PUBLIC        TCON
  D:00F0H         PUBLIC        B
  D:00E0H         PUBLIC        ACC
  D:009DH         PUBLIC        P1ASF
  D:00BEH         PUBLIC        ADC_RESL
  D:0097H         PUBLIC        PCON2
  C:6CA6H         PUBLIC        _Get_ADC10bitResult
  C:84BAH         PUBLIC        ADC_int
  D:00D0H         PUBLIC        PSW
  -------         PROC          _ADC_INILIZE
  D:0001H         SYMBOL        ADCx
  C:6E61H         LINE#         22
  C:6E61H         LINE#         23
  C:6E61H         LINE#         24
  C:6E66H         LINE#         25
  C:6E74H         LINE#         26
  C:6E7DH         LINE#         27
  C:6E7DH         LINE#         28
  C:6E80H         LINE#         29
  C:6E82H         LINE#         31
  C:6E82H         LINE#         32
  C:6E85H         LINE#         33
  C:6E85H         LINE#         34
  C:6E8EH         LINE#         35
  C:6E8EH         LINE#         36
  C:6E91H         LINE#         37
BL51 BANKED LINKER/LOCATER V6.00                                                      08/07/2017  17:31:50  PAGE 75


  C:6E93H         LINE#         39
  C:6E93H         LINE#         40
  C:6E96H         LINE#         41
  C:6E96H         LINE#         42
  C:6E9FH         LINE#         43
  C:6E9FH         LINE#         44
  C:6EA1H         LINE#         45
  C:6EA3H         LINE#         47
  C:6EA3H         LINE#         48
  C:6EA5H         LINE#         49
  C:6EA5H         LINE#         50
  C:6EAEH         LINE#         51
  C:6EAEH         LINE#         52
  C:6EB0H         LINE#         53
  C:6EB1H         LINE#         55
  C:6EB1H         LINE#         56
  C:6EB3H         LINE#         57
  C:6EB3H         LINE#         58
  -------         ENDPROC       _ADC_INILIZE
  -------         PROC          _ADC_POWERCONTROL
  D:0007H         SYMBOL        pwr
  C:83B0H         LINE#         66
  C:83B0H         LINE#         67
  C:83B0H         LINE#         68
  C:83B4H         LINE#         69
  C:83B4H         LINE#         70
  C:83B7H         LINE#         71
  C:83B8H         LINE#         73
  C:83B8H         LINE#         74
  C:83BBH         LINE#         75
  C:83BBH         LINE#         76
  -------         ENDPROC       _ADC_POWERCONTROL
  -------         PROC          _GET_ADC10BITRESULT
  D:0007H         SYMBOL        channel
  -------         DO            
  D:0004H         SYMBOL        adc
  D:0003H         SYMBOL        i
  -------         ENDDO         
  C:6CA6H         LINE#         84
  C:6CA6H         LINE#         85
  C:6CA6H         LINE#         88
  C:6CACH         LINE#         89
  C:6CACH         LINE#         90
  C:6CAEH         LINE#         91
  C:6CAEH         LINE#         92
  C:6CB1H         LINE#         93
  C:6CB3H         LINE#         94
  C:6CBCH         LINE#         95
  C:6CC0H         LINE#         96
  C:6CC2H         LINE#         97
  C:6CC2H         LINE#         98
  C:6CC7H         LINE#         99
  C:6CC7H         LINE#         100
  C:6CCAH         LINE#         101
  C:6CCFH         LINE#         102
  C:6CCFH         LINE#         103
  C:6CD3H         LINE#         104
BL51 BANKED LINKER/LOCATER V6.00                                                      08/07/2017  17:31:50  PAGE 76


  C:6CD6H         LINE#         105
  C:6CD8H         LINE#         107
  C:6CD8H         LINE#         108
  C:6CDEH         LINE#         109
  C:6CF5H         LINE#         110
  C:6CF5H         LINE#         111
  C:6CFAH         LINE#         112
  C:6CFAH         LINE#         113
  C:6CFFH         LINE#         114
  C:6D03H         LINE#         115
  -------         ENDPROC       _GET_ADC10BITRESULT
  -------         PROC          ADC_INT
  C:84BAH         LINE#         123
  C:84BAH         LINE#         125
  C:84BDH         LINE#         126
  -------         ENDPROC       ADC_INT
  -------         ENDMOD        ADC

  -------         MODULE        DELAY
  C:0000H         SYMBOL        _ICE_DUMMY_
  D:0080H         PUBLIC        P0
  D:0090H         PUBLIC        P1
  D:00A0H         PUBLIC        P2
  D:00B0H         PUBLIC        P3
  D:00C0H         PUBLIC        P4
  D:00C8H         PUBLIC        P5
  D:00E8H         PUBLIC        P6
  D:00F8H         PUBLIC        P7
  D:00A8H         PUBLIC        IE
  D:00B8H         PUBLIC        IP
  D:00D8H         PUBLIC        CCON
  D:0098H         PUBLIC        SCON
  D:0088H         PUBLIC        TCON
  D:00F0H         PUBLIC        B
  D:00E0H         PUBLIC        ACC
  C:8322H         PUBLIC        _delay_ms
  C:76EAH         PUBLIC        _delay_us
  D:00D0H         PUBLIC        PSW
  -------         PROC          _DELAY_MS
  D:0007H         SYMBOL        ms
  -------         DO            
  D:0004H         SYMBOL        i
  -------         ENDDO         
  C:8322H         LINE#         26
  C:8322H         LINE#         27
  C:8322H         LINE#         30
  C:8322H         LINE#         31
  C:8326H         LINE#         32
  C:832FH         LINE#         33
  C:832FH         LINE#         35
  C:832FH         LINE#         36
  C:832FH         LINE#         37
  C:8331H         LINE#         38
  -------         ENDPROC       _DELAY_MS
  -------         PROC          _DELAY_US
  D:0006H         SYMBOL        us
  -------         DO            
BL51 BANKED LINKER/LOCATER V6.00                                                      08/07/2017  17:31:50  PAGE 77


  D:0006H         SYMBOL        j
  -------         ENDDO         
  C:76EAH         LINE#         39
  C:76EAH         LINE#         40
  C:76EAH         LINE#         42
  C:770BH         LINE#         43
  C:770BH         LINE#         44
  C:770FH         LINE#         45
  C:770FH         LINE#         46
  C:7710H         LINE#         47
  C:7717H         LINE#         48
  -------         ENDPROC       _DELAY_US
  -------         ENDMOD        DELAY

  -------         MODULE        STC15_EEPROM
  C:0000H         SYMBOL        _ICE_DUMMY_
  D:0080H         PUBLIC        P0
  D:0090H         PUBLIC        P1
  D:00A0H         PUBLIC        P2
  D:00B0H         PUBLIC        P3
  C:835FH         PUBLIC        DisableEEPROM
  D:00C0H         PUBLIC        P4
  D:00C8H         PUBLIC        P5
  D:00C6H         PUBLIC        ISP_TRIG
  B:00A8H.7       PUBLIC        EA
  D:00E8H         PUBLIC        P6
  D:00F8H         PUBLIC        P7
  D:00A8H         PUBLIC        IE
  C:7BC9H         PUBLIC        _EEPROM_SectorErase
  C:725BH         PUBLIC        _EEPROM_read_n
  D:00B8H         PUBLIC        IP
  D:00C5H         PUBLIC        ISP_CMD
  D:00D8H         PUBLIC        CCON
  C:729AH         PUBLIC        _EEPROM_write_n
  D:00C3H         PUBLIC        ISP_ADDRH
  D:0098H         PUBLIC        SCON
  D:0088H         PUBLIC        TCON
  D:00C4H         PUBLIC        ISP_ADDRL
  D:00F0H         PUBLIC        B
  D:00E0H         PUBLIC        ACC
  D:00C7H         PUBLIC        ISP_CONTR
  D:00C2H         PUBLIC        ISP_DATA
  D:00D0H         PUBLIC        PSW
  -------         PROC          DISABLEEEPROM
  C:835FH         LINE#         30
  C:835FH         LINE#         31
  C:835FH         LINE#         32
  C:8362H         LINE#         33
  C:8364H         LINE#         34
  C:8366H         LINE#         35
  C:8369H         LINE#         36
  C:836CH         LINE#         37
  -------         ENDPROC       DISABLEEEPROM
  -------         PROC          _EEPROM_READ_N
  D:0004H         SYMBOL        EE_address
  D:0001H         SYMBOL        DataAddress
  X:09F0H         SYMBOL        number
BL51 BANKED LINKER/LOCATER V6.00                                                      08/07/2017  17:31:50  PAGE 78


  C:725BH         LINE#         49
  C:725FH         LINE#         50
  C:725FH         LINE#         51
  C:7261H         LINE#         52
  C:7264H         LINE#         53
  C:7267H         LINE#         55
  C:7267H         LINE#         56
  C:726AH         LINE#         57
  C:726EH         LINE#         58
  C:7274H         LINE#         61
  C:7275H         LINE#         62
  C:727AH         LINE#         63
  C:727FH         LINE#         64
  C:7286H         LINE#         65
  C:7294H         LINE#         67
  C:7297H         LINE#         68
  C:7299H         LINE#         69
  -------         ENDPROC       _EEPROM_READ_N
  -------         PROC          _EEPROM_SECTORERASE
  D:0004H         SYMBOL        EE_address
  C:7BC9H         LINE#         80
  C:7BCDH         LINE#         81
  C:7BCDH         LINE#         82
  C:7BCFH         LINE#         85
  C:7BD2H         LINE#         86
  C:7BD6H         LINE#         87
  C:7BD9H         LINE#         88
  C:7BDCH         LINE#         89
  C:7BE2H         LINE#         90
  C:7BE3H         LINE#         91
  C:7BE6H         LINE#         92
  C:7BE8H         LINE#         93
  -------         ENDPROC       _EEPROM_SECTORERASE
  -------         PROC          _EEPROM_WRITE_N
  D:0004H         SYMBOL        EE_address
  D:0001H         SYMBOL        DataAddress
  X:09F7H         SYMBOL        number
  C:729AH         LINE#         104
  C:729EH         LINE#         105
  C:729EH         LINE#         106
  C:72A0H         LINE#         108
  C:72A3H         LINE#         109
  C:72A6H         LINE#         111
  C:72A6H         LINE#         112
  C:72A9H         LINE#         113
  C:72ADH         LINE#         114
  C:72B2H         LINE#         115
  C:72B8H         LINE#         116
  C:72B9H         LINE#         117
  C:72BEH         LINE#         118
  C:72C5H         LINE#         119
  C:72D3H         LINE#         121
  C:72D6H         LINE#         122
  C:72D8H         LINE#         123
  -------         ENDPROC       _EEPROM_WRITE_N
  -------         ENDMOD        STC15_EEPROM

BL51 BANKED LINKER/LOCATER V6.00                                                      08/07/2017  17:31:50  PAGE 79


  -------         MODULE        STC15_EXTI
  C:0000H         SYMBOL        _ICE_DUMMY_
  D:0080H         PUBLIC        P0
  D:0090H         PUBLIC        P1
  D:00A0H         PUBLIC        P2
  D:00B0H         PUBLIC        P3
  D:00C0H         PUBLIC        P4
  D:00C8H         PUBLIC        P5
  D:00E8H         PUBLIC        P6
  D:00F8H         PUBLIC        P7
  D:00A8H         PUBLIC        IE
  D:00B8H         PUBLIC        IP
  D:00D8H         PUBLIC        CCON
  C:84C9H         PUBLIC        Ext_INT1
  C:84CAH         PUBLIC        Ext_INT2
  C:84CBH         PUBLIC        Ext_INT3
  C:84CCH         PUBLIC        Ext_INT4
  D:0098H         PUBLIC        SCON
  D:0088H         PUBLIC        TCON
  D:00F0H         PUBLIC        B
  D:00E0H         PUBLIC        ACC
  B:00A8H.0       PUBLIC        EX0
  B:0088H.0       PUBLIC        IT0
  B:00A8H.2       PUBLIC        EX1
  B:0088H.2       PUBLIC        IT1
  B:00B8H.0       PUBLIC        PX0
  B:00B8H.2       PUBLIC        PX1
  C:5ABBH         PUBLIC        _Ext_Inilize
  D:008FH         PUBLIC        INT_CLKO
  D:00D0H         PUBLIC        PSW
  -------         PROC          EXT_INT1
  C:84C9H         LINE#         29
  C:84C9H         LINE#         32
  -------         ENDPROC       EXT_INT1
  -------         PROC          EXT_INT2
  C:84CAH         LINE#         35
  C:84CAH         LINE#         38
  -------         ENDPROC       EXT_INT2
  -------         PROC          EXT_INT3
  C:84CBH         LINE#         41
  C:84CBH         LINE#         44
  -------         ENDPROC       EXT_INT3
  -------         PROC          EXT_INT4
  C:84CCH         LINE#         47
  C:84CCH         LINE#         50
  -------         ENDPROC       EXT_INT4
  -------         PROC          _EXT_INILIZE
  D:0007H         SYMBOL        EXT
  D:0001H         SYMBOL        INTx
  C:5ABBH         LINE#         60
  C:5ABBH         LINE#         61
  C:5ABBH         LINE#         62
  C:5AC4H         LINE#         64
  C:5AC7H         LINE#         65
  C:5AC7H         LINE#         66
  C:5AD4H         LINE#         67
  C:5AD6H         LINE#         68
BL51 BANKED LINKER/LOCATER V6.00                                                      08/07/2017  17:31:50  PAGE 80


  C:5AE3H         LINE#         69
  C:5AE5H         LINE#         70
  C:5AEFH         LINE#         71
  C:5AF1H         LINE#         72
  C:5AF4H         LINE#         73
  C:5AF4H         LINE#         75
  C:5AF9H         LINE#         76
  C:5AF9H         LINE#         77
  C:5B06H         LINE#         78
  C:5B08H         LINE#         79
  C:5B15H         LINE#         80
  C:5B17H         LINE#         81
  C:5B21H         LINE#         82
  C:5B23H         LINE#         83
  C:5B26H         LINE#         84
  C:5B26H         LINE#         86
  C:5B2AH         LINE#         87
  C:5B2AH         LINE#         88
  C:5B38H         LINE#         89
  C:5B3BH         LINE#         90
  C:5B3EH         LINE#         91
  C:5B3EH         LINE#         93
  C:5B42H         LINE#         94
  C:5B42H         LINE#         95
  C:5B50H         LINE#         96
  C:5B53H         LINE#         97
  C:5B56H         LINE#         98
  C:5B56H         LINE#         100
  C:5B5AH         LINE#         101
  C:5B5AH         LINE#         102
  C:5B68H         LINE#         103
  C:5B6BH         LINE#         104
  C:5B6EH         LINE#         105
  C:5B6EH         LINE#         106
  C:5B70H         LINE#         107
  -------         ENDPROC       _EXT_INILIZE
  -------         ENDMOD        STC15_EXTI

  -------         MODULE        GPIO
  C:0000H         SYMBOL        _ICE_DUMMY_
  D:0093H         PUBLIC        P0M1
  D:0092H         PUBLIC        P1M0
  D:0096H         PUBLIC        P2M0
  D:0091H         PUBLIC        P1M1
  D:0080H         PUBLIC        P0
  D:00B2H         PUBLIC        P3M0
  D:0095H         PUBLIC        P2M1
  D:0090H         PUBLIC        P1
  D:00B4H         PUBLIC        P4M0
  D:00B1H         PUBLIC        P3M1
  D:00A0H         PUBLIC        P2
  D:00CAH         PUBLIC        P5M0
  D:00B3H         PUBLIC        P4M1
  D:00B0H         PUBLIC        P3
  D:00C9H         PUBLIC        P5M1
  D:00C0H         PUBLIC        P4
  D:00C8H         PUBLIC        P5
BL51 BANKED LINKER/LOCATER V6.00                                                      08/07/2017  17:31:50  PAGE 81


  D:00E8H         PUBLIC        P6
  D:00F8H         PUBLIC        P7
  D:00A8H         PUBLIC        IE
  D:00B8H         PUBLIC        IP
  D:00D8H         PUBLIC        CCON
  D:0098H         PUBLIC        SCON
  D:0088H         PUBLIC        TCON
  D:00F0H         PUBLIC        B
  D:00E0H         PUBLIC        ACC
  C:4474H         PUBLIC        _GPIO_Inilize
  D:00D0H         PUBLIC        PSW
  C:84C1H         PUBLIC        _setPinState
  D:0094H         PUBLIC        P0M0
  -------         PROC          _SETPINSTATE
  D:0007H         SYMBOL        Pin
  B:0022H.2       SYMBOL        State
  C:84C1H         LINE#         18
  C:84C1H         LINE#         19
  C:84C1H         LINE#         20
  C:84C3H         LINE#         23
  -------         ENDPROC       _SETPINSTATE
  -------         PROC          _GPIO_INILIZE
  D:0007H         SYMBOL        GPIO
  D:0001H         SYMBOL        GPIOx
  C:4474H         LINE#         31
  C:4474H         LINE#         32
  C:4474H         LINE#         33
  C:447AH         LINE#         34
  C:447AH         LINE#         35
  C:447DH         LINE#         36
  C:447DH         LINE#         37
  C:4486H         LINE#         38
  C:4486H         LINE#         39
  C:4489H         LINE#         40
  C:4489H         LINE#         41
  C:448CH         LINE#         42
  C:448CH         LINE#         43
  C:448FH         LINE#         44
  C:448FH         LINE#         45
  C:449AH         LINE#         46
  C:449AH         LINE#         47
  C:44A0H         LINE#         48
  C:44A0H         LINE#         49
  C:44ABH         LINE#         50
  C:44ABH         LINE#         51
  C:44B2H         LINE#         52
  C:44B2H         LINE#         53
  C:44BCH         LINE#         54
  C:44BCH         LINE#         55
  C:44C0H         LINE#         56
  C:44C0H         LINE#         57
  C:44CDH         LINE#         58
  C:44CDH         LINE#         59
  C:44CDH         LINE#         60
  C:44D2H         LINE#         61
  C:44D2H         LINE#         62
  C:44D8H         LINE#         63
BL51 BANKED LINKER/LOCATER V6.00                                                      08/07/2017  17:31:50  PAGE 82


  C:44D8H         LINE#         64
  C:44E3H         LINE#         65
  C:44E3H         LINE#         66
  C:44E7H         LINE#         67
  C:44E7H         LINE#         68
  C:44F2H         LINE#         69
  C:44F2H         LINE#         70
  C:44F8H         LINE#         71
  C:44F8H         LINE#         72
  C:4502H         LINE#         73
  C:4502H         LINE#         74
  C:4508H         LINE#         75
  C:4508H         LINE#         76
  C:4515H         LINE#         77
  C:4515H         LINE#         78
  C:4515H         LINE#         79
  C:451AH         LINE#         80
  C:451AH         LINE#         81
  C:4520H         LINE#         82
  C:4520H         LINE#         83
  C:452BH         LINE#         84
  C:452BH         LINE#         85
  C:452FH         LINE#         86
  C:452FH         LINE#         87
  C:453AH         LINE#         88
  C:453AH         LINE#         89
  C:4540H         LINE#         90
  C:4540H         LINE#         91
  C:454AH         LINE#         92
  C:454AH         LINE#         93
  C:4550H         LINE#         94
  C:4550H         LINE#         95
  C:455DH         LINE#         96
  C:455DH         LINE#         97
  C:455DH         LINE#         98
  C:4562H         LINE#         99
  C:4562H         LINE#         100
  C:4568H         LINE#         101
  C:4568H         LINE#         102
  C:4573H         LINE#         103
  C:4573H         LINE#         104
  C:4577H         LINE#         105
  C:4577H         LINE#         106
  C:4582H         LINE#         107
  C:4582H         LINE#         108
  C:4588H         LINE#         109
  C:4588H         LINE#         110
  C:4592H         LINE#         111
  C:4592H         LINE#         112
  C:4598H         LINE#         113
  C:4598H         LINE#         114
  C:45A5H         LINE#         115
  C:45A5H         LINE#         116
  C:45A5H         LINE#         117
  C:45AAH         LINE#         118
  C:45AAH         LINE#         119
  C:45B0H         LINE#         120
BL51 BANKED LINKER/LOCATER V6.00                                                      08/07/2017  17:31:50  PAGE 83


  C:45B0H         LINE#         121
  C:45BBH         LINE#         122
  C:45BBH         LINE#         123
  C:45BFH         LINE#         124
  C:45BFH         LINE#         125
  C:45CAH         LINE#         126
  C:45CAH         LINE#         127
  C:45D0H         LINE#         128
  C:45D0H         LINE#         129
  C:45DAH         LINE#         130
  C:45DAH         LINE#         131
  C:45E0H         LINE#         132
  C:45E0H         LINE#         133
  C:45EDH         LINE#         134
  C:45EDH         LINE#         135
  C:45EDH         LINE#         136
  C:45F2H         LINE#         137
  C:45F2H         LINE#         138
  C:45F8H         LINE#         139
  C:45F8H         LINE#         140
  C:4603H         LINE#         141
  C:4603H         LINE#         142
  C:4607H         LINE#         143
  C:4607H         LINE#         144
  C:4612H         LINE#         145
  C:4612H         LINE#         146
  C:4618H         LINE#         147
  C:4618H         LINE#         148
  C:4622H         LINE#         149
  C:4622H         LINE#         150
  C:4628H         LINE#         151
  C:4628H         LINE#         152
  C:4635H         LINE#         153
  C:4635H         LINE#         154
  C:4635H         LINE#         155
  C:4637H         LINE#         156
  -------         ENDPROC       _GPIO_INILIZE
  -------         ENDMOD        GPIO

  -------         MODULE        STC15_IIC
  C:0000H         SYMBOL        _ICE_DUMMY_
  D:0080H         PUBLIC        P0
  D:0090H         PUBLIC        P1
  D:00A0H         PUBLIC        P2
  D:00B0H         PUBLIC        P3
  D:00C0H         PUBLIC        P4
  D:00C8H         PUBLIC        P5
  D:00E8H         PUBLIC        P6
  D:00F8H         PUBLIC        P7
  D:00A8H         PUBLIC        IE
  D:00B8H         PUBLIC        IP
  D:00D8H         PUBLIC        CCON
  C:6EB4H         PUBLIC        _IIC_RdDatFromAdd
  D:0098H         PUBLIC        SCON
  C:83E8H         PUBLIC        IIC_Nack
  D:0088H         PUBLIC        TCON
  D:00F0H         PUBLIC        B
BL51 BANKED LINKER/LOCATER V6.00                                                      08/07/2017  17:31:50  PAGE 84


  C:8389H         PUBLIC        IIC_Ack
  C:83DEH         PUBLIC        IIC_Start
  D:00E0H         PUBLIC        ACC
  C:78FFH         PUBLIC        _InputOneByte
  C:7993H         PUBLIC        OutputOneByte
  C:8374H         PUBLIC        Delay5US
  B:00B0H.5       PUBLIC        SDA
  C:848DH         PUBLIC        IIC_Stop
  B:00B0H.4       PUBLIC        SCL
  C:8042H         PUBLIC        _IIC_WrDevAddAndDatAdd
  C:7524H         PUBLIC        _IIC_WrDatToAdd
  D:00D0H         PUBLIC        PSW
  C:7867H         PUBLIC        IIC_RdAck
  C:836FH         SYMBOL        L?0032
  -------         PROC          L?0031
  -------         ENDPROC       L?0031
  C:836FH         SYMBOL        L?0032
  -------         PROC          DELAY5US
  -------         DO            
  D:0007H         SYMBOL        i
  -------         ENDDO         
  C:8374H         LINE#         21
  C:8374H         LINE#         22
  C:8374H         LINE#         26
  C:8375H         LINE#         27
  C:8376H         LINE#         28
  C:8378H         LINE#         29
  C:837AH         LINE#         30
  -------         ENDPROC       DELAY5US
  -------         PROC          IIC_START
  C:83DEH         LINE#         37
  C:83DEH         LINE#         38
  C:83DEH         LINE#         39
  C:83E0H         LINE#         40
  C:83E0H         LINE#         41
  C:83E0H         LINE#         42
  C:83E3H         LINE#         43
  C:83E5H         LINE#         44
  -------         ENDPROC       IIC_START
  -------         PROC          IIC_STOP
  C:848DH         LINE#         52
  C:848DH         LINE#         53
  C:848DH         LINE#         54
  C:848DH         LINE#         55
  C:848DH         LINE#         56
  C:848DH         LINE#         57
  C:8490H         LINE#         58
  C:8492H         LINE#         59
  -------         ENDPROC       IIC_STOP
  -------         PROC          IIC_ACK
  C:8389H         LINE#         66
  C:8389H         LINE#         67
  C:8389H         LINE#         68
  C:838BH         LINE#         69
  C:838BH         LINE#         70
  C:838BH         LINE#         71
  C:838BH         LINE#         72
BL51 BANKED LINKER/LOCATER V6.00                                                      08/07/2017  17:31:50  PAGE 85


  C:838EH         LINE#         73
  C:8390H         LINE#         74
  C:8393H         LINE#         75
  C:8395H         LINE#         76
  -------         ENDPROC       IIC_ACK
  -------         PROC          L?0033
  -------         ENDPROC       L?0033
  -------         PROC          IIC_RDACK
  -------         DO            
  B:0021H.1       SYMBOL        AckFlag
  D:0006H         SYMBOL        uiVal
  -------         ENDDO         
  C:7867H         LINE#         83
  C:7867H         LINE#         84
  C:7867H         LINE#         86
  C:7869H         LINE#         87
  C:786BH         LINE#         88
  C:786EH         LINE#         89
  C:7870H         LINE#         90
  C:7872H         LINE#         91
  C:7875H         LINE#         92
  C:787EH         LINE#         93
  C:787EH         LINE#         94
  C:787FH         LINE#         95
  C:7883H         LINE#         96
  C:7885H         LINE#         97
  C:7887H         LINE#         98
  C:7889H         LINE#         99
  -------         ENDPROC       IIC_RDACK
  -------         PROC          IIC_NACK
  C:83E8H         LINE#         106
  C:83E8H         LINE#         107
  C:83E8H         LINE#         108
  C:83EAH         LINE#         109
  C:83ECH         LINE#         110
  C:83ECH         LINE#         111
  C:83ECH         LINE#         112
  C:83EFH         LINE#         113
  C:83F1H         LINE#         114
  -------         ENDPROC       IIC_NACK
  -------         PROC          OUTPUTONEBYTE
  -------         DO            
  X:0306H         SYMBOL        str
  D:0005H         SYMBOL        i
  D:0006H         SYMBOL        Data
  -------         ENDDO         
  C:7993H         LINE#         121
  C:7993H         LINE#         122
  C:7993H         LINE#         142
  C:7995H         LINE#         143
  C:7996H         LINE#         144
  C:7996H         LINE#         145
  C:7998H         LINE#         146
  C:799BH         LINE#         147
  C:799FH         LINE#         148
  C:79A2H         LINE#         149
  C:79A5H         LINE#         150
BL51 BANKED LINKER/LOCATER V6.00                                                      08/07/2017  17:31:50  PAGE 86


  C:79A5H         LINE#         151
  C:79A8H         LINE#         152
  C:79AAH         LINE#         154
  C:79AAH         LINE#         155
  C:79AAH         LINE#         156
  C:79AAH         LINE#         158
  C:79ACH         LINE#         159
  C:79AFH         LINE#         160
  C:79B4H         LINE#         162
  C:79B6H         LINE#         163
  -------         ENDPROC       OUTPUTONEBYTE
  -------         PROC          _INPUTONEBYTE
  D:0006H         SYMBOL        uByteVal
  -------         DO            
  D:0005H         SYMBOL        iCount
  -------         ENDDO         
  C:78FFH         LINE#         170
  C:7901H         LINE#         171
  C:7901H         LINE#         173
  C:7903H         LINE#         174
  C:7903H         LINE#         175
  C:7905H         LINE#         176
  C:7908H         LINE#         177
  C:7916H         LINE#         178
  C:7916H         LINE#         179
  C:7916H         LINE#         180
  C:7919H         LINE#         181
  C:791DH         LINE#         182
  C:7922H         LINE#         183
  C:7924H         LINE#         184
  -------         ENDPROC       _INPUTONEBYTE
  -------         PROC          _IIC_WRDEVADDANDDATADD
  D:0006H         SYMBOL        uDevAdd
  D:0004H         SYMBOL        uDatAdd
  C:8042H         LINE#         191
  C:8046H         LINE#         192
  C:8046H         LINE#         193
  C:8049H         LINE#         194
  C:804EH         LINE#         195
  C:8051H         LINE#         196
  C:8056H         LINE#         197
  C:8059H         LINE#         198
  C:805AH         LINE#         199
  -------         ENDPROC       _IIC_WRDEVADDANDDATADD
  -------         PROC          _IIC_WRDATTOADD
  D:0007H         SYMBOL        uDevID
  D:0005H         SYMBOL        uStaAddVal
  X:0A01H         SYMBOL        p
  X:0A04H         SYMBOL        ucLenVal
  -------         DO            
  D:0004H         SYMBOL        iCount
  -------         ENDDO         
  C:7524H         LINE#         207
  C:752FH         LINE#         208
  C:752FH         LINE#         210
  C:7532H         LINE#         212
  C:753EH         LINE#         213
BL51 BANKED LINKER/LOCATER V6.00                                                      08/07/2017  17:31:50  PAGE 87


  C:753EH         LINE#         214
  C:7551H         LINE#         215
  C:7554H         LINE#         216
  C:7557H         LINE#         217
  -------         ENDPROC       _IIC_WRDATTOADD
  -------         PROC          _IIC_RDDATFROMADD
  X:0A05H         SYMBOL        uDevID
  D:0005H         SYMBOL        uStaAddVal
  X:0A07H         SYMBOL        p
  X:0A0AH         SYMBOL        uiLenVal
  -------         DO            
  D:0004H         SYMBOL        iCount
  -------         ENDDO         
  C:6EB4H         LINE#         226
  C:6EC4H         LINE#         227
  C:6EC4H         LINE#         229
  C:6EC7H         LINE#         230
  C:6ECAH         LINE#         231
  C:6ECDH         LINE#         233
  C:6ED0H         LINE#         234
  C:6EDCH         LINE#         235
  C:6EDCH         LINE#         236
  C:6EF3H         LINE#         237
  C:6EFBH         LINE#         238
  C:6EFBH         LINE#         239
  C:6EFEH         LINE#         240
  C:6EFEH         LINE#         241
  C:6F01H         LINE#         242
  C:6F04H         LINE#         243
  -------         ENDPROC       _IIC_RDDATFROMADD
  -------         ENDMOD        STC15_IIC

  -------         MODULE        PCA
  C:0000H         SYMBOL        _ICE_DUMMY_
  B:00D8H.2       PUBLIC        CCF2
  D:0080H         PUBLIC        P0
  D:0090H         PUBLIC        P1
  D:00A0H         PUBLIC        P2
  D:00B0H         PUBLIC        P3
  D:00C0H         PUBLIC        P4
  D:00C8H         PUBLIC        P5
  D:00E8H         PUBLIC        P6
  D:00F8H         PUBLIC        P7
  D:00F9H         PUBLIC        CH
  X:090FH         PUBLIC        PCA0_mode
  X:0910H         PUBLIC        PCA1_mode
  D:00A8H         PUBLIC        IE
  X:0911H         PUBLIC        PCA2_mode
  D:00E9H         PUBLIC        CL
  D:00FAH         PUBLIC        CCAP0H
  D:00FBH         PUBLIC        CCAP1H
  D:00FCH         PUBLIC        CCAP2H
  B:00D8H.6       PUBLIC        CR
  D:00EAH         PUBLIC        CCAP0L
  D:00EBH         PUBLIC        CCAP1L
  D:00DAH         PUBLIC        CCAPM0
  D:00ECH         PUBLIC        CCAP2L
BL51 BANKED LINKER/LOCATER V6.00                                                      08/07/2017  17:31:50  PAGE 88


  D:00DBH         PUBLIC        CCAPM1
  D:00DCH         PUBLIC        CCAPM2
  D:00B8H         PUBLIC        IP
  D:00D9H         PUBLIC        CMOD
  D:00D8H         PUBLIC        CCON
  B:00B8H.7       PUBLIC        PPCA
  C:5CD4H         PUBLIC        _PWMn_Update
  B:0021H.2       PUBLIC        B_Capture0
  B:0021H.3       PUBLIC        B_Capture1
  B:0021H.4       PUBLIC        B_Capture2
  D:0098H         PUBLIC        SCON
  D:0088H         PUBLIC        TCON
  B:00A0H.5       PUBLIC        P25
  B:00A0H.6       PUBLIC        P26
  B:00A0H.7       PUBLIC        P27
  D:00F0H         PUBLIC        B
  D:00E0H         PUBLIC        ACC
  C:503DH         PUBLIC        _pwmOutPut
  C:47D8H         PUBLIC        _PCA_Init
  X:0912H         PUBLIC        PWM0_low
  X:0914H         PUBLIC        PWM1_low
  D:00F2H         PUBLIC        PCA_PWM0
  X:0916H         PUBLIC        PWM2_low
  D:00F3H         PUBLIC        PCA_PWM1
  D:00F4H         PUBLIC        PCA_PWM2
  X:0918H         PUBLIC        PCA_Timer0
  X:091AH         PUBLIC        PCA_Timer1
  X:091CH         PUBLIC        PCA_Timer2
  D:00A2H         PUBLIC        AUXR1
  C:5ED1H         PUBLIC        PCA_Handler
  D:00D0H         PUBLIC        PSW
  X:091EH         PUBLIC        CCAP0_tmp
  X:0920H         PUBLIC        CCAP1_tmp
  B:00D8H.0       PUBLIC        CCF0
  X:0922H         PUBLIC        CCAP2_tmp
  B:00D8H.1       PUBLIC        CCF1
  -------         PROC          _PWMN_UPDATE
  D:0007H         SYMBOL        PCA_id
  D:0004H         SYMBOL        high
  C:5CD4H         LINE#         34
  C:5CD4H         LINE#         35
  C:5CD4H         LINE#         36
  C:5CD7H         LINE#         37
  C:5CD7H         LINE#         38
  C:5CE0H         LINE#         39
  C:5CE0H         LINE#         40
  C:5CE4H         LINE#         41
  C:5CE4H         LINE#         42
  C:5CEDH         LINE#         43
  C:5CEDH         LINE#         44
  C:5CF1H         LINE#         45
  C:5CF1H         LINE#         46
  C:5CF3H         LINE#         47
  C:5CFBH         LINE#         48
  C:5D09H         LINE#         49
  C:5D09H         LINE#         50
  C:5D0BH         LINE#         51
BL51 BANKED LINKER/LOCATER V6.00                                                      08/07/2017  17:31:50  PAGE 89


  C:5D10H         LINE#         52
  C:5D10H         LINE#         53
  C:5D19H         LINE#         54
  C:5D19H         LINE#         55
  C:5D1DH         LINE#         56
  C:5D1DH         LINE#         57
  C:5D26H         LINE#         58
  C:5D26H         LINE#         59
  C:5D2AH         LINE#         60
  C:5D2AH         LINE#         61
  C:5D2CH         LINE#         62
  C:5D34H         LINE#         63
  C:5D42H         LINE#         64
  C:5D42H         LINE#         65
  C:5D44H         LINE#         66
  C:5D49H         LINE#         67
  C:5D49H         LINE#         68
  C:5D52H         LINE#         69
  C:5D52H         LINE#         70
  C:5D56H         LINE#         71
  C:5D56H         LINE#         72
  C:5D5FH         LINE#         73
  C:5D5FH         LINE#         74
  C:5D63H         LINE#         75
  C:5D63H         LINE#         76
  C:5D65H         LINE#         77
  C:5D6DH         LINE#         78
  C:5D7FH         LINE#         79
  C:5D81H         LINE#         80
  C:5D81H         LINE#         81
  -------         ENDPROC       _PWMN_UPDATE
  -------         PROC          _PCA_INIT
  D:0005H         SYMBOL        PCA_id
  X:0A57H         SYMBOL        PCAx
  C:47D8H         LINE#         106
  C:47E5H         LINE#         107
  C:47E5H         LINE#         108
  C:47EEH         LINE#         109
  C:47EEH         LINE#         111
  C:47EEH         LINE#         112
  C:47F3H         LINE#         113
  C:47F3H         LINE#         114
  C:47F5H         LINE#         115
  C:47F7H         LINE#         116
  C:47F9H         LINE#         117
  C:480FH         LINE#         118
  C:481DH         LINE#         119
  C:482DH         LINE#         120
  C:4836H         LINE#         121
  C:4836H         LINE#         122
  C:4838H         LINE#         123
  C:483AH         LINE#         125
  C:483AH         LINE#         126
  C:483CH         LINE#         127
  C:483CH         LINE#         128
  C:483FH         LINE#         130
  C:483FH         LINE#         131
BL51 BANKED LINKER/LOCATER V6.00                                                      08/07/2017  17:31:50  PAGE 90


  C:4857H         LINE#         132
  C:486DH         LINE#         133
  C:486DH         LINE#         134
  C:487CH         LINE#         135
  C:487CH         LINE#         136
  C:487FH         LINE#         137
  C:487FH         LINE#         138
  C:489BH         LINE#         139
  C:48A9H         LINE#         140
  C:48BAH         LINE#         141
  C:48BCH         LINE#         142
  C:48C1H         LINE#         143
  C:48C9H         LINE#         144
  C:48CBH         LINE#         145
  C:48CEH         LINE#         146
  C:48CEH         LINE#         147
  C:48D3H         LINE#         148
  C:48D3H         LINE#         149
  C:48EFH         LINE#         150
  C:48FDH         LINE#         151
  C:490EH         LINE#         152
  C:4910H         LINE#         153
  C:4915H         LINE#         154
  C:491DH         LINE#         155
  C:491FH         LINE#         156
  C:4922H         LINE#         157
  C:4922H         LINE#         158
  C:4927H         LINE#         159
  C:4927H         LINE#         160
  C:4943H         LINE#         161
  C:4951H         LINE#         162
  C:4962H         LINE#         163
  C:4964H         LINE#         164
  C:4969H         LINE#         165
  C:4971H         LINE#         166
  C:4973H         LINE#         167
  C:4976H         LINE#         168
  C:4976H         LINE#         169
  -------         ENDPROC       _PCA_INIT
  -------         PROC          _PWMOUTPUT
  X:0A5AH         SYMBOL        PCA_id
  X:0A5BH         SYMBOL        T
  D:0002H         SYMBOL        duty
  C:503DH         LINE#         170
  C:504AH         LINE#         171
  C:504AH         LINE#         172
  C:504CH         LINE#         173
  C:504CH         LINE#         174
  C:5055H         LINE#         175
  C:5055H         LINE#         176
  C:5059H         LINE#         177
  C:5059H         LINE#         178
  C:5062H         LINE#         179
  C:5062H         LINE#         180
  C:5066H         LINE#         181
  C:5066H         LINE#         182
  C:5068H         LINE#         183
BL51 BANKED LINKER/LOCATER V6.00                                                      08/07/2017  17:31:50  PAGE 91


  C:5086H         LINE#         184
  C:50A7H         LINE#         185
  C:50A7H         LINE#         186
  C:50AAH         LINE#         187
  C:50B2H         LINE#         188
  C:50B2H         LINE#         189
  C:50BBH         LINE#         190
  C:50BBH         LINE#         191
  C:50BFH         LINE#         192
  C:50BFH         LINE#         193
  C:50C8H         LINE#         194
  C:50C8H         LINE#         195
  C:50CCH         LINE#         196
  C:50CCH         LINE#         197
  C:50CEH         LINE#         198
  C:50ECH         LINE#         199
  C:510DH         LINE#         200
  C:510DH         LINE#         201
  C:510FH         LINE#         202
  C:5117H         LINE#         203
  C:5117H         LINE#         204
  C:5120H         LINE#         205
  C:5120H         LINE#         206
  C:5124H         LINE#         207
  C:5124H         LINE#         208
  C:512DH         LINE#         209
  C:512DH         LINE#         210
  C:5131H         LINE#         211
  C:5131H         LINE#         212
  C:5133H         LINE#         213
  C:5151H         LINE#         214
  C:5177H         LINE#         215
  C:5179H         LINE#         216
  C:5179H         LINE#         217
  -------         ENDPROC       _PWMOUTPUT
  -------         PROC          PCA_HANDLER
  C:5ED1H         LINE#         225
  C:5EE0H         LINE#         227
  C:5EE3H         LINE#         228
  C:5EE3H         LINE#         229
  C:5EE5H         LINE#         230
  C:5EE8H         LINE#         231
  C:5EE8H         LINE#         232
  C:5EEBH         LINE#         233
  C:5EEDH         LINE#         235
  C:5EEDH         LINE#         236
  C:5F01H         LINE#         237
  C:5F01H         LINE#         238
  C:5F0AH         LINE#         239
  C:5F0DH         LINE#         240
  C:5F0DH         LINE#         241
  C:5F10H         LINE#         242
  C:5F10H         LINE#         243
  C:5F12H         LINE#         244
  C:5F15H         LINE#         245
  C:5F15H         LINE#         246
  C:5F18H         LINE#         247
BL51 BANKED LINKER/LOCATER V6.00                                                      08/07/2017  17:31:50  PAGE 92


  C:5F1AH         LINE#         249
  C:5F1AH         LINE#         250
  C:5F2EH         LINE#         251
  C:5F2EH         LINE#         252
  C:5F37H         LINE#         253
  C:5F3AH         LINE#         254
  C:5F3AH         LINE#         255
  C:5F3DH         LINE#         256
  C:5F3DH         LINE#         257
  C:5F3FH         LINE#         258
  C:5F42H         LINE#         259
  C:5F42H         LINE#         260
  C:5F45H         LINE#         261
  C:5F47H         LINE#         263
  C:5F47H         LINE#         264
  C:5F5BH         LINE#         265
  C:5F5BH         LINE#         266
  C:5F64H         LINE#         267
  C:5F67H         LINE#         268
  C:5F67H         LINE#         274
  -------         ENDPROC       PCA_HANDLER
  -------         ENDMOD        PCA

  -------         MODULE        STC15_PWM
  C:0000H         SYMBOL        _ICE_DUMMY_
  C:7F8EH         PUBLIC        _get_PWM_period
  D:0080H         PUBLIC        P0
  C:6013H         SYMBOL        _PWM_SET_T12_PERIOD
  D:0090H         PUBLIC        P1
  D:00A0H         PUBLIC        P2
  D:00B0H         PUBLIC        P3
  D:00C0H         PUBLIC        P4
  D:00C8H         PUBLIC        P5
  D:00E8H         PUBLIC        P6
  D:00F8H         PUBLIC        P7
  C:82DFH         PUBLIC        _setPWM_DIV
  C:6C45H         PUBLIC        _set_PWM_period
  D:00F5H         PUBLIC        PWMCR
  D:00BAH         PUBLIC        P_SW2
  D:00A8H         PUBLIC        IE
  D:00F7H         PUBLIC        PWMFDCR
  D:00B8H         PUBLIC        IP
  C:794AH         PUBLIC        _close_PWM_N
  D:00D8H         PUBLIC        CCON
  C:83FCH         PUBLIC        close_PWM_ALL
  C:2AADH         PUBLIC        _PWM_Inilize
  X:07DBH         SYMBOL        PWM_N_INFO
  D:0098H         PUBLIC        SCON
  D:0088H         PUBLIC        TCON
  C:77C3H         PUBLIC        _open_PWM_N
  D:00F0H         PUBLIC        B
  C:83F2H         PUBLIC        open_PWM_ALL
  D:00F1H         PUBLIC        PWMCFG
  D:00E0H         PUBLIC        ACC
  C:8245H         PUBLIC        _get_PWM_N_state
  C:55EBH         PUBLIC        _set_PWM_duty
  C:7C65H         SYMBOL        _PWM_SET_PERIOD
BL51 BANKED LINKER/LOCATER V6.00                                                      08/07/2017  17:31:50  PAGE 93


  C:7FA8H         PUBLIC        _get_PWM_N_duty
  D:00D0H         PUBLIC        PSW
  C:82F0H         PUBLIC        _getPWM_DIV
  -------         PROC          _SET_PWM_PERIOD
  D:0003H         SYMBOL        PWM_N
  X:0A69H         SYMBOL        Hz
  C:6C45H         LINE#         51
  C:6C4FH         LINE#         52
  C:6C4FH         LINE#         53
  C:6C6BH         LINE#         54
  C:6C6EH         LINE#         55
  C:6C71H         LINE#         56
  C:6CA2H         LINE#         57
  C:6CA5H         LINE#         60
  -------         ENDPROC       _SET_PWM_PERIOD
  -------         PROC          _GET_PWM_PERIOD
  D:0007H         SYMBOL        PWM_N
  C:7F8EH         LINE#         70
  C:7F8EH         LINE#         71
  C:7F8EH         LINE#         72
  C:7FA7H         LINE#         73
  -------         ENDPROC       _GET_PWM_PERIOD
  -------         PROC          _SET_PWM_DUTY
  X:0A3DH         SYMBOL        PWM_N
  X:0A3EH         SYMBOL        duty
  C:55EBH         LINE#         87
  C:55F0H         LINE#         88
  C:55F0H         LINE#         89
  C:560BH         LINE#         90
  C:560BH         LINE#         91
  C:5615H         LINE#         92
  C:5615H         LINE#         93
  C:5630H         LINE#         94
  C:5630H         LINE#         95
  C:563AH         LINE#         96
  C:563AH         LINE#         97
  C:565DH         LINE#         98
  C:5660H         LINE#         99
  C:56CBH         LINE#         100
  C:56CEH         LINE#         101
  -------         ENDPROC       _SET_PWM_DUTY
  -------         PROC          _GET_PWM_N_DUTY
  D:0007H         SYMBOL        PWM_N
  C:7FA8H         LINE#         110
  C:7FA8H         LINE#         111
  C:7FA8H         LINE#         112
  C:7FC1H         LINE#         113
  -------         ENDPROC       _GET_PWM_N_DUTY
  -------         PROC          _SETPWM_DIV
  D:0007H         SYMBOL        PWM_N
  D:0005H         SYMBOL        DIV
  C:82DFH         LINE#         124
  C:82DFH         LINE#         125
  C:82DFH         LINE#         126
  C:82EFH         LINE#         127
  -------         ENDPROC       _SETPWM_DIV
  -------         PROC          _GETPWM_DIV
BL51 BANKED LINKER/LOCATER V6.00                                                      08/07/2017  17:31:50  PAGE 94


  D:0007H         SYMBOL        PWM_N
  C:82F0H         LINE#         136
  C:82F0H         LINE#         137
  C:82F0H         LINE#         138
  C:8300H         LINE#         139
  -------         ENDPROC       _GETPWM_DIV
  -------         PROC          OPEN_PWM_ALL
  C:83F2H         LINE#         148
  C:83F2H         LINE#         149
  C:83F2H         LINE#         150
  C:83F5H         LINE#         151
  C:83F8H         LINE#         152
  C:83FBH         LINE#         153
  -------         ENDPROC       OPEN_PWM_ALL
  -------         PROC          CLOSE_PWM_ALL
  C:83FCH         LINE#         162
  C:83FCH         LINE#         163
  C:83FCH         LINE#         164
  C:83FFH         LINE#         165
  C:8402H         LINE#         166
  C:8405H         LINE#         168
  -------         ENDPROC       CLOSE_PWM_ALL
  -------         PROC          _OPEN_PWM_N
  D:0007H         SYMBOL        PWM_N
  C:77C3H         LINE#         177
  C:77C3H         LINE#         178
  C:77C3H         LINE#         179
  C:77C6H         LINE#         180
  C:77D3H         LINE#         181
  C:77E4H         LINE#         182
  C:77E7H         LINE#         183
  C:77EAH         LINE#         186
  -------         ENDPROC       _OPEN_PWM_N
  -------         PROC          _CLOSE_PWM_N
  D:0007H         SYMBOL        PWM_N
  C:794AH         LINE#         195
  C:794AH         LINE#         196
  C:794AH         LINE#         197
  C:794DH         LINE#         198
  C:795BH         LINE#         199
  C:796BH         LINE#         200
  C:796EH         LINE#         202
  -------         ENDPROC       _CLOSE_PWM_N
  -------         PROC          _GET_PWM_N_STATE
  D:0007H         SYMBOL        PWM_N
  C:8245H         LINE#         211
  C:8245H         LINE#         212
  C:8245H         LINE#         214
  C:8256H         LINE#         215
  -------         ENDPROC       _GET_PWM_N_STATE
  -------         PROC          _PWM_INILIZE
  X:0A6BH         SYMBOL        PWM_N
  D:0001H         SYMBOL        PWMx
  -------         DO            
  X:0A6CH         SYMBOL        i
  -------         ENDDO         
  C:2AADH         LINE#         223
BL51 BANKED LINKER/LOCATER V6.00                                                      08/07/2017  17:31:50  PAGE 95


  C:2AB2H         LINE#         224
  C:2AB2H         LINE#         225
  C:2AB5H         LINE#         226
  C:2ABFH         LINE#         227
  C:2ABFH         LINE#         228
  C:2AD4H         LINE#         229
  C:2AE8H         LINE#         230
  C:2AFDH         LINE#         231
  C:2B11H         LINE#         232
  C:2B19H         LINE#         234
  C:2B1CH         LINE#         235
  C:2B22H         LINE#         236
  C:2B22H         LINE#         237
  C:2B25H         LINE#         238
  C:2B27H         LINE#         240
  C:2B27H         LINE#         241
  C:2B2AH         LINE#         242
  C:2B2AH         LINE#         243
  C:2B33H         LINE#         244
  C:2B33H         LINE#         245
  C:2B45H         LINE#         246
  C:2B47H         LINE#         248
  C:2B47H         LINE#         249
  C:2B5AH         LINE#         250
  C:2B5AH         LINE#         251
  C:2B63H         LINE#         252
  C:2B63H         LINE#         253
  C:2B66H         LINE#         254
  C:2B68H         LINE#         256
  C:2B68H         LINE#         257
  C:2B6BH         LINE#         258
  C:2B6BH         LINE#         259
  C:2B74H         LINE#         260
  C:2B74H         LINE#         261
  C:2B86H         LINE#         262
  C:2B88H         LINE#         264
  C:2B88H         LINE#         265
  C:2B9BH         LINE#         266
  C:2B9BH         LINE#         267
  C:2BA4H         LINE#         268
  C:2BA4H         LINE#         269
  C:2BA7H         LINE#         270
  C:2BA9H         LINE#         272
  C:2BA9H         LINE#         273
  C:2BACH         LINE#         274
  C:2BACH         LINE#         275
  C:2BB5H         LINE#         276
  C:2BB5H         LINE#         277
  C:2BB8H         LINE#         278
  C:2BBAH         LINE#         280
  C:2BBAH         LINE#         281
  C:2BBDH         LINE#         282
  C:2BBDH         LINE#         283
  C:2BC6H         LINE#         284
  C:2BC6H         LINE#         285
  C:2BC9H         LINE#         286
  C:2BCBH         LINE#         288
BL51 BANKED LINKER/LOCATER V6.00                                                      08/07/2017  17:31:50  PAGE 96


  C:2BCBH         LINE#         289
  C:2BCEH         LINE#         290
  C:2BCEH         LINE#         291
  C:2BD7H         LINE#         292
  C:2BD7H         LINE#         293
  C:2BDAH         LINE#         294
  C:2BDCH         LINE#         296
  C:2BDCH         LINE#         297
  C:2BDFH         LINE#         298
  C:2BDFH         LINE#         299
  C:2BE8H         LINE#         300
  C:2BE8H         LINE#         301
  C:2BEBH         LINE#         302
  C:2BEDH         LINE#         304
  C:2BEDH         LINE#         305
  C:2BF0H         LINE#         306
  C:2BF0H         LINE#         308
  C:2BFBH         LINE#         309
  C:2BFBH         LINE#         310
  C:2BFFH         LINE#         311
  C:2C01H         LINE#         313
  C:2C01H         LINE#         314
  C:2C05H         LINE#         315
  C:2C05H         LINE#         317
  C:2C1CH         LINE#         318
  C:2C42H         LINE#         319
  C:2C42H         LINE#         320
  C:2C42H         LINE#         321
  C:2C42H         LINE#         322
  C:2C4DH         LINE#         323
  C:2C4DH         LINE#         324
  C:2C51H         LINE#         325
  C:2C53H         LINE#         327
  C:2C53H         LINE#         328
  C:2C57H         LINE#         329
  C:2C57H         LINE#         330
  C:2C63H         LINE#         331
  C:2C63H         LINE#         332
  C:2C67H         LINE#         333
  C:2C69H         LINE#         335
  C:2C69H         LINE#         336
  C:2C6DH         LINE#         337
  C:2C6DH         LINE#         338
  C:2C79H         LINE#         339
  C:2C79H         LINE#         340
  C:2C7DH         LINE#         341
  C:2C7FH         LINE#         343
  C:2C7FH         LINE#         344
  C:2C83H         LINE#         345
  C:2C83H         LINE#         346
  C:2C8FH         LINE#         347
  C:2C8FH         LINE#         348
  C:2C8FH         LINE#         349
  C:2C92H         LINE#         351
  C:2C92H         LINE#         352
  C:2C92H         LINE#         353
  C:2C92H         LINE#         354
BL51 BANKED LINKER/LOCATER V6.00                                                      08/07/2017  17:31:50  PAGE 97


  C:2C92H         LINE#         355
  C:2C95H         LINE#         356
  C:2C95H         LINE#         357
  C:2C95H         LINE#         358
  C:2CA0H         LINE#         359
  C:2CA0H         LINE#         360
  C:2CA4H         LINE#         361
  C:2CA6H         LINE#         363
  C:2CA6H         LINE#         364
  C:2CAAH         LINE#         365
  C:2CAAH         LINE#         366
  C:2CB6H         LINE#         367
  C:2CB6H         LINE#         368
  C:2CBAH         LINE#         369
  C:2CBCH         LINE#         371
  C:2CBCH         LINE#         372
  C:2CC0H         LINE#         373
  C:2CC0H         LINE#         374
  C:2CCCH         LINE#         375
  C:2CCCH         LINE#         376
  C:2CD0H         LINE#         377
  C:2CD2H         LINE#         379
  C:2CD2H         LINE#         380
  C:2CD6H         LINE#         381
  C:2CD6H         LINE#         382
  C:2CE2H         LINE#         383
  C:2CE2H         LINE#         384
  C:2CE2H         LINE#         385
  C:2CE5H         LINE#         387
  C:2CE5H         LINE#         388
  C:2CE5H         LINE#         389
  C:2CE5H         LINE#         390
  C:2CE5H         LINE#         391
  C:2CE8H         LINE#         392
  C:2CE8H         LINE#         393
  C:2CE8H         LINE#         394
  C:2CF3H         LINE#         395
  C:2CF3H         LINE#         396
  C:2CF7H         LINE#         397
  C:2CF9H         LINE#         399
  C:2CF9H         LINE#         400
  C:2CFDH         LINE#         401
  C:2CFDH         LINE#         402
  C:2D09H         LINE#         403
  C:2D09H         LINE#         404
  C:2D0DH         LINE#         405
  C:2D0FH         LINE#         407
  C:2D0FH         LINE#         408
  C:2D13H         LINE#         409
  C:2D13H         LINE#         410
  C:2D1FH         LINE#         411
  C:2D1FH         LINE#         412
  C:2D23H         LINE#         413
  C:2D25H         LINE#         415
  C:2D25H         LINE#         416
  C:2D29H         LINE#         417
  C:2D29H         LINE#         418
BL51 BANKED LINKER/LOCATER V6.00                                                      08/07/2017  17:31:50  PAGE 98


  C:2D35H         LINE#         419
  C:2D35H         LINE#         420
  C:2D35H         LINE#         421
  C:2D38H         LINE#         423
  C:2D38H         LINE#         424
  C:2D38H         LINE#         425
  C:2D38H         LINE#         426
  C:2D38H         LINE#         427
  C:2D3BH         LINE#         428
  C:2D3BH         LINE#         429
  C:2D3BH         LINE#         430
  C:2D46H         LINE#         431
  C:2D46H         LINE#         432
  C:2D4AH         LINE#         433
  C:2D4CH         LINE#         435
  C:2D4CH         LINE#         436
  C:2D50H         LINE#         437
  C:2D50H         LINE#         438
  C:2D5CH         LINE#         439
  C:2D5CH         LINE#         440
  C:2D60H         LINE#         441
  C:2D62H         LINE#         443
  C:2D62H         LINE#         444
  C:2D66H         LINE#         445
  C:2D66H         LINE#         446
  C:2D72H         LINE#         447
  C:2D72H         LINE#         448
  C:2D76H         LINE#         449
  C:2D78H         LINE#         451
  C:2D78H         LINE#         452
  C:2D7CH         LINE#         453
  C:2D7CH         LINE#         454
  C:2D88H         LINE#         455
  C:2D88H         LINE#         456
  C:2D88H         LINE#         457
  C:2D8BH         LINE#         459
  C:2D8BH         LINE#         460
  C:2D8BH         LINE#         461
  C:2D8BH         LINE#         462
  C:2D8BH         LINE#         463
  C:2D8EH         LINE#         464
  C:2D8EH         LINE#         465
  C:2D8EH         LINE#         466
  C:2D99H         LINE#         467
  C:2D99H         LINE#         468
  C:2D9DH         LINE#         469
  C:2D9FH         LINE#         471
  C:2D9FH         LINE#         472
  C:2DA3H         LINE#         473
  C:2DA3H         LINE#         474
  C:2DAFH         LINE#         475
  C:2DAFH         LINE#         476
  C:2DB3H         LINE#         477
  C:2DB5H         LINE#         479
  C:2DB5H         LINE#         480
  C:2DB9H         LINE#         481
  C:2DB9H         LINE#         482
BL51 BANKED LINKER/LOCATER V6.00                                                      08/07/2017  17:31:50  PAGE 99


  C:2DC5H         LINE#         483
  C:2DC5H         LINE#         484
  C:2DC9H         LINE#         485
  C:2DCBH         LINE#         487
  C:2DCBH         LINE#         488
  C:2DCFH         LINE#         489
  C:2DCFH         LINE#         490
  C:2DDBH         LINE#         491
  C:2DDBH         LINE#         492
  C:2DDBH         LINE#         493
  C:2DDDH         LINE#         495
  C:2DDDH         LINE#         496
  C:2DDDH         LINE#         497
  C:2DDDH         LINE#         498
  C:2DDDH         LINE#         499
  C:2DDFH         LINE#         500
  C:2DDFH         LINE#         501
  C:2DDFH         LINE#         502
  C:2DEAH         LINE#         503
  C:2DEAH         LINE#         504
  C:2DEEH         LINE#         505
  C:2DF0H         LINE#         507
  C:2DF0H         LINE#         508
  C:2DF4H         LINE#         509
  C:2DF4H         LINE#         510
  C:2E00H         LINE#         511
  C:2E00H         LINE#         512
  C:2E04H         LINE#         513
  C:2E06H         LINE#         515
  C:2E06H         LINE#         516
  C:2E0AH         LINE#         517
  C:2E0AH         LINE#         518
  C:2E16H         LINE#         519
  C:2E16H         LINE#         520
  C:2E1AH         LINE#         521
  C:2E1CH         LINE#         523
  C:2E1CH         LINE#         524
  C:2E20H         LINE#         525
  C:2E20H         LINE#         526
  C:2E2CH         LINE#         527
  C:2E2CH         LINE#         528
  C:2E30H         LINE#         529
  C:2E32H         LINE#         531
  C:2E32H         LINE#         532
  C:2E36H         LINE#         533
  C:2E36H         LINE#         534
  C:2E36H         LINE#         535
  C:2E36H         LINE#         536
  C:2E36H         LINE#         538
  C:2E36H         LINE#         539
  C:2E36H         LINE#         540
  C:2E3FH         LINE#         541
  C:2E3FH         LINE#         542
  C:2E42H         LINE#         543
  C:2E43H         LINE#         545
  C:2E43H         LINE#         546
  C:2E46H         LINE#         547
BL51 BANKED LINKER/LOCATER V6.00                                                      08/07/2017  17:31:50  PAGE 100


  C:2E46H         LINE#         548
  -------         ENDPROC       _PWM_INILIZE
  -------         PROC          _PWM_SET_PERIOD
  D:0006H         SYMBOL        period
  C:7C65H         LINE#         559
  C:7C65H         LINE#         560
  C:7C65H         LINE#         561
  C:7C70H         LINE#         562
  C:7C70H         LINE#         563
  C:7C72H         LINE#         564
  C:7C77H         LINE#         565
  C:7C7AH         LINE#         566
  C:7C7AH         LINE#         568
  C:7C7AH         LINE#         569
  C:7C7DH         LINE#         570
  C:7C83H         LINE#         571
  C:7C83H         LINE#         572
  -------         ENDPROC       _PWM_SET_PERIOD
  -------         PROC          _PWM_SET_T12_PERIOD
  D:0007H         SYMBOL        PWM_N
  D:0004H         SYMBOL        period1
  D:0002H         SYMBOL        period2
  C:6013H         LINE#         585
  C:6013H         LINE#         586
  C:6013H         LINE#         587
  C:602AH         LINE#         588
  C:602AH         LINE#         589
  C:602AH         LINE#         590
  C:602FH         LINE#         591
  C:6034H         LINE#         592
  C:6039H         LINE#         593
  C:603DH         LINE#         594
  C:603FH         LINE#         595
  C:603FH         LINE#         596
  C:603FH         LINE#         597
  C:6044H         LINE#         598
  C:6049H         LINE#         599
  C:604EH         LINE#         600
  C:6052H         LINE#         601
  C:6054H         LINE#         602
  C:6054H         LINE#         603
  C:6054H         LINE#         604
  C:6059H         LINE#         605
  C:605EH         LINE#         606
  C:6063H         LINE#         607
  C:6067H         LINE#         608
  C:6069H         LINE#         609
  C:6069H         LINE#         610
  C:6069H         LINE#         611
  C:606EH         LINE#         612
  C:6073H         LINE#         613
  C:6078H         LINE#         614
  C:607CH         LINE#         615
  C:607EH         LINE#         616
  C:607EH         LINE#         617
  C:607EH         LINE#         618
  C:6083H         LINE#         619
BL51 BANKED LINKER/LOCATER V6.00                                                      08/07/2017  17:31:50  PAGE 101


  C:6088H         LINE#         620
  C:608DH         LINE#         621
  C:6091H         LINE#         622
  C:6093H         LINE#         623
  C:6093H         LINE#         624
  C:6093H         LINE#         625
  C:6098H         LINE#         626
  C:609DH         LINE#         627
  C:60A2H         LINE#         628
  C:60A7H         LINE#         629
  C:60AAH         LINE#         630
  C:60AAH         LINE#         631
  C:60AAH         LINE#         632
  C:60ACH         LINE#         633
  C:60ACH         LINE#         634
  C:60ACH         LINE#         635
  -------         ENDPROC       _PWM_SET_T12_PERIOD
  -------         ENDMOD        STC15_PWM

  -------         MODULE        STC15_SPI
  C:0000H         SYMBOL        _ICE_DUMMY_
  D:0080H         PUBLIC        P0
  D:0090H         PUBLIC        P1
  C:6DB8H         PUBLIC        SPI_Transivion
  D:00A0H         PUBLIC        P2
  C:83D3H         PUBLIC        _SPI_SetMode
  D:00B0H         PUBLIC        P3
  D:00C0H         PUBLIC        P4
  D:00C8H         PUBLIC        P5
  D:00E8H         PUBLIC        P6
  D:00F8H         PUBLIC        P7
  D:00CEH         PUBLIC        SPCTL
  D:00A8H         PUBLIC        IE
  X:0A4AH         SYMBOL        SPI_RxRead
  X:0A4BH         SYMBOL        SPI_TxRead
  D:00B8H         PUBLIC        IP
  C:812FH         PUBLIC        _SPI_WriteByteToTxBuf
  D:00D8H         PUBLIC        CCON
  X:0A4CH         SYMBOL        SPI_RxWrite
  X:0A4DH         SYMBOL        SPI_TxWrite
  C:788AH         PUBLIC        SPI_TrigTx
  D:0098H         PUBLIC        SCON
  D:0088H         PUBLIC        TCON
  D:00AFH         PUBLIC        IE2
  D:00F0H         PUBLIC        B
  D:00E0H         PUBLIC        ACC
  C:7E55H         PUBLIC        _SPI_SPI_ReadTheNByteToRxBuf
  C:79B7H         PUBLIC        SPI_SPI_ReadByteToRxBuf
  D:00CDH         PUBLIC        SPSTAT
  C:6266H         PUBLIC        _SPI_Init
  C:7C84H         PUBLIC        _SPI_WriteNByteToTxBuf
  D:00A2H         PUBLIC        AUXR1
  I:0023H         SYMBOL        SPI_RxBuffer
  I:0043H         SYMBOL        SPI_TxBuffer
  D:00D0H         PUBLIC        PSW
  D:00CFH         PUBLIC        SPDAT
  -------         PROC          _SPI_INIT
BL51 BANKED LINKER/LOCATER V6.00                                                      08/07/2017  17:31:50  PAGE 102


  D:0001H         SYMBOL        SPIx
  C:6266H         LINE#         52
  C:6266H         LINE#         53
  C:6266H         LINE#         54
  C:626FH         LINE#         55
  C:626FH         LINE#         56
  C:6272H         LINE#         57
  C:6274H         LINE#         59
  C:6274H         LINE#         60
  C:6277H         LINE#         61
  C:6277H         LINE#         62
  C:627DH         LINE#         63
  C:627DH         LINE#         64
  C:6280H         LINE#         65
  C:6282H         LINE#         67
  C:6282H         LINE#         68
  C:6285H         LINE#         69
  C:6285H         LINE#         70
  C:628EH         LINE#         71
  C:628EH         LINE#         72
  C:6291H         LINE#         73
  C:6293H         LINE#         75
  C:6293H         LINE#         76
  C:6296H         LINE#         77
  C:6296H         LINE#         78
  C:629EH         LINE#         79
  C:629EH         LINE#         80
  C:62A1H         LINE#         81
  C:62A3H         LINE#         83
  C:62A3H         LINE#         84
  C:62A6H         LINE#         85
  C:62A6H         LINE#         86
  C:62AFH         LINE#         87
  C:62AFH         LINE#         88
  C:62B2H         LINE#         89
  C:62B4H         LINE#         91
  C:62B4H         LINE#         92
  C:62B7H         LINE#         93
  C:62B7H         LINE#         94
  C:62BFH         LINE#         95
  C:62BFH         LINE#         96
  C:62C2H         LINE#         97
  C:62C4H         LINE#         99
  C:62C4H         LINE#         100
  C:62C7H         LINE#         101
  C:62C7H         LINE#         102
  C:62D0H         LINE#         103
  C:62D0H         LINE#         104
  C:62D3H         LINE#         105
  C:62D5H         LINE#         107
  C:62D5H         LINE#         108
  C:62D8H         LINE#         109
  C:62D8H         LINE#         110
  C:62E8H         LINE#         111
  C:62F6H         LINE#         112
  -------         ENDPROC       _SPI_INIT
  -------         PROC          _SPI_SETMODE
BL51 BANKED LINKER/LOCATER V6.00                                                      08/07/2017  17:31:50  PAGE 103


  D:0007H         SYMBOL        mode
  C:83D3H         LINE#         118
  C:83D3H         LINE#         119
  C:83D3H         LINE#         120
  C:83D6H         LINE#         121
  C:83D6H         LINE#         122
  C:83D9H         LINE#         123
  C:83DAH         LINE#         125
  C:83DAH         LINE#         126
  C:83DDH         LINE#         127
  C:83DDH         LINE#         128
  -------         ENDPROC       _SPI_SETMODE
  -------         PROC          _SPI_WRITEBYTETOTXBUF
  D:0007H         SYMBOL        dat
  C:812FH         LINE#         133
  C:812FH         LINE#         134
  C:812FH         LINE#         135
  C:8138H         LINE#         136
  C:8140H         LINE#         137
  C:8140H         LINE#         138
  C:8142H         LINE#         139
  C:8142H         LINE#         140
  -------         ENDPROC       _SPI_WRITEBYTETOTXBUF
  -------         PROC          _SPI_WRITENBYTETOTXBUF
  D:0001H         SYMBOL        sp
  D:0005H         SYMBOL        num
  -------         DO            
  D:0006H         SYMBOL        i
  D:0001H         SYMBOL        spp
  -------         ENDDO         
  C:7C84H         LINE#         147
  C:7C84H         LINE#         148
  C:7C84H         LINE#         149
  C:7C84H         LINE#         150
  C:7C84H         LINE#         151
  C:7C8AH         LINE#         152
  C:7C8AH         LINE#         154
  C:7C8AH         LINE#         156
  C:7C8AH         LINE#         157
  C:7C91H         LINE#         158
  C:7C91H         LINE#         159
  C:7C98H         LINE#         160
  C:7C9FH         LINE#         161
  C:7CA2H         LINE#         162
  C:7CA2H         LINE#         163
  -------         ENDPROC       _SPI_WRITENBYTETOTXBUF
  -------         PROC          SPI_TRIGTX
  -------         DO            
  D:0007H         SYMBOL        i
  -------         ENDDO         
  C:788AH         LINE#         167
  C:788AH         LINE#         168
  C:788AH         LINE#         170
  C:7896H         LINE#         171
  C:7896H         LINE#         173
  C:7896H         LINE#         175
  C:7896H         LINE#         176
BL51 BANKED LINKER/LOCATER V6.00                                                      08/07/2017  17:31:50  PAGE 104


  C:789BH         LINE#         177
  C:78A4H         LINE#         178
  C:78ACH         LINE#         179
  C:78ACH         LINE#         180
  C:78AEH         LINE#         181
  C:78AEH         LINE#         182
  C:78B0H         LINE#         183
  C:78B0H         LINE#         184
  -------         ENDPROC       SPI_TRIGTX
  -------         PROC          SPI_SPI_READBYTETORXBUF
  -------         DO            
  D:0007H         SYMBOL        dat
  -------         ENDDO         
  C:79B7H         LINE#         190
  C:79B7H         LINE#         191
  C:79B7H         LINE#         193
  C:79C4H         LINE#         194
  C:79C4H         LINE#         195
  C:79C7H         LINE#         196
  C:79C7H         LINE#         198
  C:79C7H         LINE#         199
  C:79CDH         LINE#         200
  C:79D8H         LINE#         201
  C:79D8H         LINE#         202
  C:79DAH         LINE#         203
  C:79DAH         LINE#         204
  C:79DAH         LINE#         205
  C:79DAH         LINE#         206
  -------         ENDPROC       SPI_SPI_READBYTETORXBUF
  -------         PROC          _SPI_SPI_READTHENBYTETORXBUF
  D:0007H         SYMBOL        num
  -------         DO            
  D:0005H         SYMBOL        i
  D:0007H         SYMBOL        dat
  -------         ENDDO         
  C:7E55H         LINE#         213
  C:7E55H         LINE#         214
  C:7E55H         LINE#         215
  C:7E57H         LINE#         217
  C:7E5DH         LINE#         218
  C:7E5DH         LINE#         219
  C:7E60H         LINE#         220
  C:7E60H         LINE#         222
  C:7E60H         LINE#         223
  C:7E66H         LINE#         224
  C:7E66H         LINE#         225
  C:7E69H         LINE#         226
  C:7E6AH         LINE#         227
  C:7E6CH         LINE#         228
  C:7E6FH         LINE#         229
  C:7E6FH         LINE#         230
  C:7E6FH         LINE#         231
  -------         ENDPROC       _SPI_SPI_READTHENBYTETORXBUF
  -------         PROC          SPI_TRANSIVION
  C:6DB8H         LINE#         235
  C:6DC9H         LINE#         237
  C:6DD6H         LINE#         238
BL51 BANKED LINKER/LOCATER V6.00                                                      08/07/2017  17:31:50  PAGE 105


  C:6DD6H         LINE#         240
  C:6DDDH         LINE#         241
  C:6DE5H         LINE#         242
  C:6DE5H         LINE#         243
  C:6DE7H         LINE#         244
  C:6DE7H         LINE#         245
  C:6DEEH         LINE#         246
  C:6DF9H         LINE#         247
  C:6DF9H         LINE#         248
  C:6DFBH         LINE#         249
  C:6DFBH         LINE#         250
  C:6DFBH         LINE#         251
  C:6DFEH         LINE#         252
  -------         ENDPROC       SPI_TRANSIVION
  -------         ENDMOD        STC15_SPI

  -------         MODULE        TIMER
  C:0000H         SYMBOL        _ICE_DUMMY_
  D:0080H         PUBLIC        P0
  D:0090H         PUBLIC        P1
  D:00A0H         PUBLIC        P2
  D:00B0H         PUBLIC        P3
  D:00C0H         PUBLIC        P4
  D:00C8H         PUBLIC        P5
  C:7033H         SYMBOL        timer4_int
  D:00E8H         PUBLIC        P6
  D:00F8H         PUBLIC        P7
  X:08E4H         SYMBOL        minutes
  X:08E5H         SYMBOL        millis
  D:00A8H         PUBLIC        IE
  C:80CAH         PUBLIC        _restartTimer
  X:08E7H         SYMBOL        micros
  C:8493H         PUBLIC        getSeconds
  D:00B8H         PUBLIC        IP
  C:7FC2H         PUBLIC        _getTimerout
  D:00D8H         PUBLIC        CCON
  C:8499H         PUBLIC        getMinutes
  C:8472H         PUBLIC        getMillis
  X:08E9H         SYMBOL        days
  C:8469H         PUBLIC        getMicros
  X:08EAH         SYMBOL        hours
  D:0098H         PUBLIC        SCON
  D:0089H         PUBLIC        TMOD
  D:0088H         PUBLIC        TCON
  C:7CC2H         PUBLIC        _isExpiredTimer
  X:08EBH         PUBLIC        Timer1_state
  C:7772H         PUBLIC        _setTimeout
  X:08ECH         PUBLIC        Timer2_state
  C:66AFH         PUBLIC        timerInit
  C:3A61H         SYMBOL        _Timer_Inilize
  D:00AFH         PUBLIC        IE2
  C:7D92H         PUBLIC        _isStopped
  D:00F0H         PUBLIC        B
  D:008EH         PUBLIC        AUXR
  C:7CA3H         PUBLIC        _isActiveTimer
  D:00E0H         PUBLIC        ACC
  B:00A8H.1       PUBLIC        ET0
BL51 BANKED LINKER/LOCATER V6.00                                                      08/07/2017  17:31:50  PAGE 106


  B:00A8H.3       PUBLIC        ET1
  D:008CH         PUBLIC        TH0
  C:837BH         PUBLIC        _onRestartTimer
  C:8396H         PUBLIC        _stopTimer
  D:008DH         PUBLIC        TH1
  X:08EDH         SYMBOL        Timer1_temp
  D:00D6H         PUBLIC        TH2
  X:08EFH         SYMBOL        Timer2_temp
  D:00D4H         PUBLIC        TH3
  D:00D2H         PUBLIC        TH4
  D:008AH         PUBLIC        TL0
  D:008BH         PUBLIC        TL1
  D:00D7H         PUBLIC        TL2
  D:00D5H         PUBLIC        TL3
  B:00B8H.1       PUBLIC        PT0
  D:00D3H         PUBLIC        TL4
  C:84A5H         PUBLIC        getDays
  B:00B8H.3       PUBLIC        PT1
  C:849FH         PUBLIC        getHours
  B:0088H.4       PUBLIC        TR0
  C:7FDCH         PUBLIC        _getTimerHertz
  B:0088H.6       PUBLIC        TR1
  D:00D1H         PUBLIC        T4T3M
  X:08F1H         PUBLIC        timer1_struct
  X:08F5H         PUBLIC        timer2_struct
  C:7E03H         PUBLIC        _setTimerHertz
  X:08F9H         SYMBOL        seconds
  D:008FH         PUBLIC        INT_CLKO
  D:00D0H         PUBLIC        PSW
  -------         PROC          TIMERINIT
  -------         DO            
  X:0290H         SYMBOL        USER_Timer
  X:0298H         SYMBOL        Pulser_1_Timer
  X:02A0H         SYMBOL        Pulser_2_Timer
  X:02A8H         SYMBOL        HC_SR04_Timer
  X:02B0H         SYMBOL        Error_Code
  -------         ENDDO         
  C:66AFH         LINE#         88
  C:66AFH         LINE#         89
  C:66AFH         LINE#         95
  C:66B4H         LINE#         98
  C:66B8H         LINE#         99
  C:66BBH         LINE#         100
  C:66BDH         LINE#         101
  C:66C0H         LINE#         102
  C:66C2H         LINE#         103
  C:66C6H         LINE#         104
  C:66D0H         LINE#         106
  C:66D5H         LINE#         107
  C:66D8H         LINE#         108
  C:66DBH         LINE#         109
  C:66DDH         LINE#         110
  C:66DFH         LINE#         111
  C:66E3H         LINE#         112
  C:66EBH         LINE#         115
  C:66F0H         LINE#         116
  C:66F3H         LINE#         117
BL51 BANKED LINKER/LOCATER V6.00                                                      08/07/2017  17:31:50  PAGE 107


  C:66F5H         LINE#         118
  C:66F7H         LINE#         120
  C:66FCH         LINE#         123
  C:66FEH         LINE#         124
  C:6701H         LINE#         125
  C:6703H         LINE#         126
  C:6705H         LINE#         128
  C:670AH         LINE#         129
  C:6715H         LINE#         130
  C:6720H         LINE#         131
  -------         ENDPROC       TIMERINIT
  -------         PROC          _SETTIMEOUT
  D:0007H         SYMBOL        whichTimer
  D:0004H         SYMBOL        time
  C:7772H         LINE#         187
  C:7772H         LINE#         188
  C:7772H         LINE#         189
  C:7780H         LINE#         190
  C:7780H         LINE#         191
  C:7788H         LINE#         192
  C:7788H         LINE#         194
  C:7788H         LINE#         195
  C:7788H         LINE#         196
  C:7790H         LINE#         200
  C:7790H         LINE#         201
  C:7790H         LINE#         202
  C:7790H         LINE#         203
  C:779AH         LINE#         204
  C:779AH         LINE#         205
  C:779AH         LINE#         206
  C:779AH         LINE#         207
  C:779AH         LINE#         208
  C:779AH         LINE#         209
  -------         ENDPROC       _SETTIMEOUT
  -------         PROC          _GETTIMEROUT
  D:0007H         SYMBOL        whichTimer
  C:7FC2H         LINE#         218
  C:7FC2H         LINE#         219
  C:7FC2H         LINE#         220
  C:7FCAH         LINE#         221
  C:7FCAH         LINE#         223
  C:7FCAH         LINE#         224
  C:7FCAH         LINE#         225
  C:7FCFH         LINE#         226
  C:7FCFH         LINE#         227
  C:7FCFH         LINE#         228
  C:7FCFH         LINE#         229
  C:7FCFH         LINE#         230
  C:7FD8H         LINE#         231
  C:7FD8H         LINE#         232
  C:7FD8H         LINE#         234
  C:7FDBH         LINE#         235
  C:7FDBH         LINE#         237
  -------         ENDPROC       _GETTIMEROUT
  -------         PROC          _SETTIMERHERTZ
  D:0007H         SYMBOL        whichTimer
  D:0004H         SYMBOL        Hz
BL51 BANKED LINKER/LOCATER V6.00                                                      08/07/2017  17:31:50  PAGE 108


  C:7E03H         LINE#         248
  C:7E03H         LINE#         249
  C:7E03H         LINE#         250
  C:7E0BH         LINE#         251
  C:7E0BH         LINE#         253
  C:7E0BH         LINE#         254
  C:7E0BH         LINE#         255
  C:7E13H         LINE#         256
  C:7E13H         LINE#         257
  C:7E14H         LINE#         258
  C:7E14H         LINE#         259
  C:7E14H         LINE#         260
  C:7E1EH         LINE#         261
  C:7E1EH         LINE#         262
  C:7E1EH         LINE#         264
  C:7E1EH         LINE#         267
  -------         ENDPROC       _SETTIMERHERTZ
  -------         PROC          _GETTIMERHERTZ
  D:0007H         SYMBOL        whichTimer
  C:7FDCH         LINE#         268
  C:7FDCH         LINE#         269
  C:7FDCH         LINE#         270
  C:7FE4H         LINE#         271
  C:7FE4H         LINE#         273
  C:7FE4H         LINE#         274
  C:7FE4H         LINE#         275
  C:7FE4H         LINE#         276
  C:7FE9H         LINE#         277
  C:7FE9H         LINE#         278
  C:7FE9H         LINE#         279
  C:7FE9H         LINE#         280
  C:7FE9H         LINE#         281
  C:7FF2H         LINE#         282
  C:7FF2H         LINE#         283
  C:7FF2H         LINE#         284
  C:7FF5H         LINE#         285
  C:7FF5H         LINE#         286
  -------         ENDPROC       _GETTIMERHERTZ
  -------         PROC          _STOPTIMER
  D:0007H         SYMBOL        whichTimer
  C:8396H         LINE#         296
  C:8396H         LINE#         297
  C:8396H         LINE#         298
  C:839AH         LINE#         299
  C:839AH         LINE#         300
  C:839AH         LINE#         301
  C:839AH         LINE#         302
  C:839DH         LINE#         303
  C:83A2H         LINE#         305
  C:83A2H         LINE#         306
  C:83A2H         LINE#         307
  C:83A2H         LINE#         308
  C:83A2H         LINE#         312
  C:83A2H         LINE#         313
  C:83A2H         LINE#         314
  C:83A2H         LINE#         316
  -------         ENDPROC       _STOPTIMER
BL51 BANKED LINKER/LOCATER V6.00                                                      08/07/2017  17:31:50  PAGE 109


  -------         PROC          _ISACTIVETIMER
  D:0007H         SYMBOL        whichTimer
  C:7CA3H         LINE#         326
  C:7CA3H         LINE#         327
  C:7CA3H         LINE#         328
  C:7CABH         LINE#         329
  C:7CABH         LINE#         330
  C:7CABH         LINE#         331
  C:7CABH         LINE#         332
  C:7CB6H         LINE#         334
  C:7CB6H         LINE#         335
  C:7CB6H         LINE#         336
  C:7CB6H         LINE#         337
  C:7CC1H         LINE#         339
  C:7CC1H         LINE#         340
  C:7CC1H         LINE#         341
  C:7CC1H         LINE#         342
  -------         ENDPROC       _ISACTIVETIMER
  -------         PROC          _ISEXPIREDTIMER
  D:0007H         SYMBOL        whichTimer
  C:7CC2H         LINE#         352
  C:7CC2H         LINE#         353
  C:7CC2H         LINE#         354
  C:7CCAH         LINE#         355
  C:7CCAH         LINE#         356
  C:7CCAH         LINE#         357
  C:7CCAH         LINE#         358
  C:7CD5H         LINE#         359
  C:7CD5H         LINE#         360
  C:7CD5H         LINE#         361
  C:7CD5H         LINE#         362
  C:7CE0H         LINE#         363
  C:7CE0H         LINE#         364
  C:7CE0H         LINE#         365
  C:7CE0H         LINE#         368
  -------         ENDPROC       _ISEXPIREDTIMER
  -------         PROC          _ISSTOPPED
  D:0007H         SYMBOL        whichtimer
  C:7D92H         LINE#         378
  C:7D92H         LINE#         379
  C:7D92H         LINE#         380
  C:7D9AH         LINE#         381
  C:7D9AH         LINE#         382
  C:7D9AH         LINE#         383
  C:7D9AH         LINE#         384
  C:7DA4H         LINE#         385
  C:7DA4H         LINE#         386
  C:7DA4H         LINE#         387
  C:7DA4H         LINE#         388
  C:7DAEH         LINE#         389
  C:7DAEH         LINE#         390
  C:7DAEH         LINE#         391
  C:7DAEH         LINE#         392
  -------         ENDPROC       _ISSTOPPED
  -------         PROC          _RESTARTTIMER
  D:0006H         SYMBOL        whichTimer
  C:80CAH         LINE#         403
BL51 BANKED LINKER/LOCATER V6.00                                                      08/07/2017  17:31:50  PAGE 110


  C:80CCH         LINE#         404
  C:80CCH         LINE#         405
  C:80D1H         LINE#         406
  C:80D1H         LINE#         407
  C:80D5H         LINE#         408
  C:80D5H         LINE#         409
  C:80D5H         LINE#         410
  C:80D5H         LINE#         411
  C:80D8H         LINE#         412
  C:80DEH         LINE#         416
  C:80DEH         LINE#         417
  C:80DEH         LINE#         418
  C:80DEH         LINE#         419
  C:80DEH         LINE#         422
  C:80DEH         LINE#         423
  C:80DEH         LINE#         424
  C:80DEH         LINE#         425
  C:80DEH         LINE#         426
  C:80DEH         LINE#         430
  C:80DEH         LINE#         431
  -------         ENDPROC       _RESTARTTIMER
  -------         PROC          _ONRESTARTTIMER
  D:0006H         SYMBOL        whichTimer
  C:837BH         LINE#         441
  C:837DH         LINE#         442
  C:837DH         LINE#         443
  C:8382H         LINE#         444
  C:8382H         LINE#         445
  C:8385H         LINE#         446
  C:8387H         LINE#         447
  C:8387H         LINE#         449
  C:8387H         LINE#         450
  C:8388H         LINE#         451
  C:8388H         LINE#         453
  -------         ENDPROC       _ONRESTARTTIMER
  -------         PROC          GETMICROS
  C:8469H         LINE#         457
  C:8469H         LINE#         458
  C:8469H         LINE#         460
  C:8471H         LINE#         461
  -------         ENDPROC       GETMICROS
  -------         PROC          GETMILLIS
  C:8472H         LINE#         463
  C:8472H         LINE#         464
  C:8472H         LINE#         465
  C:847AH         LINE#         466
  -------         ENDPROC       GETMILLIS
  -------         PROC          GETSECONDS
  C:8493H         LINE#         467
  C:8493H         LINE#         468
  C:8493H         LINE#         469
  C:8498H         LINE#         470
  -------         ENDPROC       GETSECONDS
  -------         PROC          GETMINUTES
  C:8499H         LINE#         471
  C:8499H         LINE#         472
  C:8499H         LINE#         473
BL51 BANKED LINKER/LOCATER V6.00                                                      08/07/2017  17:31:50  PAGE 111


  C:849EH         LINE#         474
  -------         ENDPROC       GETMINUTES
  -------         PROC          GETHOURS
  C:849FH         LINE#         475
  C:849FH         LINE#         476
  C:849FH         LINE#         477
  C:84A4H         LINE#         478
  -------         ENDPROC       GETHOURS
  -------         PROC          GETDAYS
  C:84A5H         LINE#         479
  C:84A5H         LINE#         480
  C:84A5H         LINE#         481
  C:84AAH         LINE#         482
  -------         ENDPROC       GETDAYS
  -------         PROC          TIMER4_INT
  C:7033H         LINE#         487
  C:7044H         LINE#         491
  C:705DH         LINE#         492
  C:705DH         LINE#         494
  C:7060H         LINE#         496
  C:7067H         LINE#         497
  C:706CH         LINE#         498
  C:706CH         LINE#         500
  -------         ENDPROC       TIMER4_INT
  -------         PROC          _TIMER_INILIZE
  D:0005H         SYMBOL        TIM
  D:0001H         SYMBOL        TIMx
  C:3A61H         LINE#         579
  C:3A63H         LINE#         580
  C:3A63H         LINE#         581
  C:3A6CH         LINE#         583
  C:3A6FH         LINE#         584
  C:3A6FH         LINE#         585
  C:3A7BH         LINE#         586
  C:3A7DH         LINE#         587
  C:3A7FH         LINE#         588
  C:3A81H         LINE#         589
  C:3A84H         LINE#         590
  C:3A87H         LINE#         591
  C:3A8AH         LINE#         592
  C:3A95H         LINE#         593
  C:3AA0H         LINE#         594
  C:3AA3H         LINE#         595
  C:3AAFH         LINE#         596
  C:3AB6H         LINE#         597
  C:3AC2H         LINE#         599
  C:3ACCH         LINE#         600
  C:3AD4H         LINE#         601
  C:3ADFH         LINE#         602
  C:3AE2H         LINE#         603
  C:3AE2H         LINE#         605
  C:3AEAH         LINE#         606
  C:3AEAH         LINE#         607
  C:3AECH         LINE#         608
  C:3AF9H         LINE#         609
  C:3AFBH         LINE#         610
  C:3B08H         LINE#         611
BL51 BANKED LINKER/LOCATER V6.00                                                      08/07/2017  17:31:50  PAGE 112


  C:3B0AH         LINE#         612
  C:3B16H         LINE#         613
  C:3B1DH         LINE#         614
  C:3B2AH         LINE#         615
  C:3B30H         LINE#         616
  C:3B39H         LINE#         617
  C:3B3CH         LINE#         618
  C:3B4AH         LINE#         619
  C:3B4DH         LINE#         621
  C:3B57H         LINE#         622
  C:3B5FH         LINE#         623
  C:3B6AH         LINE#         624
  C:3B6DH         LINE#         625
  C:3B6DH         LINE#         627
  C:3B72H         LINE#         628
  C:3B72H         LINE#         629
  C:3B75H         LINE#         630
  C:3B83H         LINE#         631
  C:3B86H         LINE#         632
  C:3B95H         LINE#         633
  C:3B9CH         LINE#         634
  C:3BA7H         LINE#         635
  C:3BB5H         LINE#         636
  C:3BB8H         LINE#         637
  C:3BC6H         LINE#         638
  C:3BC9H         LINE#         640
  C:3BD3H         LINE#         641
  C:3BDBH         LINE#         642
  C:3BE7H         LINE#         643
  C:3BEAH         LINE#         644
  C:3BEAH         LINE#         646
  C:3BEFH         LINE#         647
  C:3BEFH         LINE#         648
  C:3BFEH         LINE#         649
  C:3C01H         LINE#         650
  C:3C04H         LINE#         651
  C:3C10H         LINE#         652
  C:3C16H         LINE#         653
  C:3C22H         LINE#         654
  C:3C2EH         LINE#         656
  C:3C38H         LINE#         657
  C:3C40H         LINE#         658
  C:3C4CH         LINE#         659
  C:3C4FH         LINE#         660
  C:3C4FH         LINE#         662
  C:3C54H         LINE#         663
  C:3C54H         LINE#         664
  C:3C63H         LINE#         665
  C:3C66H         LINE#         666
  C:3C69H         LINE#         667
  C:3C75H         LINE#         668
  C:3C7BH         LINE#         669
  C:3C87H         LINE#         671
  C:3C93H         LINE#         672
  C:3C95H         LINE#         673
  C:3CA1H         LINE#         674
  C:3CADH         LINE#         676
BL51 BANKED LINKER/LOCATER V6.00                                                      08/07/2017  17:31:50  PAGE 113


  C:3CB0H         LINE#         677
  C:3CB0H         LINE#         679
  C:3CB2H         LINE#         680
  -------         ENDPROC       _TIMER_INILIZE
  -------         ENDMOD        TIMER

  -------         MODULE        USART1
  C:0000H         SYMBOL        _ICE_DUMMY_
  D:0080H         PUBLIC        P0
  D:0090H         PUBLIC        P1
  D:00A0H         PUBLIC        P2
  D:00B0H         PUBLIC        P3
  D:00C0H         PUBLIC        P4
  D:00C8H         PUBLIC        P5
  B:00A8H.7       PUBLIC        EA
  D:00E8H         PUBLIC        P6
  D:00F8H         PUBLIC        P7
  D:00A2H         PUBLIC        P_SW1
  D:00BAH         PUBLIC        P_SW2
  D:00A8H         PUBLIC        IE
  X:0000H         PUBLIC        COM1
  C:8301H         PUBLIC        _setUART1Interrupt
  X:0007H         PUBLIC        COM2
  X:000EH         PUBLIC        COM3
  X:0015H         PUBLIC        COM4
  B:00A8H.4       PUBLIC        ES
  D:00B8H         PUBLIC        IP
  X:001CH         PUBLIC        RX1_Buffer
  X:009CH         PUBLIC        RX2_Buffer
  B:0098H.0       PUBLIC        RI
  C:5C25H         PUBLIC        UART1_int
  X:011CH         PUBLIC        RX3_Buffer
  X:0138H         PUBLIC        TX1_Buffer
  C:6520H         PUBLIC        UART2_int
  X:01B8H         PUBLIC        RX4_Buffer
  X:01D4H         PUBLIC        TX2_Buffer
  B:0098H.1       PUBLIC        TI
  C:65A5H         PUBLIC        UART3_int
  X:0254H         PUBLIC        TX3_Buffer
  C:662AH         PUBLIC        UART4_int
  X:0270H         PUBLIC        functionTmp
  X:0271H         PUBLIC        TX4_Buffer
  B:00B8H.4       PUBLIC        PS
  D:00D8H         PUBLIC        CCON
  C:4986H         SYMBOL        _itoa
  D:0099H         PUBLIC        SBUF
  D:0087H         PUBLIC        PCON
  D:0098H         PUBLIC        SCON
  D:0089H         PUBLIC        TMOD
  D:0088H         PUBLIC        TCON
  C:31DAH         PUBLIC        _USART1_printf
  C:8072H         PUBLIC        _PrintString1
  C:817CH         PUBLIC        _PrintString2
  C:818FH         PUBLIC        _PrintString3
  X:028DH         PUBLIC        _interruptFunction
  C:81A2H         PUBLIC        _PrintString4
  D:00AFH         PUBLIC        IE2
BL51 BANKED LINKER/LOCATER V6.00                                                      08/07/2017  17:31:50  PAGE 114


  D:00F0H         PUBLIC        B
  D:008EH         PUBLIC        AUXR
  C:78B1H         PUBLIC        _TX1_write2buff
  C:77EBH         PUBLIC        _TX2_write2buff
  C:7813H         PUBLIC        _TX3_write2buff
  D:00E0H         PUBLIC        ACC
  C:783BH         PUBLIC        _TX4_write2buff
  B:00A8H.3       PUBLIC        ET1
  D:00B5H         PUBLIC        IP2
  D:008DH         PUBLIC        TH1
  D:00D6H         PUBLIC        TH2
  D:00D4H         PUBLIC        TH3
  D:00D2H         PUBLIC        TH4
  D:008BH         PUBLIC        TL1
  D:00D7H         PUBLIC        TL2
  C:12F7H         PUBLIC        _USART_Configuration
  D:00D5H         PUBLIC        TL3
  D:00D3H         PUBLIC        TL4
  B:0088H.6       PUBLIC        TR1
  D:00D1H         PUBLIC        T4T3M
  D:009BH         PUBLIC        S2BUF
  D:0097H         PUBLIC        PCON2
  D:00ADH         PUBLIC        S3BUF
  B:0098H.4       PUBLIC        REN
  D:0085H         PUBLIC        S4BUF
  D:009AH         PUBLIC        S2CON
  D:00ACH         PUBLIC        S3CON
  D:0084H         PUBLIC        S4CON
  D:008FH         PUBLIC        INT_CLKO
  D:00D0H         PUBLIC        PSW
  -------         PROC          _SETUART1INTERRUPT
  D:0001H         SYMBOL        function
  D:0005H         SYMBOL        tmp
  C:8301H         LINE#         28
  C:8301H         LINE#         29
  C:8301H         LINE#         30
  C:830CH         LINE#         31
  C:8311H         LINE#         32
  -------         ENDPROC       _SETUART1INTERRUPT
  -------         PROC          _USART_CONFIGURATION
  X:029DH         SYMBOL        UARTx
  X:029EH         SYMBOL        COMx
  -------         DO            
  X:02A1H         SYMBOL        i
  X:02A2H         SYMBOL        j
  -------         ENDDO         
  C:12F7H         LINE#         33
  C:1307H         LINE#         34
  C:1307H         LINE#         38
  C:130EH         LINE#         39
  C:130EH         LINE#         40
  C:1313H         LINE#         41
  C:1316H         LINE#         42
  C:1318H         LINE#         43
  C:131AH         LINE#         44
  C:131CH         LINE#         45
  C:131EH         LINE#         46
BL51 BANKED LINKER/LOCATER V6.00                                                      08/07/2017  17:31:50  PAGE 115


  C:1320H         LINE#         47
  C:1342H         LINE#         48
  C:1365H         LINE#         50
  C:137BH         LINE#         51
  C:1388H         LINE#         52
  C:138AH         LINE#         53
  C:1395H         LINE#         54
  C:13A2H         LINE#         55
  C:13A2H         LINE#         56
  C:13B9H         LINE#         57
  C:13D6H         LINE#         58
  C:13F8H         LINE#         59
  C:140EH         LINE#         60
  C:140EH         LINE#         61
  C:1410H         LINE#         62
  C:1413H         LINE#         63
  C:1416H         LINE#         64
  C:1419H         LINE#         65
  C:141CH         LINE#         66
  C:1431H         LINE#         67
  C:143AH         LINE#         68
  C:143CH         LINE#         69
  C:143FH         LINE#         70
  C:1442H         LINE#         71
  C:1444H         LINE#         72
  C:1446H         LINE#         73
  C:144BH         LINE#         74
  C:144BH         LINE#         75
  C:144EH         LINE#         76
  C:1451H         LINE#         77
  C:1454H         LINE#         78
  C:1457H         LINE#         79
  C:146CH         LINE#         80
  C:1475H         LINE#         81
  C:1478H         LINE#         82
  C:147BH         LINE#         83
  C:147EH         LINE#         84
  C:1480H         LINE#         85
  C:1483H         LINE#         86
  C:1483H         LINE#         87
  C:1494H         LINE#         88
  C:1494H         LINE#         89
  C:14A2H         LINE#         90
  C:14A5H         LINE#         91
  C:14A7H         LINE#         92
  C:14ABH         LINE#         93
  C:14ABH         LINE#         94
  C:14B9H         LINE#         95
  C:14BCH         LINE#         96
  C:14BCH         LINE#         97
  C:14D4H         LINE#         98
  C:14D6H         LINE#         99
  C:14E3H         LINE#         100
  C:14E5H         LINE#         101
  C:14F5H         LINE#         102
  C:1503H         LINE#         103
  C:1506H         LINE#         104
BL51 BANKED LINKER/LOCATER V6.00                                                      08/07/2017  17:31:50  PAGE 116


  C:1509H         LINE#         105
  C:1509H         LINE#         107
  C:1514H         LINE#         108
  C:1514H         LINE#         109
  C:151AH         LINE#         110
  C:151DH         LINE#         111
  C:151FH         LINE#         112
  C:1521H         LINE#         113
  C:1523H         LINE#         114
  C:1525H         LINE#         115
  C:1527H         LINE#         116
  C:1549H         LINE#         117
  C:156CH         LINE#         119
  C:1587H         LINE#         120
  C:1587H         LINE#         121
  C:1595H         LINE#         122
  C:1598H         LINE#         123
  C:15A3H         LINE#         124
  C:15A6H         LINE#         125
  C:15BDH         LINE#         126
  C:15DAH         LINE#         127
  C:15FCH         LINE#         128
  C:15FFH         LINE#         129
  C:1602H         LINE#         130
  C:1605H         LINE#         131
  C:161AH         LINE#         132
  C:1623H         LINE#         133
  C:1626H         LINE#         134
  C:1629H         LINE#         135
  C:162BH         LINE#         136
  C:162EH         LINE#         137
  C:1647H         LINE#         138
  C:164AH         LINE#         139
  C:1658H         LINE#         140
  C:165BH         LINE#         141
  C:166BH         LINE#         142
  C:166BH         LINE#         144
  C:1676H         LINE#         145
  C:1676H         LINE#         146
  C:167CH         LINE#         147
  C:167FH         LINE#         148
  C:1681H         LINE#         149
  C:1683H         LINE#         150
  C:1685H         LINE#         151
  C:1687H         LINE#         152
  C:1689H         LINE#         153
  C:16ABH         LINE#         154
  C:16CEH         LINE#         155
  C:16E9H         LINE#         156
  C:16E9H         LINE#         157
  C:16ECH         LINE#         158
  C:16F5H         LINE#         159
  C:16F8H         LINE#         160
  C:171AH         LINE#         161
  C:1737H         LINE#         162
  C:1759H         LINE#         163
  C:176FH         LINE#         164
BL51 BANKED LINKER/LOCATER V6.00                                                      08/07/2017  17:31:50  PAGE 117


  C:176FH         LINE#         165
  C:1772H         LINE#         166
  C:1775H         LINE#         167
  C:1778H         LINE#         168
  C:177BH         LINE#         169
  C:1790H         LINE#         170
  C:1799H         LINE#         171
  C:179CH         LINE#         172
  C:179FH         LINE#         173
  C:17A1H         LINE#         174
  C:17A6H         LINE#         175
  C:17A6H         LINE#         176
  C:17A9H         LINE#         177
  C:17ACH         LINE#         178
  C:17AFH         LINE#         179
  C:17B2H         LINE#         180
  C:17B5H         LINE#         181
  C:17B8H         LINE#         182
  C:17CDH         LINE#         183
  C:17D6H         LINE#         184
  C:17D9H         LINE#         185
  C:17DBH         LINE#         186
  C:17DEH         LINE#         187
  C:17DEH         LINE#         188
  C:17E1H         LINE#         189
  C:17FAH         LINE#         190
  C:17FDH         LINE#         191
  C:180BH         LINE#         192
  C:180EH         LINE#         193
  C:181BH         LINE#         194
  C:181EH         LINE#         196
  C:181EH         LINE#         198
  C:1829H         LINE#         199
  C:1829H         LINE#         200
  C:182FH         LINE#         201
  C:1832H         LINE#         202
  C:1834H         LINE#         203
  C:1836H         LINE#         204
  C:1838H         LINE#         205
  C:183AH         LINE#         206
  C:183CH         LINE#         207
  C:185EH         LINE#         208
  C:1881H         LINE#         210
  C:189CH         LINE#         211
  C:189CH         LINE#         212
  C:189FH         LINE#         213
  C:18A8H         LINE#         214
  C:18ABH         LINE#         215
  C:18CDH         LINE#         216
  C:18EAH         LINE#         217
  C:190CH         LINE#         218
  C:1922H         LINE#         219
  C:1922H         LINE#         220
  C:1925H         LINE#         221
  C:1928H         LINE#         222
  C:192BH         LINE#         223
  C:192EH         LINE#         224
BL51 BANKED LINKER/LOCATER V6.00                                                      08/07/2017  17:31:50  PAGE 118


  C:1943H         LINE#         225
  C:194CH         LINE#         226
  C:194FH         LINE#         227
  C:1952H         LINE#         228
  C:1954H         LINE#         229
  C:1959H         LINE#         230
  C:1959H         LINE#         231
  C:195CH         LINE#         232
  C:195FH         LINE#         233
  C:1962H         LINE#         234
  C:1965H         LINE#         235
  C:1968H         LINE#         236
  C:196BH         LINE#         237
  C:1980H         LINE#         238
  C:1989H         LINE#         239
  C:198CH         LINE#         240
  C:198EH         LINE#         241
  C:1991H         LINE#         242
  C:1991H         LINE#         243
  C:1994H         LINE#         244
  C:19ADH         LINE#         245
  C:19B0H         LINE#         246
  C:19BEH         LINE#         247
  C:19C1H         LINE#         248
  C:19D1H         LINE#         249
  C:19D4H         LINE#         250
  C:19D4H         LINE#         252
  C:19D6H         LINE#         253
  -------         ENDPROC       _USART_CONFIGURATION
  -------         PROC          _TX1_WRITE2BUFF
  D:0007H         SYMBOL        dat
  C:78B1H         LINE#         258
  C:78B1H         LINE#         259
  C:78B1H         LINE#         260
  C:78C0H         LINE#         261
  C:78CDH         LINE#         263
  C:78D3H         LINE#         264
  C:78D3H         LINE#         265
  C:78D5H         LINE#         266
  C:78D7H         LINE#         267
  C:78D7H         LINE#         268
  -------         ENDPROC       _TX1_WRITE2BUFF
  -------         PROC          _TX2_WRITE2BUFF
  D:0007H         SYMBOL        dat
  C:77EBH         LINE#         270
  C:77EBH         LINE#         271
  C:77EBH         LINE#         272
  C:77FAH         LINE#         273
  C:7807H         LINE#         275
  C:780DH         LINE#         276
  C:780DH         LINE#         277
  C:780FH         LINE#         278
  C:7812H         LINE#         279
  C:7812H         LINE#         280
  -------         ENDPROC       _TX2_WRITE2BUFF
  -------         PROC          _TX3_WRITE2BUFF
  D:0007H         SYMBOL        dat
BL51 BANKED LINKER/LOCATER V6.00                                                      08/07/2017  17:31:50  PAGE 119


  C:7813H         LINE#         282
  C:7813H         LINE#         283
  C:7813H         LINE#         284
  C:7822H         LINE#         285
  C:782FH         LINE#         287
  C:7835H         LINE#         288
  C:7835H         LINE#         289
  C:7837H         LINE#         290
  C:783AH         LINE#         291
  C:783AH         LINE#         292
  -------         ENDPROC       _TX3_WRITE2BUFF
  -------         PROC          _TX4_WRITE2BUFF
  D:0007H         SYMBOL        dat
  C:783BH         LINE#         294
  C:783BH         LINE#         295
  C:783BH         LINE#         296
  C:784AH         LINE#         297
  C:7857H         LINE#         299
  C:785DH         LINE#         300
  C:785DH         LINE#         301
  C:785FH         LINE#         302
  C:7862H         LINE#         303
  C:7862H         LINE#         304
  -------         ENDPROC       _TX4_WRITE2BUFF
  -------         PROC          _PRINTSTRING1
  D:0001H         SYMBOL        puts
  C:8072H         LINE#         306
  C:8072H         LINE#         307
  C:8072H         LINE#         308
  C:8074H         LINE#         309
  C:8086H         LINE#         310
  C:8088H         LINE#         311
  -------         ENDPROC       _PRINTSTRING1
  -------         PROC          _PRINTSTRING2
  D:0001H         SYMBOL        puts
  C:817CH         LINE#         313
  C:817CH         LINE#         314
  C:817CH         LINE#         315
  C:818EH         LINE#         316
  -------         ENDPROC       _PRINTSTRING2
  -------         PROC          _PRINTSTRING3
  D:0001H         SYMBOL        puts
  C:818FH         LINE#         318
  C:818FH         LINE#         319
  C:818FH         LINE#         320
  C:81A1H         LINE#         321
  -------         ENDPROC       _PRINTSTRING3
  -------         PROC          _PRINTSTRING4
  D:0001H         SYMBOL        puts
  C:81A2H         LINE#         323
  C:81A2H         LINE#         324
  C:81A2H         LINE#         325
  C:81B4H         LINE#         326
  -------         ENDPROC       _PRINTSTRING4
  C:4977H         SYMBOL        L?0213
  -------         PROC          L?0212
  -------         ENDPROC       L?0212
BL51 BANKED LINKER/LOCATER V6.00                                                      08/07/2017  17:31:50  PAGE 120


  C:4977H         SYMBOL        L?0213
  -------         PROC          _ITOA
  X:0924H         SYMBOL        value
  X:0926H         SYMBOL        string
  X:0929H         SYMBOL        radix
  -------         DO            
  X:092BH         SYMBOL        i
  X:092FH         SYMBOL        d
  X:0933H         SYMBOL        flag
  X:0935H         SYMBOL        ptr
  -------         ENDDO         
  C:4986H         LINE#         337
  C:4997H         LINE#         338
  C:4997H         LINE#         340
  C:499EH         LINE#         341
  C:49A7H         LINE#         343
  C:49B3H         LINE#         344
  C:49B3H         LINE#         345
  C:49B3H         LINE#         346
  C:49B6H         LINE#         347
  C:49B6H         LINE#         348
  C:49C1H         LINE#         349
  C:49C1H         LINE#         350
  C:49D6H         LINE#         351
  C:49D6H         LINE#         352
  C:49D9H         LINE#         353
  C:49D9H         LINE#         355
  C:49E1H         LINE#         356
  C:49E1H         LINE#         357
  C:49F6H         LINE#         359
  C:4A0DH         LINE#         360
  C:4A0DH         LINE#         361
  C:4A33H         LINE#         362
  C:4A33H         LINE#         363
  C:4A53H         LINE#         364
  C:4A6FH         LINE#         365
  C:4A6FH         LINE#         366
  C:4A8DH         LINE#         367
  C:4AB7H         LINE#         368
  C:4ABFH         LINE#         369
  C:4ABFH         LINE#         370
  C:4ADFH         LINE#         372
  C:4AEEH         LINE#         373
  C:4AF9H         LINE#         374
  -------         ENDPROC       _ITOA
  -------         PROC          _USART1_PRINTF
  X:073EH         SYMBOL        Data
  -------         DO            
  X:0741H         SYMBOL        ellipsis_40
  X:0769H         SYMBOL        s
  D:0006H         SYMBOL        c
  X:076CH         SYMBOL        d
  X:076EH         SYMBOL        f
  X:0772H         SYMBOL        x
  X:0776H         SYMBOL        y
  X:077AH         SYMBOL        buf
  X:078EH         SYMBOL        ap
BL51 BANKED LINKER/LOCATER V6.00                                                      08/07/2017  17:31:50  PAGE 121


  -------         ENDDO         
  C:31DAH         LINE#         381
  C:31E5H         LINE#         382
  C:31E5H         LINE#         390
  C:31F3H         LINE#         392
  C:3207H         LINE#         393
  C:3207H         LINE#         394
  C:320AH         LINE#         395
  C:320AH         LINE#         396
  C:3223H         LINE#         397
  C:3223H         LINE#         398
  C:3223H         LINE#         399
  C:3225H         LINE#         400
  C:3225H         LINE#         401
  C:3228H         LINE#         403
  C:3228H         LINE#         404
  C:322AH         LINE#         405
  C:322AH         LINE#         406
  C:322DH         LINE#         408
  C:322DH         LINE#         409
  C:322DH         LINE#         410
  C:3230H         LINE#         411
  C:3230H         LINE#         412
  C:3230H         LINE#         413
  C:3245H         LINE#         414
  C:3245H         LINE#         415
  C:3273H         LINE#         416
  C:3273H         LINE#         418
  C:3273H         LINE#         419
  C:3287H         LINE#         420
  C:3288H         LINE#         421
  C:3288H         LINE#         422
  C:328BH         LINE#         424
  C:328BH         LINE#         425
  C:32A9H         LINE#         426
  C:32BAH         LINE#         427
  C:32BAH         LINE#         428
  C:32BDH         LINE#         429
  C:32C9H         LINE#         430
  C:32C9H         LINE#         431
  C:32CCH         LINE#         433
  C:32CCH         LINE#         434
  C:32E9H         LINE#         435
  C:32F4H         LINE#         436
  C:3313H         LINE#         437
  C:3313H         LINE#         438
  C:3316H         LINE#         439
  C:3322H         LINE#         440
  C:3322H         LINE#         441
  C:3325H         LINE#         443
  C:3325H         LINE#         444
  C:333EH         LINE#         445
  C:3356H         LINE#         446
  C:3356H         LINE#         447
  C:335BH         LINE#         448
  C:3372H         LINE#         449
  C:3372H         LINE#         451
BL51 BANKED LINKER/LOCATER V6.00                                                      08/07/2017  17:31:50  PAGE 122


  C:33A6H         LINE#         452
  C:33D0H         LINE#         454
  C:33D3H         LINE#         455
  C:33F2H         LINE#         456
  C:33F2H         LINE#         457
  C:33F5H         LINE#         458
  C:3401H         LINE#         460
  C:3406H         LINE#         462
  C:3425H         LINE#         465
  C:3444H         LINE#         466
  C:3463H         LINE#         467
  C:3482H         LINE#         468
  C:34A1H         LINE#         470
  C:34B5H         LINE#         471
  C:34D4H         LINE#         472
  C:34D4H         LINE#         473
  C:34D7H         LINE#         474
  C:34E3H         LINE#         476
  C:34E3H         LINE#         477
  C:34E5H         LINE#         479
  C:34E5H         LINE#         480
  C:34EAH         LINE#         481
  C:34EAH         LINE#         482
  C:34ECH         LINE#         484
  C:34F6H         LINE#         485
  C:34F9H         LINE#         486
  C:34F9H         LINE#         487
  C:34F9H         LINE#         488
  C:3510H         LINE#         489
  C:3513H         LINE#         491
  -------         ENDPROC       _USART1_PRINTF
  -------         PROC          UART1_INT
  C:5C25H         LINE#         494
  C:5C42H         LINE#         496
  C:5C45H         LINE#         497
  C:5C45H         LINE#         498
  C:5C47H         LINE#         499
  C:5C4DH         LINE#         500
  C:5C4DH         LINE#         501
  C:5C58H         LINE#         502
  C:5C6CH         LINE#         503
  C:5C72H         LINE#         504
  C:5C86H         LINE#         505
  C:5C86H         LINE#         506
  C:5C86H         LINE#         508
  C:5C89H         LINE#         509
  C:5C89H         LINE#         510
  C:5C8BH         LINE#         511
  C:5C98H         LINE#         512
  C:5C98H         LINE#         513
  C:5CA5H         LINE#         514
  C:5CB2H         LINE#         515
  C:5CB4H         LINE#         516
  C:5CB9H         LINE#         517
  C:5CB9H         LINE#         518
  -------         ENDPROC       UART1_INT
  -------         PROC          UART2_INT
BL51 BANKED LINKER/LOCATER V6.00                                                      08/07/2017  17:31:50  PAGE 123


  C:6520H         LINE#         521
  C:652FH         LINE#         523
  C:6534H         LINE#         524
  C:6534H         LINE#         525
  C:6537H         LINE#         526
  C:653DH         LINE#         527
  C:653DH         LINE#         528
  C:6548H         LINE#         529
  C:655CH         LINE#         530
  C:6562H         LINE#         531
  C:6562H         LINE#         532
  C:6562H         LINE#         534
  C:6567H         LINE#         535
  C:6567H         LINE#         536
  C:656AH         LINE#         537
  C:6577H         LINE#         538
  C:6577H         LINE#         539
  C:6584H         LINE#         540
  C:6591H         LINE#         541
  C:6593H         LINE#         542
  C:6598H         LINE#         543
  C:6598H         LINE#         545
  -------         ENDPROC       UART2_INT
  -------         PROC          UART3_INT
  C:65A5H         LINE#         549
  C:65B4H         LINE#         551
  C:65B9H         LINE#         552
  C:65B9H         LINE#         553
  C:65BCH         LINE#         554
  C:65C2H         LINE#         555
  C:65C2H         LINE#         556
  C:65CDH         LINE#         557
  C:65E1H         LINE#         558
  C:65E7H         LINE#         559
  C:65E7H         LINE#         560
  C:65E7H         LINE#         562
  C:65ECH         LINE#         563
  C:65ECH         LINE#         564
  C:65EFH         LINE#         565
  C:65FCH         LINE#         566
  C:65FCH         LINE#         567
  C:6609H         LINE#         568
  C:6616H         LINE#         569
  C:6618H         LINE#         570
  C:661DH         LINE#         571
  C:661DH         LINE#         573
  -------         ENDPROC       UART3_INT
  -------         PROC          UART4_INT
  C:662AH         LINE#         577
  C:6639H         LINE#         579
  C:663EH         LINE#         580
  C:663EH         LINE#         581
  C:6641H         LINE#         582
  C:6647H         LINE#         583
  C:6647H         LINE#         584
  C:6652H         LINE#         585
  C:6666H         LINE#         586
BL51 BANKED LINKER/LOCATER V6.00                                                      08/07/2017  17:31:50  PAGE 124


  C:666CH         LINE#         587
  C:666CH         LINE#         588
  C:666CH         LINE#         590
  C:6671H         LINE#         591
  C:6671H         LINE#         592
  C:6674H         LINE#         593
  C:6681H         LINE#         594
  C:6681H         LINE#         595
  C:668EH         LINE#         596
  C:669BH         LINE#         597
  C:669DH         LINE#         598
  C:66A2H         LINE#         599
  C:66A2H         LINE#         601
  -------         ENDPROC       UART4_INT
  -------         ENDMOD        USART1

  -------         MODULE        ?RTX51_TINY_KERNAL
  C:7FF6H         SEGMENT       ?RTX?TASKENT?S
  I:007DH         SEGMENT       ?RTX?TASKSP?S
  I:0063H         SEGMENT       ?RTX?TASKSTATE?S
  B:0022H.3       SEGMENT       ?RTX?BITS
  C:3514H         SEGMENT       ?RTX?CODE
  C:3563H         PUBLIC        ?RTX?SET_ISR
  D:000CH         PUBLIC        ?RTX_CURRENTTASK
  D:0007H         PUBLIC        ?RTX_NEXTID
  C:35A6H         PUBLIC        ?RTX_NEXTTASK
  N:00FFH         PUBLIC        ?RTX_RAMTOP
  C:7FF6H         PUBLIC        ?RTX_TASKENTRY
  C:3685H         PUBLIC        ?RTX_TASKIDX
  I:007DH         PUBLIC        ?RTX_TASKSP
  I:0063H         PUBLIC        ?RTX_TASKSTATUS
  C:3649H         PUBLIC        MAIN
  C:358FH         PUBLIC        OS_SWITCH_TASK
  C:3598H         SYMBOL        ?C0001
  C:35A2H         SYMBOL        ?C0003
  C:35A7H         SYMBOL        ?C0005
  C:35C1H         SYMBOL        ?C0007
  C:35C3H         SYMBOL        ?C0009
  C:35CDH         SYMBOL        ?C0011
  C:35FAH         SYMBOL        ?C0012
  C:35E0H         SYMBOL        ?C0013
  C:35E5H         SYMBOL        ?C0015
  C:35F0H         SYMBOL        ?C0016
  N:0000H         SYMBOL        ?RTX51_TINY_KERNAL
  N:F63CH         SYMBOL        ?RTX_CLOCK
  N:0008H         SYMBOL        ?RTX_REGISTERBANK
  D:000DH         SYMBOL        ?RTX_ROBINTIME
  D:000AH         SYMBOL        ?RTX_SAVEACC
  D:000BH         SYMBOL        ?RTX_SAVEPSW
  C:3514H         SYMBOL        ?RTX_STACKERROR
  C:3567H         SYMBOL        ?RTX_TASKSWITCHING
  B:0022H.3       SYMBOL        ?RTX_TS_DELAY
  D:00E0H         SYMBOL        ACC
  D:00F0H         SYMBOL        B
  N:0005H         SYMBOL        B_ACTIVE
  N:0007H         SYMBOL        B_IVL
  N:0007H         SYMBOL        B_RDY
BL51 BANKED LINKER/LOCATER V6.00                                                      08/07/2017  17:31:50  PAGE 125


  N:0004H         SYMBOL        B_READY
  N:0006H         SYMBOL        B_ROBIN
  N:0002H         SYMBOL        B_SIGNAL
  N:0003H         SYMBOL        B_TIMEOUT
  N:0000H         SYMBOL        B_WAITSIG
  N:0001H         SYMBOL        B_WAITTIM
  C:3564H         SYMBOL        CHECKROBINTIME
  C:353EH         SYMBOL        CHECKSTACK
  N:0000H         SYMBOL        CODE_BANKING
  N:0000H         SYMBOL        CPU_IDLE_CODE
  D:0083H         SYMBOL        DPH
  D:0082H         SYMBOL        DPL
  B:00A8H.7       SYMBOL        EA
  B:00A8H.4       SYMBOL        ES
  B:00A8H.1       SYMBOL        ET0
  B:00A8H.3       SYMBOL        ET1
  B:00A8H.0       SYMBOL        EX0
  B:00A8H.2       SYMBOL        EX1
  N:0014H         SYMBOL        FREE_STACK
  C:3518H         SYMBOL        HW_TIMER
  D:00A8H         SYMBOL        IE
  B:0088H.1       SYMBOL        IE0
  B:0088H.3       SYMBOL        IE1
  N:09C4H         SYMBOL        INT_CLOCK
  N:0001H         SYMBOL        INT_REGBANK
  B:0088H.0       SYMBOL        IT0
  B:0088H.2       SYMBOL        IT1
  N:0020H         SYMBOL        K_ACTIVE
  N:0080H         SYMBOL        K_IVL
  N:0080H         SYMBOL        K_RDY
  N:0010H         SYMBOL        K_READY
  N:0040H         SYMBOL        K_ROBIN
  N:0001H         SYMBOL        K_SIG
  N:0002H         SYMBOL        K_TMO
  N:0000H         SYMBOL        LONG_USR_INTR
  C:3652H         SYMBOL        MAIN1
  C:365CH         SYMBOL        MAIN1X
  C:3657H         SYMBOL        MAIN2
  C:361DH         SYMBOL        NOEVENT
  C:3563H         SYMBOL        NOROBINTIMEOUT
  C:355AH         SYMBOL        NOTIMEOUT
  C:3558H         SYMBOL        NOWAITTIMEOUT
  C:358FH         SYMBOL        OS_SWITCH_TASK1
  D:0087H         SYMBOL        PCON
  D:00D0H         SYMBOL        PSW
  N:00FFH         SYMBOL        RAMTOP
  N:0080H         SYMBOL        RDY_EVENT
  C:3629H         SYMBOL        ROBINON
  C:3611H         SYMBOL        SIGNALOFF
  C:361DH         SYMBOL        SIGNALON
  N:0004H         SYMBOL        SIG_EVENT
  D:0081H         SYMBOL        SP
  I:0064H         SYMBOL        TASKSTATE
  D:0088H         SYMBOL        TCON
  B:0088H.5       SYMBOL        TF0
  B:0088H.7       SYMBOL        TF1
  D:008CH         SYMBOL        TH0
BL51 BANKED LINKER/LOCATER V6.00                                                      08/07/2017  17:31:50  PAGE 126


  D:008DH         SYMBOL        TH1
  C:3619H         SYMBOL        TIMEOUTON
  C:3519H         SYMBOL        TIMERINT
  C:354AH         SYMBOL        TIMERLOOP
  I:0063H         SYMBOL        TIMERVAL
  N:000AH         SYMBOL        TIMESHARING
  D:008AH         SYMBOL        TL0
  D:008BH         SYMBOL        TL1
  D:0089H         SYMBOL        TMOD
  N:0008H         SYMBOL        TMO_EVENT
  B:0088H.4       SYMBOL        TR0
  B:0088H.6       SYMBOL        TR1
  C:000BH         LINE#         271
  C:3514H         LINE#         279
  C:3518H         LINE#         282
  C:3519H         LINE#         299
  C:351CH         LINE#         301
  C:351FH         LINE#         302
  C:3522H         LINE#         303
  C:3524H         LINE#         305
  C:3526H         LINE#         306
  C:3528H         LINE#         307
  C:352AH         LINE#         308
  C:352CH         LINE#         309
  C:352EH         LINE#         310
  C:3530H         LINE#         311
  C:3532H         LINE#         312
  C:3534H         LINE#         316
  C:3535H         LINE#         317
  C:3537H         LINE#         318
  C:3538H         LINE#         319
  C:3539H         LINE#         320
  C:353CH         LINE#         321
  C:353EH         LINE#         322
  C:353FH         LINE#         323
  C:3541H         LINE#         324
  C:3544H         LINE#         325
  C:3546H         LINE#         329
  C:3548H         LINE#         330
  C:354AH         LINE#         331
  C:354BH         LINE#         332
  C:354CH         LINE#         333
  C:354DH         LINE#         334
  C:354FH         LINE#         335
  C:3551H         LINE#         336
  C:3552H         LINE#         337
  C:3555H         LINE#         338
  C:3557H         LINE#         339
  C:3558H         LINE#         340
  C:355AH         LINE#         341
  C:355BH         LINE#         342
  C:355DH         LINE#         344
  C:355EH         LINE#         345
  C:3560H         LINE#         360
  C:3563H         LINE#         366
  C:3564H         LINE#         367
  C:3567H         LINE#         370
BL51 BANKED LINKER/LOCATER V6.00                                                      08/07/2017  17:31:50  PAGE 127


  C:3569H         LINE#         371
  C:356BH         LINE#         372
  C:356DH         LINE#         373
  C:356FH         LINE#         374
  C:3571H         LINE#         375
  C:3573H         LINE#         376
  C:3575H         LINE#         377
  C:3577H         LINE#         378
  C:3579H         LINE#         379
  C:357BH         LINE#         380
  C:357DH         LINE#         381
  C:357FH         LINE#         382
  C:3581H         LINE#         387
  C:3583H         LINE#         388
  C:3584H         LINE#         389
  C:3586H         LINE#         390
  C:3587H         LINE#         391
  C:3589H         LINE#         392
  C:358BH         LINE#         393
  C:358CH         LINE#         394
  C:358DH         LINE#         395
  C:358FH         LINE#         424
  C:3591H         LINE#         426
  C:3593H         LINE#         427
  C:3594H         LINE#         429
  C:3595H         LINE#         430
  C:3597H         LINE#         431
  C:3598H         LINE#         434
  C:3599H         LINE#         435
  C:359AH         LINE#         436
  C:359BH         LINE#         444
  C:359EH         LINE#         445
  C:35A0H         LINE#         446
  C:35A2H         LINE#         449
  C:35A3H         LINE#         450
  C:35A6H         LINE#         458
  C:35A7H         LINE#         462
  C:35A9H         LINE#         463
  C:35AAH         LINE#         464
  C:35ABH         LINE#         465
  C:35ADH         LINE#         468
  C:35AFH         LINE#         470
  C:35B1H         LINE#         471
  C:35B3H         LINE#         472
  C:35B4H         LINE#         473
  C:35B5H         LINE#         474
  C:35B6H         LINE#         476
  C:35B8H         LINE#         478
  C:35B9H         LINE#         479
  C:35BAH         LINE#         480
  C:35BCH         LINE#         481
  C:35BFH         LINE#         482
  C:35C1H         LINE#         484
  C:35C2H         LINE#         485
  C:35C3H         LINE#         490
  C:35C4H         LINE#         491
  C:35C5H         LINE#         492
BL51 BANKED LINKER/LOCATER V6.00                                                      08/07/2017  17:31:50  PAGE 128


  C:35C7H         LINE#         496
  C:35C8H         LINE#         497
  C:35C9H         LINE#         498
  C:35CBH         LINE#         499
  C:35CDH         LINE#         505
  C:35CFH         LINE#         506
  C:35D0H         LINE#         507
  C:35D1H         LINE#         508
  C:35D3H         LINE#         510
  C:35D5H         LINE#         511
  C:35D7H         LINE#         512
  C:35D8H         LINE#         513
  C:35D9H         LINE#         516
  C:35DBH         LINE#         517
  C:35DEH         LINE#         518
  C:35E0H         LINE#         520
  C:35E1H         LINE#         522
  C:35E2H         LINE#         523
  C:35E3H         LINE#         524
  C:35E4H         LINE#         525
  C:35E5H         LINE#         529
  C:35E7H         LINE#         530
  C:35E8H         LINE#         531
  C:35EAH         LINE#         535
  C:35ECH         LINE#         536
  C:35EDH         LINE#         537
  C:35EEH         LINE#         539
  C:35F0H         LINE#         543
  C:35F2H         LINE#         544
  C:35F4H         LINE#         545
  C:35F5H         LINE#         546
  C:35F6H         LINE#         548
  C:35F8H         LINE#         549
  C:35FAH         LINE#         555
  C:35FDH         LINE#         559
  C:35FFH         LINE#         560
  C:3600H         LINE#         561
  C:3602H         LINE#         562
  C:3603H         LINE#         563
  C:3605H         LINE#         564
  C:3607H         LINE#         565
  C:3608H         LINE#         567
  C:360BH         LINE#         571
  C:360EH         LINE#         572
  C:3611H         LINE#         576
  C:3613H         LINE#         577
  C:3616H         LINE#         578
  C:3619H         LINE#         580
  C:361BH         LINE#         581
  C:361DH         LINE#         583
  C:361FH         LINE#         584
  C:3620H         LINE#         585
  C:3622H         LINE#         587
  C:3624H         LINE#         588
  C:3626H         LINE#         594
  C:3628H         LINE#         595
  C:3629H         LINE#         608
BL51 BANKED LINKER/LOCATER V6.00                                                      08/07/2017  17:31:50  PAGE 129


  C:362AH         LINE#         609
  C:362CH         LINE#         614
  C:362EH         LINE#         615
  C:3630H         LINE#         616
  C:3632H         LINE#         617
  C:3634H         LINE#         618
  C:3636H         LINE#         619
  C:3638H         LINE#         620
  C:363AH         LINE#         621
  C:363CH         LINE#         622
  C:363EH         LINE#         623
  C:3640H         LINE#         624
  C:3642H         LINE#         625
  C:3644H         LINE#         626
  C:3646H         LINE#         627
  C:3648H         LINE#         628
  C:3649H         LINE#         642
  C:364BH         LINE#         643
  C:364DH         LINE#         644
  C:364FH         LINE#         645
  C:3651H         LINE#         646
  C:3652H         LINE#         647
  C:3653H         LINE#         648
  C:3655H         LINE#         649
  C:3657H         LINE#         650
  C:3659H         LINE#         651
  C:365AH         LINE#         652
  C:365CH         LINE#         653
  C:365DH         LINE#         654
  C:365EH         LINE#         655
  C:365FH         LINE#         656
  C:3660H         LINE#         657
  C:3662H         LINE#         658
  C:3664H         LINE#         659
  C:3666H         LINE#         660
  C:3669H         LINE#         661
  C:366BH         LINE#         662
  C:366CH         LINE#         663
  C:366EH         LINE#         664
  C:366FH         LINE#         665
  C:3670H         LINE#         666
  C:3672H         LINE#         668
  C:3675H         LINE#         670
  C:3678H         LINE#         671
  C:367BH         LINE#         672
  C:367EH         LINE#         673
  C:3680H         LINE#         674
  C:3682H         LINE#         675
  C:3684H         LINE#         676
  -------         ENDMOD        ?RTX51_TINY_KERNAL

  -------         MODULE        ?C?FPADD
  C:0807H         PUBLIC        ?C?FPADD
  C:0803H         PUBLIC        ?C?FPSUB
  -------         ENDMOD        ?C?FPADD

  -------         MODULE        ?C?FPMUL
BL51 BANKED LINKER/LOCATER V6.00                                                      08/07/2017  17:31:50  PAGE 130


  C:08F8H         PUBLIC        ?C?FPMUL
  -------         ENDMOD        ?C?FPMUL

  -------         MODULE        ?C?FPDIV
  C:0A01H         PUBLIC        ?C?FPDIV
  -------         ENDMOD        ?C?FPDIV

  -------         MODULE        ?C?FPCMP
  C:0AA0H         PUBLIC        ?C?FPCMP
  C:0A9EH         PUBLIC        ?C?FPCMP3
  -------         ENDMOD        ?C?FPCMP

  -------         MODULE        ?C?FCAST
  C:0B15H         PUBLIC        ?C?FCASTC
  C:0B10H         PUBLIC        ?C?FCASTI
  C:0B0BH         PUBLIC        ?C?FCASTL
  -------         ENDMOD        ?C?FCAST

  -------         MODULE        ?C?CASTF
  C:0B49H         PUBLIC        ?C?CASTF
  -------         ENDMOD        ?C?CASTF

  -------         MODULE        PRINTF
  X:02C8H         PUBLIC        ?_PRINTF?BYTE
  X:02C8H         PUBLIC        ?_SPRINTF?BYTE
  C:1EDCH         PUBLIC        _PRINTF
  C:1ED6H         PUBLIC        _SPRINTF
  -------         ENDMOD        PRINTF

  -------         MODULE        FABS
  C:83A3H         PUBLIC        _FABS
  -------         ENDMOD        FABS

  -------         MODULE        ?C?FPROUND
  C:0BCAH         PUBLIC        ?C?FPROUND
  -------         ENDMOD        ?C?FPROUND

  -------         MODULE        ?C?FPCONVERT
  C:0C07H         PUBLIC        ?C?FPCONVERT
  -------         ENDMOD        ?C?FPCONVERT

  -------         MODULE        ?C?FTNPWR
  C:0D3CH         PUBLIC        ?C?FTNPWR
  -------         ENDMOD        ?C?FTNPWR

  -------         MODULE        ?C?COPY
  C:0E4CH         PUBLIC        ?C?COPY
  -------         ENDMOD        ?C?COPY

  -------         MODULE        ?C?CLDPTR
  C:0E72H         PUBLIC        ?C?CLDPTR
  -------         ENDMOD        ?C?CLDPTR

  -------         MODULE        ?C?CLDOPTR
  C:0E8BH         PUBLIC        ?C?CLDOPTR
  -------         ENDMOD        ?C?CLDOPTR

BL51 BANKED LINKER/LOCATER V6.00                                                      08/07/2017  17:31:50  PAGE 131


  -------         MODULE        ?C?CSTPTR
  C:0EB8H         PUBLIC        ?C?CSTPTR
  -------         ENDMOD        ?C?CSTPTR

  -------         MODULE        ?C?CSTOPTR
  C:0ECAH         PUBLIC        ?C?CSTOPTR
  -------         ENDMOD        ?C?CSTOPTR

  -------         MODULE        ?C?IMUL
  C:0EECH         PUBLIC        ?C?IMUL
  -------         ENDMOD        ?C?IMUL

  -------         MODULE        ?C?UIDIV
  C:0EFEH         PUBLIC        ?C?UIDIV
  -------         ENDMOD        ?C?UIDIV

  -------         MODULE        ?C?IILDX
  C:0F53H         PUBLIC        ?C?IILDX
  -------         ENDMOD        ?C?IILDX

  -------         MODULE        ?C?ILDIX
  C:0F69H         PUBLIC        ?C?ILDIX
  -------         ENDMOD        ?C?ILDIX

  -------         MODULE        ?C?ILDPTR
  C:0F7FH         PUBLIC        ?C?ILDPTR
  -------         ENDMOD        ?C?ILDPTR

  -------         MODULE        ?C?ILDOPTR
  C:0FAAH         PUBLIC        ?C?ILDOPTR
  -------         ENDMOD        ?C?ILDOPTR

  -------         MODULE        ?C?LMUL
  C:0FE2H         PUBLIC        ?C?LMUL
  -------         ENDMOD        ?C?LMUL

  -------         MODULE        ?C?ULDIV
  C:106DH         PUBLIC        ?C?ULDIV
  -------         ENDMOD        ?C?ULDIV

  -------         MODULE        ?C?SLDIV
  C:7194H         PUBLIC        ?C?SLDIV
  -------         ENDMOD        ?C?SLDIV

  -------         MODULE        ?C?LNEG
  C:10FFH         PUBLIC        ?C?LNEG
  -------         ENDMOD        ?C?LNEG

  -------         MODULE        ?C?ULCMP
  C:110DH         PUBLIC        ?C?ULCMP
  -------         ENDMOD        ?C?ULCMP

  -------         MODULE        ?C?ULSHR
  C:111EH         PUBLIC        ?C?ULSHR
  -------         ENDMOD        ?C?ULSHR

  -------         MODULE        ?C?LLDPTR
BL51 BANKED LINKER/LOCATER V6.00                                                      08/07/2017  17:31:50  PAGE 132


  C:1131H         PUBLIC        ?C?LLDPTR
  -------         ENDMOD        ?C?LLDPTR

  -------         MODULE        ?C?LLDOPTR
  C:1151H         PUBLIC        ?C?LLDOPTR
  -------         ENDMOD        ?C?LLDOPTR

  -------         MODULE        ?C?LLDOPTR0
  C:1181H         PUBLIC        ?C?LLDOPTR0
  -------         ENDMOD        ?C?LLDOPTR0

  -------         MODULE        ?C?LSTXDATA
  C:11B1H         PUBLIC        ?C?LSTXDATA
  -------         ENDMOD        ?C?LSTXDATA

  -------         MODULE        ?C?LSTKXDATA
  C:11BDH         PUBLIC        ?C?LSTKXDATA
  -------         ENDMOD        ?C?LSTKXDATA

  -------         MODULE        ?C?OFFXADD
  C:11EEH         PUBLIC        ?C?OFFXADD
  -------         ENDMOD        ?C?OFFXADD

  -------         MODULE        ?C?PLDIXDATA
  C:11FAH         PUBLIC        ?C?PLDIXDATA
  -------         ENDMOD        ?C?PLDIXDATA

  -------         MODULE        ?C?PSTXDATA
  C:1211H         PUBLIC        ?C?PSTXDATA
  -------         ENDMOD        ?C?PSTXDATA

  -------         MODULE        ?C?PLDPTR
  C:121AH         PUBLIC        ?C?PLDPTR
  -------         ENDMOD        ?C?PLDPTR

  -------         MODULE        ?C?CCASE
  C:123AH         PUBLIC        ?C?CCASE
  -------         ENDMOD        ?C?CCASE

  -------         MODULE        ?C?ICALL
  C:1260H         PUBLIC        ?C?ICALL
  C:1264H         PUBLIC        ?C?ICALL2
  -------         ENDMOD        ?C?ICALL

  -------         MODULE        PUTCHAR
  C:78D8H         PUBLIC        _PUTCHAR
  -------         ENDMOD        PUTCHAR

  -------         MODULE        ABS
  C:83BCH         PUBLIC        _ABS
  -------         ENDMOD        ABS

  -------         MODULE        MALLOC
  C:56CFH         PUBLIC        _malloc
  -------         ENDMOD        MALLOC

  -------         MODULE        FREE
BL51 BANKED LINKER/LOCATER V6.00                                                      08/07/2017  17:31:50  PAGE 133


  C:4EFFH         PUBLIC        _free
  -------         ENDMOD        FREE

  -------         MODULE        ?C?LLDIDATA
  C:1266H         PUBLIC        ?C?LLDIDATA
  -------         ENDMOD        ?C?LLDIDATA

  -------         MODULE        ?C?LLDXDATA
  C:1272H         PUBLIC        ?C?LLDXDATA
  -------         ENDMOD        ?C?LLDXDATA

  -------         MODULE        ?C?LLDPDATA
  C:127EH         PUBLIC        ?C?LLDPDATA
  -------         ENDMOD        ?C?LLDPDATA

  -------         MODULE        ?C?LLDCODE
  C:128AH         PUBLIC        ?C?LLDCODE
  -------         ENDMOD        ?C?LLDCODE

  -------         MODULE        ?C?LLDIDATA0
  C:129AH         PUBLIC        ?C?LLDIDATA0
  -------         ENDMOD        ?C?LLDIDATA0

  -------         MODULE        ?C?LLDXDATA0
  C:12A7H         PUBLIC        ?C?LLDXDATA0
  -------         ENDMOD        ?C?LLDXDATA0

  -------         MODULE        ?C?LLDPDATA0
  C:12B3H         PUBLIC        ?C?LLDPDATA0
  -------         ENDMOD        ?C?LLDPDATA0

  -------         MODULE        ?C?LLDCODE0
  C:12C0H         PUBLIC        ?C?LLDCODE0
  -------         ENDMOD        ?C?LLDCODE0

  -------         MODULE        ?C?PLDIDATA
  C:12D0H         PUBLIC        ?C?PLDIDATA
  -------         ENDMOD        ?C?PLDIDATA

  -------         MODULE        ?C?PLDXDATA
  C:12D9H         PUBLIC        ?C?PLDXDATA
  -------         ENDMOD        ?C?PLDXDATA

  -------         MODULE        ?C?PLDPDATA
  C:12E2H         PUBLIC        ?C?PLDPDATA
  -------         ENDMOD        ?C?PLDPDATA

  -------         MODULE        ?C?PLDCODE
  C:12EBH         PUBLIC        ?C?PLDCODE
  -------         ENDMOD        ?C?PLDCODE

  -------         MODULE        INIT_MEM
  X:09CEH         PUBLIC        __mem_avail__
  C:7390H         PUBLIC        _init_mempool
  -------         ENDMOD        INIT_MEM

*** WARNING L16: UNCALLED SEGMENT, IGNORED FOR OVERLAY PROCESS
BL51 BANKED LINKER/LOCATER V6.00                                                      08/07/2017  17:31:50  PAGE 134


    SEGMENT: ?PR?TEST?SETUP

*** WARNING L16: UNCALLED SEGMENT, IGNORED FOR OVERLAY PROCESS
    SEGMENT: ?PR?MODE1?MODE

*** WARNING L16: UNCALLED SEGMENT, IGNORED FOR OVERLAY PROCESS
    SEGMENT: ?PR?MODE2?MODE

*** WARNING L16: UNCALLED SEGMENT, IGNORED FOR OVERLAY PROCESS
    SEGMENT: ?PR?MODE3?MODE

*** WARNING L16: UNCALLED SEGMENT, IGNORED FOR OVERLAY PROCESS
    SEGMENT: ?PR?MODE4?MODE

*** WARNING L16: UNCALLED SEGMENT, IGNORED FOR OVERLAY PROCESS
    SEGMENT: ?PR?MODELAUNCHER?MODE

*** WARNING L16: UNCALLED SEGMENT, IGNORED FOR OVERLAY PROCESS
    SEGMENT: ?PR?_PID_CONFIG?PID

*** WARNING L16: UNCALLED SEGMENT, IGNORED FOR OVERLAY PROCESS
    SEGMENT: ?PR?_OPENPID?PID

*** WARNING L16: UNCALLED SEGMENT, IGNORED FOR OVERLAY PROCESS
    SEGMENT: ?PR?_CLOSEPID?PID

*** WARNING L16: UNCALLED SEGMENT, IGNORED FOR OVERLAY PROCESS
    SEGMENT: ?PR?_SETPARAMETERINFERIORLIMIT?PID

*** WARNING L16: UNCALLED SEGMENT, IGNORED FOR OVERLAY PROCESS
    SEGMENT: ?PR?_SETPARAMETERUPPERLIMIT?PID

*** WARNING L16: UNCALLED SEGMENT, IGNORED FOR OVERLAY PROCESS
    SEGMENT: ?PR?_SETACTUALPARAMETER?PID

*** WARNING L16: UNCALLED SEGMENT, IGNORED FOR OVERLAY PROCESS
    SEGMENT: ?PR?_SETKI?PID

*** WARNING L16: UNCALLED SEGMENT, IGNORED FOR OVERLAY PROCESS
    SEGMENT: ?PR?_SETKP?PID

*** WARNING L16: UNCALLED SEGMENT, IGNORED FOR OVERLAY PROCESS
    SEGMENT: ?PR?_SETKD?PID

*** WARNING L16: UNCALLED SEGMENT, IGNORED FOR OVERLAY PROCESS
    SEGMENT: ?PR?_SETPARAMETER?PID

*** WARNING L16: UNCALLED SEGMENT, IGNORED FOR OVERLAY PROCESS
    SEGMENT: ?PR?_GETPARAMETER?PID

*** WARNING L16: UNCALLED SEGMENT, IGNORED FOR OVERLAY PROCESS
    SEGMENT: ?PR?_GETERR?PID

*** WARNING L16: UNCALLED SEGMENT, IGNORED FOR OVERLAY PROCESS
    SEGMENT: ?PR?_GETERRLAST?PID

*** WARNING L16: UNCALLED SEGMENT, IGNORED FOR OVERLAY PROCESS
BL51 BANKED LINKER/LOCATER V6.00                                                      08/07/2017  17:31:50  PAGE 135


    SEGMENT: ?PR?_GETKP?PID

*** WARNING L16: UNCALLED SEGMENT, IGNORED FOR OVERLAY PROCESS
    SEGMENT: ?PR?_GETKI?PID

*** WARNING L16: UNCALLED SEGMENT, IGNORED FOR OVERLAY PROCESS
    SEGMENT: ?PR?_GETKD?PID

*** WARNING L16: UNCALLED SEGMENT, IGNORED FOR OVERLAY PROCESS
    SEGMENT: ?PR?_GETOUTPUT?PID

*** WARNING L16: UNCALLED SEGMENT, IGNORED FOR OVERLAY PROCESS
    SEGMENT: ?PR?_GETINTEGRAL?PID

*** WARNING L16: UNCALLED SEGMENT, IGNORED FOR OVERLAY PROCESS
    SEGMENT: ?PR?_SETMAXERROR?PID

*** WARNING L16: UNCALLED SEGMENT, IGNORED FOR OVERLAY PROCESS
    SEGMENT: ?PR?_POSCLASSPID?PID

*** WARNING L16: UNCALLED SEGMENT, IGNORED FOR OVERLAY PROCESS
    SEGMENT: ?PR?_INCCLASSPID?PID

*** WARNING L16: UNCALLED SEGMENT, IGNORED FOR OVERLAY PROCESS
    SEGMENT: ?PR?_LCD_CLR_ROW?LCD5510_V2

*** WARNING L16: UNCALLED SEGMENT, IGNORED FOR OVERLAY PROCESS
    SEGMENT: ?PR?_LCD_PRINTS?LCD5510_V2

*** WARNING L16: UNCALLED SEGMENT, IGNORED FOR OVERLAY PROCESS
    SEGMENT: ?PR?_LCD_PRINTNUM_F?LCD5510_V2

*** WARNING L16: UNCALLED SEGMENT, IGNORED FOR OVERLAY PROCESS
    SEGMENT: ?PR?GETBOARD_LED_STATE?LED

*** WARNING L16: UNCALLED SEGMENT, IGNORED FOR OVERLAY PROCESS
    SEGMENT: ?PR?_BOARD_LED_PWM?LED

*** WARNING L16: UNCALLED SEGMENT, IGNORED FOR OVERLAY PROCESS
    SEGMENT: ?PR?_SETDC_MOTORSPEED?MOTOR

*** WARNING L16: UNCALLED SEGMENT, IGNORED FOR OVERLAY PROCESS
    SEGMENT: ?PR?_OPEN_DC_MOTOR?MOTOR

*** WARNING L16: UNCALLED SEGMENT, IGNORED FOR OVERLAY PROCESS
    SEGMENT: ?PR?_CLOSE_DC_MOTOR?MOTOR

*** WARNING L16: UNCALLED SEGMENT, IGNORED FOR OVERLAY PROCESS
    SEGMENT: ?PR?_GETDC_MOTORSTATE?MOTOR

*** WARNING L16: UNCALLED SEGMENT, IGNORED FOR OVERLAY PROCESS
    SEGMENT: ?PR?DC_MOTOR_CONFIG?MOTOR

*** WARNING L16: UNCALLED SEGMENT, IGNORED FOR OVERLAY PROCESS
    SEGMENT: ?PR?_INIT_STR_MOTOR?SERVO

*** WARNING L16: UNCALLED SEGMENT, IGNORED FOR OVERLAY PROCESS
BL51 BANKED LINKER/LOCATER V6.00                                                      08/07/2017  17:31:50  PAGE 136


    SEGMENT: ?PR?_SET_STR_ANGLE?SERVO

*** WARNING L16: UNCALLED SEGMENT, IGNORED FOR OVERLAY PROCESS
    SEGMENT: ?PR?_READ_STR_ANGLE?SERVO

*** WARNING L16: UNCALLED SEGMENT, IGNORED FOR OVERLAY PROCESS
    SEGMENT: ?PR?_OPEN_STR?SERVO

*** WARNING L16: UNCALLED SEGMENT, IGNORED FOR OVERLAY PROCESS
    SEGMENT: ?PR?_CLOSE_STR?SERVO

*** WARNING L16: UNCALLED SEGMENT, IGNORED FOR OVERLAY PROCESS
    SEGMENT: ?PR?_SETSTEPMOTORWITHDISTANCE?STEP_MOTOR

*** WARNING L16: UNCALLED SEGMENT, IGNORED FOR OVERLAY PROCESS
    SEGMENT: ?PR?_SETSTEPMOTORWITHROUND?STEP_MOTOR

*** WARNING L16: UNCALLED SEGMENT, IGNORED FOR OVERLAY PROCESS
    SEGMENT: ?PR?_SETSTEPMOTORSTATE?STEP_MOTOR

*** WARNING L16: UNCALLED SEGMENT, IGNORED FOR OVERLAY PROCESS
    SEGMENT: ?PR?_GETSTEPMOTORSTATE?STEP_MOTOR

*** WARNING L16: UNCALLED SEGMENT, IGNORED FOR OVERLAY PROCESS
    SEGMENT: ?PR?_SETSTEPMOTORDIVERSION?STEP_MOTOR

*** WARNING L16: UNCALLED SEGMENT, IGNORED FOR OVERLAY PROCESS
    SEGMENT: ?PR?_CLOSE_STEPMOTOR?STEP_MOTOR

*** WARNING L16: UNCALLED SEGMENT, IGNORED FOR OVERLAY PROCESS
    SEGMENT: ?PR?_OPEN_STEPMOTOR?STEP_MOTOR

*** WARNING L16: UNCALLED SEGMENT, IGNORED FOR OVERLAY PROCESS
    SEGMENT: ?PR?_FREESTEPMOTOR?STEP_MOTOR

*** WARNING L16: UNCALLED SEGMENT, IGNORED FOR OVERLAY PROCESS
    SEGMENT: ?PR?_LOCKSTEPMOTOR?STEP_MOTOR

*** WARNING L16: UNCALLED SEGMENT, IGNORED FOR OVERLAY PROCESS
    SEGMENT: ?PR?_STEPMOTOR_INIT?STEP_MOTOR

*** WARNING L16: UNCALLED SEGMENT, IGNORED FOR OVERLAY PROCESS
    SEGMENT: ?PR?GETANGLE?ANGLE

*** WARNING L16: UNCALLED SEGMENT, IGNORED FOR OVERLAY PROCESS
    SEGMENT: ?PR?_SETSPEAKERPERIOD?SPEAKER

*** WARNING L16: UNCALLED SEGMENT, IGNORED FOR OVERLAY PROCESS
    SEGMENT: ?PR?_SETLENGTH?SPEAKER

*** WARNING L16: UNCALLED SEGMENT, IGNORED FOR OVERLAY PROCESS
    SEGMENT: ?PR?_OPEN_SPEAKER?SPEAKER

*** WARNING L16: UNCALLED SEGMENT, IGNORED FOR OVERLAY PROCESS
    SEGMENT: ?PR?_CLOSE_SPEAKER?SPEAKER

*** WARNING L16: UNCALLED SEGMENT, IGNORED FOR OVERLAY PROCESS
BL51 BANKED LINKER/LOCATER V6.00                                                      08/07/2017  17:31:50  PAGE 137


    SEGMENT: ?PR?_GETPULSERSTATE?FIXEDPULSER

*** WARNING L16: UNCALLED SEGMENT, IGNORED FOR OVERLAY PROCESS
    SEGMENT: ?PR?SETCARFORWARD?MT_1_L298N

*** WARNING L16: UNCALLED SEGMENT, IGNORED FOR OVERLAY PROCESS
    SEGMENT: ?PR?SETCARBACK?MT_1_L298N

*** WARNING L16: UNCALLED SEGMENT, IGNORED FOR OVERLAY PROCESS
    SEGMENT: ?PR?SETCARSTOP?MT_1_L298N

*** WARNING L16: UNCALLED SEGMENT, IGNORED FOR OVERLAY PROCESS
    SEGMENT: ?PR?SETCARRIGHTFORWARD?MT_1_L298N

*** WARNING L16: UNCALLED SEGMENT, IGNORED FOR OVERLAY PROCESS
    SEGMENT: ?PR?SETCARRIGHTBACK?MT_1_L298N

*** WARNING L16: UNCALLED SEGMENT, IGNORED FOR OVERLAY PROCESS
    SEGMENT: ?PR?SETCARRIGHTTURN?MT_1_L298N

*** WARNING L16: UNCALLED SEGMENT, IGNORED FOR OVERLAY PROCESS
    SEGMENT: ?PR?SETCARLEFTFORWARD?MT_1_L298N

*** WARNING L16: UNCALLED SEGMENT, IGNORED FOR OVERLAY PROCESS
    SEGMENT: ?PR?SETCARLEFTBACK?MT_1_L298N

*** WARNING L16: UNCALLED SEGMENT, IGNORED FOR OVERLAY PROCESS
    SEGMENT: ?PR?SETCARLEFTTURN?MT_1_L298N

*** WARNING L16: UNCALLED SEGMENT, IGNORED FOR OVERLAY PROCESS
    SEGMENT: ?PR?_INITJY901?MPU9250_SBUF

*** WARNING L16: UNCALLED SEGMENT, IGNORED FOR OVERLAY PROCESS
    SEGMENT: ?PR?_ENABLEJY901?MPU9250_SBUF

*** WARNING L16: UNCALLED SEGMENT, IGNORED FOR OVERLAY PROCESS
    SEGMENT: ?PR?_DISABLEJY901?MPU9250_SBUF

*** WARNING L16: UNCALLED SEGMENT, IGNORED FOR OVERLAY PROCESS
    SEGMENT: ?PR?_OPENJY901SBUFMODE?MPU9250_SBUF

*** WARNING L16: UNCALLED SEGMENT, IGNORED FOR OVERLAY PROCESS
    SEGMENT: ?PR?_CLOSEJY901SBUFMODE?MPU9250_SBUF

*** WARNING L16: UNCALLED SEGMENT, IGNORED FOR OVERLAY PROCESS
    SEGMENT: ?PR?_GETJY901ACCELERATION?MPU9250_SBUF

*** WARNING L16: UNCALLED SEGMENT, IGNORED FOR OVERLAY PROCESS
    SEGMENT: ?PR?_GETJY901PALSTANCE?MPU9250_SBUF

*** WARNING L16: UNCALLED SEGMENT, IGNORED FOR OVERLAY PROCESS
    SEGMENT: ?PR?_GETJY901MAGNETIC?MPU9250_SBUF

*** WARNING L16: UNCALLED SEGMENT, IGNORED FOR OVERLAY PROCESS
    SEGMENT: ?PR?RELAY_INIT?RELAY

*** WARNING L16: UNCALLED SEGMENT, IGNORED FOR OVERLAY PROCESS
BL51 BANKED LINKER/LOCATER V6.00                                                      08/07/2017  17:31:50  PAGE 138


    SEGMENT: ?PR?_OPENRELAYMODULAR?RELAY

*** WARNING L16: UNCALLED SEGMENT, IGNORED FOR OVERLAY PROCESS
    SEGMENT: ?PR?_CLOSERELAYMODULAR?RELAY

*** WARNING L16: UNCALLED SEGMENT, IGNORED FOR OVERLAY PROCESS
    SEGMENT: ?PR?_OPENRELAYKEY?RELAY

*** WARNING L16: UNCALLED SEGMENT, IGNORED FOR OVERLAY PROCESS
    SEGMENT: ?PR?_CLOSERELAYKEY?RELAY

*** WARNING L16: UNCALLED SEGMENT, IGNORED FOR OVERLAY PROCESS
    SEGMENT: ?PR?_TM1638LEDDISPLAY?TM1638

*** WARNING L16: UNCALLED SEGMENT, IGNORED FOR OVERLAY PROCESS
    SEGMENT: ?PR?CLOSETM1638DISPLAY?TM1638

*** WARNING L16: UNCALLED SEGMENT, IGNORED FOR OVERLAY PROCESS
    SEGMENT: ?PR?_CLOSE_ADS1115?ADS1115

*** WARNING L16: UNCALLED SEGMENT, IGNORED FOR OVERLAY PROCESS
    SEGMENT: ?PR?_HC595_INIT?74HC595

*** WARNING L16: UNCALLED SEGMENT, IGNORED FOR OVERLAY PROCESS
    SEGMENT: ?PR?_HC595SENDDATA?74HC595

*** WARNING L16: UNCALLED SEGMENT, IGNORED FOR OVERLAY PROCESS
    SEGMENT: ?PR?DS1302_WRITE_TIME?DS1302

*** WARNING L16: UNCALLED SEGMENT, IGNORED FOR OVERLAY PROCESS
    SEGMENT: ?PR?_CLOSE_HC_SR04?HC_SR04

*** WARNING L16: UNCALLED SEGMENT, IGNORED FOR OVERLAY PROCESS
    SEGMENT: ?PR?_GETHC_SR04_STATE?HC_SR04

*** WARNING L16: UNCALLED SEGMENT, IGNORED FOR OVERLAY PROCESS
    SEGMENT: ?PR?_SETTIMERVALUE?HC_SR04

*** WARNING L16: UNCALLED SEGMENT, IGNORED FOR OVERLAY PROCESS
    SEGMENT: ?PR?_ADC_POWERCONTROL?ADC

*** WARNING L16: UNCALLED SEGMENT, IGNORED FOR OVERLAY PROCESS
    SEGMENT: ?PR?_EEPROM_READ_N?STC15_EEPROM

*** WARNING L16: UNCALLED SEGMENT, IGNORED FOR OVERLAY PROCESS
    SEGMENT: ?PR?_EEPROM_SECTORERASE?STC15_EEPROM

*** WARNING L16: UNCALLED SEGMENT, IGNORED FOR OVERLAY PROCESS
    SEGMENT: ?PR?_EEPROM_WRITE_N?STC15_EEPROM

*** WARNING L16: UNCALLED SEGMENT, IGNORED FOR OVERLAY PROCESS
    SEGMENT: ?PR?_SETPINSTATE?GPIO

*** WARNING L16: UNCALLED SEGMENT, IGNORED FOR OVERLAY PROCESS
    SEGMENT: ?PR?_IIC_WRDATTOADD?STC15_IIC

*** WARNING L16: UNCALLED SEGMENT, IGNORED FOR OVERLAY PROCESS
BL51 BANKED LINKER/LOCATER V6.00                                                      08/07/2017  17:31:50  PAGE 139


    SEGMENT: ?PR?_IIC_RDDATFROMADD?STC15_IIC

*** WARNING L16: UNCALLED SEGMENT, IGNORED FOR OVERLAY PROCESS
    SEGMENT: ?PR?_PWMN_UPDATE?PCA

*** WARNING L16: UNCALLED SEGMENT, IGNORED FOR OVERLAY PROCESS
    SEGMENT: ?PR?_PCA_INIT?PCA

*** WARNING L16: UNCALLED SEGMENT, IGNORED FOR OVERLAY PROCESS
    SEGMENT: ?PR?_PWMOUTPUT?PCA

*** WARNING L16: UNCALLED SEGMENT, IGNORED FOR OVERLAY PROCESS
    SEGMENT: ?PR?_GET_PWM_PERIOD?STC15_PWM

*** WARNING L16: UNCALLED SEGMENT, IGNORED FOR OVERLAY PROCESS
    SEGMENT: ?PR?_GET_PWM_N_DUTY?STC15_PWM

*** WARNING L16: UNCALLED SEGMENT, IGNORED FOR OVERLAY PROCESS
    SEGMENT: ?PR?_GETPWM_DIV?STC15_PWM

*** WARNING L16: UNCALLED SEGMENT, IGNORED FOR OVERLAY PROCESS
    SEGMENT: ?PR?OPEN_PWM_ALL?STC15_PWM

*** WARNING L16: UNCALLED SEGMENT, IGNORED FOR OVERLAY PROCESS
    SEGMENT: ?PR?CLOSE_PWM_ALL?STC15_PWM

*** WARNING L16: UNCALLED SEGMENT, IGNORED FOR OVERLAY PROCESS
    SEGMENT: ?PR?_GET_PWM_N_STATE?STC15_PWM

*** WARNING L16: UNCALLED SEGMENT, IGNORED FOR OVERLAY PROCESS
    SEGMENT: ?PR?_SPI_INIT?STC15_SPI

*** WARNING L16: UNCALLED SEGMENT, IGNORED FOR OVERLAY PROCESS
    SEGMENT: ?PR?_SPI_WRITENBYTETOTXBUF?STC15_SPI

*** WARNING L16: UNCALLED SEGMENT, IGNORED FOR OVERLAY PROCESS
    SEGMENT: ?PR?SPI_TRIGTX?STC15_SPI

*** WARNING L16: UNCALLED SEGMENT, IGNORED FOR OVERLAY PROCESS
    SEGMENT: ?PR?_SPI_SPI_READTHENBYTETORXBUF?STC15_SPI

*** WARNING L16: UNCALLED SEGMENT, IGNORED FOR OVERLAY PROCESS
    SEGMENT: ?PR?_SETTIMEOUT?TIMER

*** WARNING L16: UNCALLED SEGMENT, IGNORED FOR OVERLAY PROCESS
    SEGMENT: ?PR?_GETTIMEROUT?TIMER

*** WARNING L16: UNCALLED SEGMENT, IGNORED FOR OVERLAY PROCESS
    SEGMENT: ?PR?_SETTIMERHERTZ?TIMER

*** WARNING L16: UNCALLED SEGMENT, IGNORED FOR OVERLAY PROCESS
    SEGMENT: ?PR?_GETTIMERHERTZ?TIMER

*** WARNING L16: UNCALLED SEGMENT, IGNORED FOR OVERLAY PROCESS
    SEGMENT: ?PR?_STOPTIMER?TIMER

*** WARNING L16: UNCALLED SEGMENT, IGNORED FOR OVERLAY PROCESS
BL51 BANKED LINKER/LOCATER V6.00                                                      08/07/2017  17:31:50  PAGE 140


    SEGMENT: ?PR?_ISSTOPPED?TIMER

*** WARNING L16: UNCALLED SEGMENT, IGNORED FOR OVERLAY PROCESS
    SEGMENT: ?PR?_ONRESTARTTIMER?TIMER

*** WARNING L16: UNCALLED SEGMENT, IGNORED FOR OVERLAY PROCESS
    SEGMENT: ?PR?GETMICROS?TIMER

*** WARNING L16: UNCALLED SEGMENT, IGNORED FOR OVERLAY PROCESS
    SEGMENT: ?PR?GETMILLIS?TIMER

*** WARNING L16: UNCALLED SEGMENT, IGNORED FOR OVERLAY PROCESS
    SEGMENT: ?PR?GETSECONDS?TIMER

*** WARNING L16: UNCALLED SEGMENT, IGNORED FOR OVERLAY PROCESS
    SEGMENT: ?PR?GETMINUTES?TIMER

*** WARNING L16: UNCALLED SEGMENT, IGNORED FOR OVERLAY PROCESS
    SEGMENT: ?PR?GETHOURS?TIMER

*** WARNING L16: UNCALLED SEGMENT, IGNORED FOR OVERLAY PROCESS
    SEGMENT: ?PR?GETDAYS?TIMER

*** WARNING L16: UNCALLED SEGMENT, IGNORED FOR OVERLAY PROCESS
    SEGMENT: ?PR?_PRINTSTRING2?USART1

*** WARNING L16: UNCALLED SEGMENT, IGNORED FOR OVERLAY PROCESS
    SEGMENT: ?PR?_PRINTSTRING3?USART1

*** WARNING L16: UNCALLED SEGMENT, IGNORED FOR OVERLAY PROCESS
    SEGMENT: ?PR?_PRINTSTRING4?USART1

*** WARNING L16: UNCALLED SEGMENT, IGNORED FOR OVERLAY PROCESS
    SEGMENT: ?PR?_INIT_MEMPOOL?INIT_MEM

*** WARNING L15: MULTIPLE CALL TO SEGMENT
    SEGMENT: ?PR?_LCD_PRINTSL?LCD5510_V2
    CALLER1: ?PR?TASKSTART?ABSTASK
    CALLER2: ?PR?DATAUPDATE?ABSTASK

*** WARNING L15: MULTIPLE CALL TO SEGMENT
    SEGMENT: ?PR?_DATASCOPE_GET_CHANNEL_DATA?DATASCOPE_DP
    CALLER1: ?PR?PRINTANGLEDATA?ABSTASK
    CALLER2: ?PR?PRINTADS1115?ABSTASK

*** WARNING L15: MULTIPLE CALL TO SEGMENT
    SEGMENT: ?PR?_FLOAT2BYTE?DATASCOPE_DP
    CALLER1: ?PR?PRINTANGLEDATA?ABSTASK
    CALLER2: ?PR?PRINTADS1115?ABSTASK

*** WARNING L15: MULTIPLE CALL TO SEGMENT
    SEGMENT: ?PR?_SENDSCOPEDATA?DATASCOPE_DP
    CALLER1: ?PR?PRINTANGLEDATA?ABSTASK
    CALLER2: ?PR?PRINTADS1115?ABSTASK

*** WARNING L15: MULTIPLE CALL TO SEGMENT
    SEGMENT: ?PR?_BUZZ?SPEAKER
BL51 BANKED LINKER/LOCATER V6.00                                                      08/07/2017  17:31:50  PAGE 141


    CALLER1: ?PR?TASKSTART?ABSTASK
    CALLER2: ?PR?BUZZ?ABSTASK

*** WARNING L15: MULTIPLE CALL TO SEGMENT
    SEGMENT: ?PR?_SETPULSE?FIXEDPULSER
    CALLER1: ?PR?TASKSTART?ABSTASK
    CALLER2: ?PR?BUZZ?ABSTASK

*** WARNING L15: MULTIPLE CALL TO SEGMENT
    SEGMENT: ?PR?_SETTM1638WRITE?TM1638
    CALLER1: ?PR?TASKSTART?ABSTASK
    CALLER2: ?PR?ABUTTONSCAN?ABSTASK

*** WARNING L15: MULTIPLE CALL TO SEGMENT
    SEGMENT: ?PR?_LCD_PRINTSL?LCD5510_V2
    CALLER1: ?PR?DATAUPDATE?ABSTASK
    CALLER2: ?PR?PRINTFBUTTON?ABSTASK

*** WARNING L15: MULTIPLE CALL TO SEGMENT
    SEGMENT: ?PR?_DATASCOPE_GET_CHANNEL_DATA?DATASCOPE_DP
    CALLER1: ?PR?PRINTADS1115?ABSTASK
    CALLER2: ?PR?PRINTDISTANCE?ABSTASK

*** WARNING L15: MULTIPLE CALL TO SEGMENT
    SEGMENT: ?PR?_FLOAT2BYTE?DATASCOPE_DP
    CALLER1: ?PR?PRINTADS1115?ABSTASK
    CALLER2: ?PR?PRINTDISTANCE?ABSTASK

*** WARNING L15: MULTIPLE CALL TO SEGMENT
    SEGMENT: ?PR?_SENDSCOPEDATA?DATASCOPE_DP
    CALLER1: ?PR?PRINTADS1115?ABSTASK
    CALLER2: ?PR?PRINTDISTANCE?ABSTASK

*** WARNING L15: MULTIPLE CALL TO SEGMENT
    SEGMENT: ?PR?_DATASCOPE_GET_CHANNEL_DATA?DATASCOPE_DP
    CALLER1: ?PR?PRINTDISTANCE?ABSTASK
    CALLER2: ?PR?DISTANCE?ABSTASK

*** WARNING L15: MULTIPLE CALL TO SEGMENT
    SEGMENT: ?PR?_FLOAT2BYTE?DATASCOPE_DP
    CALLER1: ?PR?PRINTDISTANCE?ABSTASK
    CALLER2: ?PR?DISTANCE?ABSTASK

*** WARNING L15: MULTIPLE CALL TO SEGMENT
    SEGMENT: ?PR?_SENDSCOPEDATA?DATASCOPE_DP
    CALLER1: ?PR?PRINTDISTANCE?ABSTASK
    CALLER2: ?PR?DISTANCE?ABSTASK

*** WARNING L15: MULTIPLE CALL TO SEGMENT
    SEGMENT: ?PR?GETBUTTONNUM?TM1638
    CALLER1: ?PR?ABUTTONSCAN?ABSTASK
    CALLER2: ?PR?BUTTONSOUND?ABSTASK

*** WARNING L15: MULTIPLE CALL TO SEGMENT
    SEGMENT: ?PR?_SETTM1638WRITE?TM1638
    CALLER1: ?PR?ABUTTONSCAN?ABSTASK
    CALLER2: ?PR?BUTTONSOUND?ABSTASK
BL51 BANKED LINKER/LOCATER V6.00                                                      08/07/2017  17:31:50  PAGE 142



*** WARNING L15: MULTIPLE CALL TO SEGMENT
    SEGMENT: ?PR?GETTM1638READ?TM1638
    CALLER1: ?PR?ABUTTONSCAN?ABSTASK
    CALLER2: ?PR?BUTTONSOUND?ABSTASK

*** WARNING L15: MULTIPLE CALL TO SEGMENT
    SEGMENT: ?PR?_BUZZ?SPEAKER
    CALLER1: ?PR?BUZZ?ABSTASK
    CALLER2: ?PR?BUTTONSOUND?ABSTASK

*** WARNING L15: MULTIPLE CALL TO SEGMENT
    SEGMENT: ?PR?_SETPULSE?FIXEDPULSER
    CALLER1: ?PR?BUZZ?ABSTASK
    CALLER2: ?PR?BUTTONSOUND?ABSTASK

******************************************************************************
* RESTRICTED VERSION WITH FFFFH BYTE CODE SIZE LIMIT; USED: 6891H BYTE (40%) *
******************************************************************************

Program Size: data=133.4 xdata=2681 code=32000
LINK/LOCATE RUN COMPLETE.  145 WARNING(S),  0 ERROR(S)
