BL51 BANKED LINKER/LOCATER V6.00                                                        07/28/2017  09:58:56  PAGE 1


BL51 BANKED LINKER/LOCATER V6.00, INVOKED BY:
C:\KEIL_V5\C51\BIN\BL51.EXE .\absTask.obj, .\task.obj, .\setup.obj, .\mode.obj, .\Conf_tny.obj, .\PID.obj, .\FILTER.obj,
>>  .\DataScope_DP.obj, .\storage.obj, .\BUTTON.obj, .\LED.obj, .\MOTOR.obj, .\SERVO.obj, .\STEP_MOTOR.obj, .\RELAY.obj,
>>  .\ANGLE.obj, .\LCD1602.obj, .\74HC595.obj, .\LCD5510_V2.obj, .\TM1638.obj, .\fixedPulser.obj, .\ADC.obj, .\delay.obj
>> , .\GPIO.obj, .\PCA.obj, .\stc15_pwm.obj, .\timer.obj, .\USART1.obj, .\stc15_eeprom.obj TO 电子大赛程序框架 RTX51TINY
>>  RAMSIZE (256)


MEMORY MODEL: LARGE WITH FLOATING POINT ARITHMETIC


INPUT MODULES INCLUDED:
  .\absTask.obj (ABSTASK)
  .\task.obj (TASK)
  .\setup.obj (SETUP)
  .\mode.obj (MODE)
  .\Conf_tny.obj (?RTX51_TINY_KERNAL)
  .\PID.obj (PID)
  .\FILTER.obj (FILTER)
  .\DataScope_DP.obj (DATASCOPE_DP)
  .\storage.obj (STORAGE)
  .\BUTTON.obj (BUTTON)
  .\LED.obj (LED)
  .\MOTOR.obj (MOTOR)
  .\SERVO.obj (SERVO)
  .\STEP_MOTOR.obj (STEP_MOTOR)
  .\RELAY.obj (RELAY)
  .\ANGLE.obj (ANGLE)
  .\LCD1602.obj (LCD1602)
  .\74HC595.obj (74HC595)
  .\LCD5510_V2.obj (LCD5510_V2)
  .\TM1638.obj (TM1638)
  .\fixedPulser.obj (FIXEDPULSER)
  .\ADC.obj (ADC)
  .\delay.obj (DELAY)
  .\GPIO.obj (GPIO)
  .\PCA.obj (PCA)
  .\stc15_pwm.obj (STC15_PWM)
  .\timer.obj (TIMER)
  .\USART1.obj (USART1)
  .\stc15_eeprom.obj (STC15_EEPROM)
  C:\KEIL_V5\C51\LIB\C51FPL.LIB (?C?FPADD)
  C:\KEIL_V5\C51\LIB\C51FPL.LIB (?C?FPMUL)
  C:\KEIL_V5\C51\LIB\C51FPL.LIB (?C?FPDIV)
  C:\KEIL_V5\C51\LIB\C51FPL.LIB (?C?FPCMP)
  C:\KEIL_V5\C51\LIB\C51FPL.LIB (?C?FCAST)
  C:\KEIL_V5\C51\LIB\C51FPL.LIB (?C?CASTF)
  C:\KEIL_V5\C51\LIB\C51FPL.LIB (?C?FPGETOPN)
  C:\KEIL_V5\C51\LIB\C51L.LIB (?C_STARTUP)
  C:\KEIL_V5\C51\LIB\C51L.LIB (?C?CLDPTR)
  C:\KEIL_V5\C51\LIB\C51L.LIB (?C?CLDOPTR)
  C:\KEIL_V5\C51\LIB\C51L.LIB (?C?CSTPTR)
  C:\KEIL_V5\C51\LIB\C51L.LIB (?C?CSTOPTR)
  C:\KEIL_V5\C51\LIB\C51L.LIB (?C?IMUL)
  C:\KEIL_V5\C51\LIB\C51L.LIB (?C?UIDIV)
  C:\KEIL_V5\C51\LIB\C51L.LIB (?C?IILDX)
  C:\KEIL_V5\C51\LIB\C51L.LIB (?C?ILDOPTR)
  C:\KEIL_V5\C51\LIB\C51L.LIB (?C?LMUL)
BL51 BANKED LINKER/LOCATER V6.00                                                      07/28/2017  09:58:56  PAGE 2


  C:\KEIL_V5\C51\LIB\C51L.LIB (?C?ULDIV)
  C:\KEIL_V5\C51\LIB\C51L.LIB (?C?SLDIV)
  C:\KEIL_V5\C51\LIB\C51L.LIB (?C?LNEG)
  C:\KEIL_V5\C51\LIB\C51L.LIB (?C?ULCMP)
  C:\KEIL_V5\C51\LIB\C51L.LIB (?C?ULSHR)
  C:\KEIL_V5\C51\LIB\C51L.LIB (?C?LLDOPTR0)
  C:\KEIL_V5\C51\LIB\C51L.LIB (?C?LSTXDATA)
  C:\KEIL_V5\C51\LIB\C51L.LIB (?C?LSTKXDATA)
  C:\KEIL_V5\C51\LIB\C51L.LIB (?C_INIT)
  C:\KEIL_V5\C51\LIB\C51L.LIB (?C?LLDIDATA0)
  C:\KEIL_V5\C51\LIB\C51L.LIB (?C?LLDXDATA0)
  C:\KEIL_V5\C51\LIB\C51L.LIB (?C?LLDPDATA0)
  C:\KEIL_V5\C51\LIB\C51L.LIB (?C?LLDCODE0)


TASK TABLE OF MODULE:  电子大赛程序框架 (ABSTASK)

TASKID   PRIORITY   REG-BANK   SEGMENT NAME
-------------------------------------------
0        0          0          ?PR?TASKSTART?ABSTASK



LINK MAP OF MODULE:  电子大赛程序框架 (ABSTASK)


            TYPE    BASE      LENGTH    RELOCATION   SEGMENT NAME
            -----------------------------------------------------

            * * * * * * *   D A T A   M E M O R Y   * * * * * * *
            REG     0000H     0008H     ABSOLUTE     "REG BANK 0"
            DATA    0008H     0006H     ABSOLUTE     
            DATA    000EH     0008H     UNIT         ?DT?TM1638
            IDATA   0016H     0002H     UNIT         ?RTX?TASKSTATE?S
            IDATA   0018H     0001H     UNIT         ?RTX?TASKSP?S
                    0019H     0007H                  *** GAP ***
            BIT     0020H.0   0000H.4   UNIT         ?BI?BUTTON
            BIT     0020H.4   0000H.3   UNIT         ?BI?PCA
            BIT     0020H.7   0000H.2   UNIT         ?BI?FIXEDPULSER
            BIT     0021H.1   0000H.1   UNIT         ?RTX?BITS
            BIT     0021H.2   0000H.1   UNIT         ?BI?LED
            BIT     0021H.3   0000H.1   UNIT         ?BI?_SETSTEPMOTORDIVERSION?STEP_MOTOR
            BIT     0021H.4   0000H.1   UNIT         ?BI?GETANGLE?ANGLE
            BIT     0021H.5   0000H.1   UNIT         ?BI?_SETPINSTATE?GPIO
                    0021H.6   0000H.2                *** GAP ***
            IDATA   0022H     0001H     UNIT         ?STACK

            * * * * * * *  X D A T A   M E M O R Y  * * * * * * *
            XDATA   0000H     028CH     UNIT         ?XD?USART1
            XDATA   028CH     007AH     UNIT         ?XD?PID
            XDATA   0306H     004AH     UNIT         ?XD?SERVO
            XDATA   0350H     003CH     UNIT         ?XD?STC15_PWM
            XDATA   038CH     002AH     UNIT         ?XD?DATASCOPE_DP
            XDATA   03B6H     0021H     UNIT         ?XD?_INIT_STR_MOTOR?SERVO
            XDATA   03D7H     001CH     UNIT         ?XD?STEP_MOTOR
            XDATA   03F3H     0019H     UNIT         ?XD?TIMERINIT?TIMER
            XDATA   040CH     0018H     UNIT         ?XD?FIXEDPULSER
BL51 BANKED LINKER/LOCATER V6.00                                                      07/28/2017  09:58:56  PAGE 3


            XDATA   0424H     0016H     UNIT         ?XD?TIMER
            XDATA   043AH     0015H     UNIT         ?XD?GETANGLE?ANGLE
            XDATA   044FH     0015H     UNIT         ?XD?PCA
            XDATA   0464H     0013H     UNIT         ?XD?_TM1638LEDDISPLAY?TM1638
            XDATA   0477H     0012H     UNIT         ?XD?DC_MOTOR_CONFIG?MOTOR
            XDATA   0489H     0010H     UNIT         ?XD?_FILTER?FILTER
            XDATA   0499H     000EH     UNIT         ?XD?_STEPMOTOR_INIT?STEP_MOTOR
            XDATA   04A7H     000DH     UNIT         ?XD?_UART1_INIT?SETUP
            XDATA   04B4H     000DH     UNIT         ?XD?_PID_CONFIG?PID
            XDATA   04C1H     000BH     UNIT         ?XD?_SETPULSE?FIXEDPULSER
            XDATA   04CCH     000AH     UNIT         ?XD?_FLOAT2BYTE?DATASCOPE_DP
            XDATA   04D6H     0009H     UNIT         ?XD?_SET_STR_ANGLE?SERVO
            XDATA   04DFH     0009H     UNIT         ?XD?_USART_CONFIGURATION?USART1
            XDATA   04E8H     0008H     UNIT         ?XD?ANGLE
            XDATA   04F0H     0007H     UNIT         ?XD?_SETSTEPMOTORWITHPULSE?STEP_MOTOR
            XDATA   04F7H     0007H     UNIT         ?XD?_SETSTEPMOTORWITHDISTANCE?STEP_MOTOR
            XDATA   04FEH     0007H     UNIT         ?XD?_SETSTEPMOTORWITHANGLE?STEP_MOTOR
            XDATA   0505H     0007H     UNIT         ?XD?_EEPROM_READ_N?STC15_EEPROM
            XDATA   050CH     0007H     UNIT         ?XD?_EEPROM_WRITE_N?STC15_EEPROM
            XDATA   0513H     0006H     UNIT         ?XD?_SENDSCOPEDATA?DATASCOPE_DP
            XDATA   0519H     0006H     UNIT         ?XD?_ADC_CONFIG?ANGLE
            XDATA   051FH     0006H     UNIT         ?XD?GETBUTTONNUM?TM1638
            XDATA   0525H     0005H     UNIT         ?XD?_SETPARAMETERINFERIORLIMIT?PID
            XDATA   052AH     0005H     UNIT         ?XD?_SETPARAMETERUPPERLIMIT?PID
            XDATA   052FH     0005H     UNIT         ?XD?_SETACTUALPARAMETER?PID
            XDATA   0534H     0005H     UNIT         ?XD?_SETKI?PID
            XDATA   0539H     0005H     UNIT         ?XD?_SETKP?PID
            XDATA   053EH     0005H     UNIT         ?XD?_SETKD?PID
            XDATA   0543H     0005H     UNIT         ?XD?_SETPARAMETER?PID
            XDATA   0548H     0005H     UNIT         ?XD?_DATASCOPE_GET_CHANNEL_DATA?DATASCOPE_DP
            XDATA   054DH     0005H     UNIT         ?XD?_WRITEDATA?STORAGE
            XDATA   0552H     0005H     UNIT         ?XD?_SETDC_MOTORSPEED?MOTOR
            XDATA   0557H     0005H     UNIT         ?XD?_LCD_PRINTS?LCD5510_V2
            XDATA   055CH     0005H     UNIT         ?XD?_LCD_PRINTSL?LCD5510_V2
            XDATA   0561H     0005H     UNIT         ?XD?_SET_PWM_DUTY?STC15_PWM
            XDATA   0566H     0004H     UNIT         ?XD?MOTOR
            XDATA   056AH     0004H     UNIT         ?XD?_HC595_INIT?74HC595
            XDATA   056EH     0003H     UNIT         ?XD?RELAY
            XDATA   0571H     0003H     UNIT         ?XD?_LCD1602_WRITE_WORD?LCD1602
            XDATA   0574H     0003H     UNIT         ?XD?_PCA_INIT?PCA
            XDATA   0577H     0003H     UNIT         ?XD?_PWMOUTPUT?PCA
            XDATA   057AH     0002H     UNIT         ?XD?BUTTON_CONFIG?BUTTON
            XDATA   057CH     0002H     UNIT         ?XD?BOARD_LED_INIT?LED
            XDATA   057EH     0002H     UNIT         ?XD?_SETSTEPMOTORWITHROUND?STEP_MOTOR
            XDATA   0580H     0002H     UNIT         ?XD?LCD5510_INIT?LCD5510_V2
            XDATA   0582H     0002H     UNIT         ?XD?_SETTM1638WRITE?TM1638
            XDATA   0584H     0002H     UNIT         ?XD?GETTM1638READ?TM1638
            XDATA   0586H     0002H     UNIT         ?XD?PULSERINIT?FIXEDPULSER
            XDATA   0588H     0002H     UNIT         ?XD?_SET_PWM_PERIOD?STC15_PWM
            XDATA   058AH     0002H     UNIT         ?XD?_PWM_INILIZE?STC15_PWM
            XDATA   058CH     0001H     UNIT         ?XD?_PID?PID
            XDATA   058DH     0001H     UNIT         ?XD?_INCREMENTAL_PID?PID
            XDATA   058EH     0001H     UNIT         ?XD?_BOARD_LED_PWM?LED
            XDATA   058FH     0001H     UNIT         ?XD?_OPEN_DC_MOTOR?MOTOR
            XDATA   0590H     0001H     UNIT         ?XD?_CLOSE_DC_MOTOR?MOTOR
            XDATA   0591H     0001H     UNIT         ?XD?_OPEN_STR?SERVO
            XDATA   0592H     0001H     UNIT         ?XD?_CLOSE_STR?SERVO
BL51 BANKED LINKER/LOCATER V6.00                                                      07/28/2017  09:58:56  PAGE 4


            XDATA   0593H     0001H     UNIT         ?XD?_CLOSE_STEPMOTOR?STEP_MOTOR
            XDATA   0594H     0001H     UNIT         ?XD?_LCD1602_WRITE_CHAR?LCD1602
            XDATA   0595H     0001H     UNIT         ?XD?_LCD1602_WRITE_COM?LCD1602
            XDATA   0596H     0001H     UNIT         ?XD?_HC595SENDDATA?74HC595
            XDATA   0597H     0001H     UNIT         ?XD?_SETTM1638COM?TM1638
            XDATA   0598H     0001H     UNIT         ?XD?INIT_TM1638?TM1638
            XDATA   0599H     0001H     UNIT         _XDATA_GROUP_

            * * * * * * *   C O D E   M E M O R Y   * * * * * * *
            CODE    0000H     0003H     ABSOLUTE     
                    0003H     0008H                  *** GAP ***
            CODE    000BH     0003H     ABSOLUTE     
                    000EH     0015H                  *** GAP ***
            CODE    0023H     0003H     ABSOLUTE     
                    0026H     0005H                  *** GAP ***
            CODE    002BH     0003H     ABSOLUTE     
                    002EH     000DH                  *** GAP ***
            CODE    003BH     0003H     ABSOLUTE     
                    003EH     0005H                  *** GAP ***
            CODE    0043H     0003H     ABSOLUTE     
                    0046H     001DH                  *** GAP ***
            CODE    0063H     0003H     ABSOLUTE     
                    0066H     0025H                  *** GAP ***
            CODE    008BH     0003H     ABSOLUTE     
                    008EH     0005H                  *** GAP ***
            CODE    0093H     0003H     ABSOLUTE     
                    0096H     0005H                  *** GAP ***
            CODE    009BH     0003H     ABSOLUTE     
                    009EH     0762H                  *** GAP ***
            CODE    0800H     06EBH     UNIT         ?C?LIB_CODE
            CODE    0EEBH     06E0H     UNIT         ?PR?_USART_CONFIGURATION?USART1
            CODE    15CBH     039AH     UNIT         ?PR?_PWM_INILIZE?STC15_PWM
            CODE    1965H     0393H     UNIT         ?PR?_TM1638LEDDISPLAY?TM1638
            CODE    1CF8H     025EH     UNIT         ?CO?LCD5510_V2
            CODE    1F56H     0252H     UNIT         ?PR?_TIMER_INILIZE?TIMER
            CODE    21A8H     01DAH     UNIT         ?PR?_PID?PID
            CODE    2382H     01D4H     UNIT         ?PR?_INIT_STR_MOTOR?SERVO
            CODE    2556H     01C4H     UNIT         ?PR?_GPIO_INILIZE?GPIO
            CODE    271AH     019FH     UNIT         ?PR?_PCA_INIT?PCA
            CODE    28B9H     019EH     UNIT         ?PR?_INCREMENTAL_PID?PID
            CODE    2A57H     0172H     UNIT         ?RTX?CODE
            CODE    2BC9H     0146H     UNIT         ?PR?_PID_CONFIG?PID
            CODE    2D0FH     013DH     UNIT         ?PR?_PWMOUTPUT?PCA
            CODE    2E4CH     0136H     UNIT         ?PR?_FILTER?FILTER
            CODE    2F82H     0134H     UNIT         ?PR?_DATASCOPE_GET_CHANNEL_DATA?DATASCOPE_DP
            CODE    30B6H     012BH     UNIT         ?PR?GETBUTTONNUM?TM1638
            CODE    31E1H     0116H     UNIT         ?PR?_SET_STR_ANGLE?SERVO
            CODE    32F7H     00ECH     UNIT         ?PR?_SETPULSE?FIXEDPULSER
            CODE    33E3H     00E4H     UNIT         ?PR?_SET_PWM_DUTY?STC15_PWM
            CODE    34C7H     00C7H     UNIT         ?PR?_SETSTEPMOTORWITHDISTANCE?STEP_MOTOR
            CODE    358EH     00AEH     UNIT         ?PR?_PWMN_UPDATE?PCA
            CODE    363CH     00AAH     UNIT         ?PR?_FLOAT2BYTE?DATASCOPE_DP
            CODE    36E6H     00A5H     UNIT         ?PR?_DATASCOPE_DATA_GENERATE?DATASCOPE_DP
            CODE    378BH     00A3H     UNIT         ?PR?PCA_HANDLER?PCA
            CODE    382EH     009FH     UNIT         ?PR?_STEPMOTOR_INIT?STEP_MOTOR
            CODE    38CDH     009AH     UNIT         ?C_INITSEG
            CODE    3967H     009AH     UNIT         ?PR?_PWM_SET_T12_PERIOD?STC15_PWM
BL51 BANKED LINKER/LOCATER V6.00                                                      07/28/2017  09:58:56  PAGE 5


            CODE    3A01H     0092H     UNIT         ?PR?_SETDC_MOTORSPEED?MOTOR
            CODE    3A93H     008CH     UNIT         ?C_C51STARTUP
            CODE    3B1FH     0085H     UNIT         ?PR?UART2_INT?USART1
            CODE    3BA4H     0085H     UNIT         ?PR?UART3_INT?USART1
            CODE    3C29H     0085H     UNIT         ?PR?UART4_INT?USART1
            CODE    3CAEH     007FH     UNIT         ?PR?UART1_INT?USART1
            CODE    3D2DH     007BH     UNIT         ?PR?PULSER_1INT?FIXEDPULSER
            CODE    3DA8H     007BH     UNIT         ?PR?PULSER_2INT?FIXEDPULSER
            CODE    3E23H     007AH     UNIT         ?PR?GETANGLE?ANGLE
            CODE    3E9DH     006BH     UNIT         ?PR?DC_MOTOR_CONFIG?MOTOR
            CODE    3F08H     0065H     UNIT         ?PR?_SETSTEPMOTORWITHANGLE?STEP_MOTOR
            CODE    3F6DH     0061H     UNIT         ?PR?_SET_PWM_PERIOD?STC15_PWM
            CODE    3FCEH     005EH     UNIT         ?PR?_GET_ADC10BITRESULT?ADC
            CODE    402CH     0057H     UNIT         ?PR?BUTTONSCAN?BUTTON
            CODE    4083H     0054H     UNIT         ?PR?TIMERINIT?TIMER
            CODE    40D7H     0053H     UNIT         ?PR?_ADC_INILIZE?ADC
            CODE    412AH     004BH     UNIT         ?PR?_LCD_PRINTSL?LCD5510_V2
            CODE    4175H     0044H     UNIT         ?C?LDIV
            CODE    41B9H     0043H     UNIT         ?PR?LCD5510_INIT?LCD5510_V2
            CODE    41FCH     0040H     UNIT         ?PR?GETTM1638READ?TM1638
            CODE    423CH     003FH     UNIT         ?PR?_EEPROM_READ_N?STC15_EEPROM
            CODE    427BH     003FH     UNIT         ?PR?_EEPROM_WRITE_N?STC15_EEPROM
            CODE    42BAH     003DH     UNIT         ?PR?_LCD_PRINTC?LCD5510_V2
            CODE    42F7H     003CH     UNIT         ?PR?_SETTM1638WRITE?TM1638
            CODE    4333H     003BH     UNIT         ?PR?_LCD_PRINTS?LCD5510_V2
            CODE    436EH     0039H     UNIT         ?PR?_SENDSCOPEDATA?DATASCOPE_DP
            CODE    43A7H     0039H     UNIT         ?PR?_SETSTEPMOTORWITHROUND?STEP_MOTOR
            CODE    43E0H     002FH     UNIT         ?PR?_LCD1602_WRITE_WORD?LCD1602
            CODE    440FH     002FH     UNIT         ?PR?INIT_TM1638?TM1638
            CODE    443EH     002EH     UNIT         ?PR?_DELAY_US?DELAY
            CODE    446CH     002DH     UNIT         ?PR?PULSERINIT?FIXEDPULSER
            CODE    4499H     002CH     UNIT         ?PR?_UART1_INIT?SETUP
            CODE    44C5H     0028H     UNIT         ?PR?BOARD_LED_INIT?LED
            CODE    44EDH     0028H     UNIT         ?PR?_OPEN_PWM_N?STC15_PWM
            CODE    4515H     0028H     UNIT         ?PR?_TX2_WRITE2BUFF?USART1
            CODE    453DH     0028H     UNIT         ?PR?_TX3_WRITE2BUFF?USART1
            CODE    4565H     0028H     UNIT         ?PR?_TX4_WRITE2BUFF?USART1
            CODE    458DH     0027H     UNIT         ?PR?_TX1_WRITE2BUFF?USART1
            CODE    45B4H     0025H     UNIT         ?PR?_SETSTEPMOTORWITHPULSE?STEP_MOTOR
            CODE    45D9H     0025H     UNIT         ?PR?_CLOSE_PWM_N?STC15_PWM
            CODE    45FEH     0025H     UNIT         ?PR?_SETTIMEOUT?TIMER
            CODE    4623H     0022H     UNIT         ?PR?_BLINK?LED
            CODE    4645H     0021H     UNIT         ?PR?_SETPARAMETERINFERIORLIMIT?PID
            CODE    4666H     0021H     UNIT         ?PR?_SETPARAMETERUPPERLIMIT?PID
            CODE    4687H     0021H     UNIT         ?PR?_SETACTUALPARAMETER?PID
            CODE    46A8H     0021H     UNIT         ?PR?_SETKI?PID
            CODE    46C9H     0021H     UNIT         ?PR?_SETKP?PID
            CODE    46EAH     0021H     UNIT         ?PR?_SETKD?PID
            CODE    470BH     0021H     UNIT         ?PR?_SETPARAMETER?PID
            CODE    472CH     0021H     UNIT         ?PR?LCD_CLR_SCR?LCD5510_V2
            CODE    474DH     0020H     UNIT         ?PR?_OPEN_STR?SERVO
            CODE    476DH     0020H     UNIT         ?PR?_LCD_WRITE_BYTE?LCD5510_V2
            CODE    478DH     0020H     UNIT         ?PR?_EEPROM_SECTORERASE?STC15_EEPROM
            CODE    47ADH     001FH     UNIT         ?PR?BUTTON_CONFIG?BUTTON
            CODE    47CCH     001FH     UNIT         ?PR?_CLOSE_STR?SERVO
            CODE    47EBH     001FH     UNIT         ?PR?_SETTM1638COM?TM1638
            CODE    480AH     001FH     UNIT         ?PR?_PWM_SET_PERIOD?STC15_PWM
BL51 BANKED LINKER/LOCATER V6.00                                                      07/28/2017  09:58:56  PAGE 6


            CODE    4829H     001FH     UNIT         ?PR?_ISEXPIREDTIMER?TIMER
            CODE    4848H     001FH     UNIT         ?PR?_ISSTOPPED?TIMER
            CODE    4867H     001EH     UNIT         ?PR?_OPEN_DC_MOTOR?MOTOR
            CODE    4885H     001EH     UNIT         ?PR?LCD1602_GPIO_CONFIG?LCD1602
            CODE    48A3H     001EH     UNIT         ?PR?_OPENPULSER?FIXEDPULSER
            CODE    48C1H     001DH     UNIT         ?PR?_GETBUTTONSTATE?BUTTON
            CODE    48DEH     001DH     UNIT         ?PR?_CLOSE_DC_MOTOR?MOTOR
            CODE    48FBH     001DH     UNIT         ?PR?_CLOSE_STEPMOTOR?STEP_MOTOR
            CODE    4918H     001DH     UNIT         ?PR?LCD1602_INIT?LCD1602
            CODE    4935H     001DH     UNIT         ?PR?_CLOSEPULSER?FIXEDPULSER
            CODE    4952H     001DH     UNIT         ?PR?_ISACTIVETIMER?TIMER
            CODE    496FH     001CH     UNIT         ?PR?_FREESTEPMOTOR?STEP_MOTOR
            CODE    498BH     001CH     UNIT         ?PR?_LOCKSTEPMOTOR?STEP_MOTOR
            CODE    49A7H     001CH     UNIT         ?PR?_ADC_CONFIG?ANGLE
            CODE    49C3H     001CH     UNIT         ?PR?_LCD1602_WRITE_CHAR?LCD1602
            CODE    49DFH     001CH     UNIT         ?PR?_LCD1602_WRITE_COM?LCD1602
            CODE    49FBH     001CH     UNIT         ?PR?_SETTIMERHERTZ?TIMER
            CODE    4A17H     001BH     UNIT         ?PR?_SETSTEPMOTORDIVERSION?STEP_MOTOR
            CODE    4A32H     001AH     UNIT         ?PR?_GETPARAMETER?PID
            CODE    4A4CH     001AH     UNIT         ?PR?_GETERR?PID
            CODE    4A66H     001AH     UNIT         ?PR?_GETERRLAST?PID
            CODE    4A80H     001AH     UNIT         ?PR?_GETKP?PID
            CODE    4A9AH     001AH     UNIT         ?PR?_GETKI?PID
            CODE    4AB4H     001AH     UNIT         ?PR?_GETKD?PID
            CODE    4ACEH     001AH     UNIT         ?PR?_GETOUTPUT?PID
            CODE    4AE8H     001AH     UNIT         ?PR?_GETINTEGRAL?PID
            CODE    4B02H     001AH     UNIT         ?PR?_READ_STR_ANGLE?SERVO
            CODE    4B1CH     001AH     UNIT         ?PR?_GET_PWM_PERIOD?STC15_PWM
            CODE    4B36H     001AH     UNIT         ?PR?_GET_PWM_N_DUTY?STC15_PWM
            CODE    4B50H     001AH     UNIT         ?PR?_GETTIMEROUT?TIMER
            CODE    4B6AH     001AH     UNIT         ?PR?_GETTIMERHERTZ?TIMER
            CODE    4B84H     0019H     UNIT         ?PR?_HC595_INIT?74HC595
            CODE    4B9DH     0017H     UNIT         ?PR?_PRINTSTRING1?USART1
            CODE    4BB4H     0014H     UNIT         ?PR?_LCD_POS_BYTE?LCD5510_V2
            CODE    4BC8H     0014H     UNIT         ?PR?_RESTARTTIMER?TIMER
            CODE    4BDCH     0013H     UNIT         ?PR?_OPEN_STEPMOTOR?STEP_MOTOR
            CODE    4BEFH     0013H     UNIT         ?PR?_LCD_CLR_ROW?LCD5510_V2
            CODE    4C02H     0013H     UNIT         ?PR?_PRINTSTRING2?USART1
            CODE    4C15H     0013H     UNIT         ?PR?_PRINTSTRING3?USART1
            CODE    4C28H     0013H     UNIT         ?PR?_PRINTSTRING4?USART1
            CODE    4C3BH     0012H     UNIT         ?PR?_OPENPID?PID
            CODE    4C4DH     0012H     UNIT         ?PR?_WRITEDATA?STORAGE
            CODE    4C5FH     0012H     UNIT         ?CO?TM1638
            CODE    4C71H     0012H     UNIT         ?PR?_GETPULSERSTATE?FIXEDPULSER
            CODE    4C83H     0012H     UNIT         ?PR?_GET_PWM_N_STATE?STC15_PWM
            CODE    4C95H     0011H     UNIT         ?PR?_CLOSEPID?PID
            CODE    4CA6H     0011H     UNIT         ?PR?_GETSTEPMOTORSTATE?STEP_MOTOR
            CODE    4CB7H     0011H     UNIT         ?PR?_HC595SENDDATA?74HC595
            CODE    4CC8H     0011H     UNIT         ?PR?_SETPWM_DIV?STC15_PWM
            CODE    4CD9H     0011H     UNIT         ?PR?_GETPWM_DIV?STC15_PWM
            CODE    4CEAH     0010H     UNIT         ?PR?_GETDC_MOTORSTATE?MOTOR
            CODE    4CFAH     0010H     UNIT         ?PR?_DELAY_MS?DELAY
            CODE    4D0AH     000FH     UNIT         ?PR?_SETSTEPMOTORSTATE?STEP_MOTOR
            CODE    4D19H     000FH     UNIT         ?PR?_SETRELAY?RELAY
            CODE    4D28H     000EH     UNIT         ?PR?_UNSETRELAY?RELAY
            CODE    4D36H     000EH     UNIT         ?PR?_STOPTIMER?TIMER
            CODE    4D44H     000EH     UNIT         ?PR?_ONRESTARTTIMER?TIMER
BL51 BANKED LINKER/LOCATER V6.00                                                      07/28/2017  09:58:56  PAGE 7


            CODE    4D52H     000EH     UNIT         ?PR?DISABLEEEPROM?STC15_EEPROM
            CODE    4D60H     000CH     UNIT         ?PR?_ADC_POWERCONTROL?ADC
            CODE    4D6CH     000AH     UNIT         ?PR?_DIGITALREAD?BUTTON
            CODE    4D76H     000AH     UNIT         ?PR?OPEN_PWM_ALL?STC15_PWM
            CODE    4D80H     000AH     UNIT         ?PR?CLOSE_PWM_ALL?STC15_PWM
            CODE    4D8AH     0009H     UNIT         ?PR?GETMICROS?TIMER
            CODE    4D93H     0009H     UNIT         ?PR?GETMILLIS?TIMER
            CODE    4D9CH     0008H     UNIT         ?PR?TASKSTART?ABSTASK
            CODE    4DA4H     0006H     UNIT         ?PR?_BOARD_LED_PWM?LED
            CODE    4DAAH     0006H     UNIT         ?PR?GETSECONDS?TIMER
            CODE    4DB0H     0006H     UNIT         ?PR?GETMINUTES?TIMER
            CODE    4DB6H     0006H     UNIT         ?PR?GETHOURS?TIMER
            CODE    4DBCH     0006H     UNIT         ?PR?GETDAYS?TIMER
            CODE    4DC2H     0005H     UNIT         ?PR?OPEN_BOARD_LED?LED
            CODE    4DC7H     0005H     UNIT         ?PR?CLOSE_BOARD_LED?LED
            CODE    4DCCH     0005H     UNIT         ?PR?CLOSETM1638DISPLAY?TM1638
            CODE    4DD1H     0004H     UNIT         ?PR?ADC_INT?ADC
            CODE    4DD5H     0003H     UNIT         ?PR?GETBOARD_LED_STATE?LED
            CODE    4DD8H     0003H     UNIT         ?PR?_SETPINSTATE?GPIO
            CODE    4DDBH     0002H     UNIT         ?RTX?TASKENT?S
            CODE    4DDDH     0001H     UNIT         ?PR?TEST?SETUP
            CODE    4DDEH     0001H     UNIT         ?PR?SETUP?SETUP
            CODE    4DDFH     0001H     UNIT         ?PR?MODE1?MODE
            CODE    4DE0H     0001H     UNIT         ?PR?MODE2?MODE
            CODE    4DE1H     0001H     UNIT         ?PR?MODE3?MODE
            CODE    4DE2H     0001H     UNIT         ?PR?MODE4?MODE
            CODE    4DE3H     0001H     UNIT         ?PR?MODELAUNCHER?MODE
            CODE    4DE4H     0001H     UNIT         ?PR?RELAY_INIT?RELAY



OVERLAY MAP OF MODULE:   电子大赛程序框架 (ABSTASK)


SEGMENT                                            XDATA_GROUP
  +--> CALLED SEGMENT                            START    LENGTH
----------------------------------------------------------------
?PR?TASKSTART?ABSTASK                            -----    -----
  +--> ?PR?SETUP?SETUP
  +--> ?PR?_BLINK?LED

?PR?_BLINK?LED                                   0599H    0001H
  +--> ?PR?OPEN_BOARD_LED?LED
  +--> ?PR?_DELAY_MS?DELAY
  +--> ?PR?CLOSE_BOARD_LED?LED

*** NEW ROOT ***************************************************

?PR?PULSER_1INT?FIXEDPULSER                      -----    -----
  +--> ?PR?_CLOSEPULSER?FIXEDPULSER

*** NEW ROOT ***************************************************

?PR?PULSER_2INT?FIXEDPULSER                      -----    -----
  +--> ?PR?_CLOSEPULSER?FIXEDPULSER

*** NEW ROOT ***************************************************
BL51 BANKED LINKER/LOCATER V6.00                                                      07/28/2017  09:58:56  PAGE 8



?C_C51STARTUP                                    -----    -----
  +--> ?C_INITSEG



SYMBOL TABLE OF MODULE:  电子大赛程序框架 (ABSTASK)

  VALUE           TYPE          NAME
  ----------------------------------

  -------         MODULE        ABSTASK
  C:0000H         SYMBOL        _ICE_DUMMY_
  D:0080H         PUBLIC        P0
  D:0090H         PUBLIC        P1
  D:00A0H         PUBLIC        P2
  D:00B0H         PUBLIC        P3
  D:00C0H         PUBLIC        P4
  D:00C8H         PUBLIC        P5
  D:00E8H         PUBLIC        P6
  D:00F8H         PUBLIC        P7
  D:00A8H         PUBLIC        IE
  D:00B8H         PUBLIC        IP
  D:00D8H         PUBLIC        CCON
  D:0098H         PUBLIC        SCON
  D:0088H         PUBLIC        TCON
  D:00F0H         PUBLIC        B
  C:4D9CH         PUBLIC        taskStart
  D:00E0H         PUBLIC        ACC
  D:00D0H         PUBLIC        PSW
  -------         PROC          TASKSTART
  C:4D9CH         LINE#         13
  C:4D9CH         LINE#         15
  C:4D9FH         LINE#         16
  -------         ENDPROC       TASKSTART
  -------         ENDMOD        ABSTASK

  -------         MODULE        TASK
  C:0000H         SYMBOL        _ICE_DUMMY_
  D:0080H         PUBLIC        P0
  D:0090H         PUBLIC        P1
  D:00A0H         PUBLIC        P2
  D:00B0H         PUBLIC        P3
  D:00C0H         PUBLIC        P4
  D:00C8H         PUBLIC        P5
  D:00E8H         PUBLIC        P6
  D:00F8H         PUBLIC        P7
  D:00A8H         PUBLIC        IE
  D:00B8H         PUBLIC        IP
  D:00D8H         PUBLIC        CCON
  D:0098H         PUBLIC        SCON
  D:0088H         PUBLIC        TCON
  D:00F0H         PUBLIC        B
  D:00E0H         PUBLIC        ACC
  D:00D0H         PUBLIC        PSW
  -------         ENDMOD        TASK

BL51 BANKED LINKER/LOCATER V6.00                                                      07/28/2017  09:58:56  PAGE 9


  -------         MODULE        SETUP
  C:0000H         SYMBOL        _ICE_DUMMY_
  D:0080H         PUBLIC        P0
  D:0090H         PUBLIC        P1
  D:00A0H         PUBLIC        P2
  D:00B0H         PUBLIC        P3
  D:00C0H         PUBLIC        P4
  D:00C8H         PUBLIC        P5
  D:00E8H         PUBLIC        P6
  C:4499H         PUBLIC        _UART1_init
  D:00F8H         PUBLIC        P7
  D:00A8H         PUBLIC        IE
  D:00B8H         PUBLIC        IP
  D:00D8H         PUBLIC        CCON
  D:0098H         PUBLIC        SCON
  C:4DDEH         PUBLIC        setup
  D:0088H         PUBLIC        TCON
  D:00F0H         PUBLIC        B
  C:4DDDH         PUBLIC        test
  D:00E0H         PUBLIC        ACC
  D:00D0H         PUBLIC        PSW
  -------         PROC          _UART1_INIT
  D:0004H         SYMBOL        BandRate
  -------         DO            
  X:04A7H         SYMBOL        COMx_InitStructure
  -------         ENDDO         
  C:4499H         LINE#         38
  C:4499H         LINE#         39
  C:4499H         LINE#         41
  C:449FH         LINE#         42
  C:44A3H         LINE#         43
  C:44A7H         LINE#         44
  C:44ADH         LINE#         45
  C:44B0H         LINE#         46
  C:44B3H         LINE#         47
  C:44B5H         LINE#         48
  C:44B8H         LINE#         49
  C:44BAH         LINE#         50
  -------         ENDPROC       _UART1_INIT
  -------         PROC          TEST
  C:4DDDH         LINE#         53
  C:4DDDH         LINE#         54
  C:4DDDH         LINE#         56
  -------         ENDPROC       TEST
  -------         PROC          SETUP
  C:4DDEH         LINE#         57
  C:4DDEH         LINE#         58
  C:4DDEH         LINE#         66
  -------         ENDPROC       SETUP
  -------         ENDMOD        SETUP

  -------         MODULE        MODE
  C:0000H         SYMBOL        _ICE_DUMMY_
  C:4DDFH         PUBLIC        mode1
  C:4DE0H         PUBLIC        mode2
  C:4DE1H         PUBLIC        mode3
  C:4DE2H         PUBLIC        mode4
BL51 BANKED LINKER/LOCATER V6.00                                                      07/28/2017  09:58:56  PAGE 10


  C:4DE3H         PUBLIC        modeLauncher
  -------         PROC          MODE1
  C:4DDFH         LINE#         2
  C:4DDFH         LINE#         3
  C:4DDFH         LINE#         5
  -------         ENDPROC       MODE1
  -------         PROC          MODE2
  C:4DE0H         LINE#         7
  C:4DE0H         LINE#         8
  C:4DE0H         LINE#         10
  -------         ENDPROC       MODE2
  -------         PROC          MODE3
  C:4DE1H         LINE#         13
  C:4DE1H         LINE#         14
  C:4DE1H         LINE#         16
  -------         ENDPROC       MODE3
  -------         PROC          MODE4
  C:4DE2H         LINE#         18
  C:4DE2H         LINE#         19
  C:4DE2H         LINE#         21
  -------         ENDPROC       MODE4
  -------         PROC          MODELAUNCHER
  C:4DE3H         LINE#         22
  C:4DE3H         LINE#         23
  C:4DE3H         LINE#         25
  -------         ENDPROC       MODELAUNCHER
  -------         ENDMOD        MODE

  -------         MODULE        ?RTX51_TINY_KERNAL
  C:4DDBH         SEGMENT       ?RTX?TASKENT?S
  I:0018H         SEGMENT       ?RTX?TASKSP?S
  I:0016H         SEGMENT       ?RTX?TASKSTATE?S
  B:0021H.1       SEGMENT       ?RTX?BITS
  C:2A57H         SEGMENT       ?RTX?CODE
  C:2AA6H         PUBLIC        ?RTX?SET_ISR
  D:000CH         PUBLIC        ?RTX_CURRENTTASK
  D:0007H         PUBLIC        ?RTX_NEXTID
  C:2AE9H         PUBLIC        ?RTX_NEXTTASK
  N:00FFH         PUBLIC        ?RTX_RAMTOP
  C:4DDBH         PUBLIC        ?RTX_TASKENTRY
  C:2BC8H         PUBLIC        ?RTX_TASKIDX
  I:0018H         PUBLIC        ?RTX_TASKSP
  I:0016H         PUBLIC        ?RTX_TASKSTATUS
  C:2B8CH         PUBLIC        MAIN
  C:2AD2H         PUBLIC        OS_SWITCH_TASK
  C:2ADBH         SYMBOL        ?C0001
  C:2AE5H         SYMBOL        ?C0003
  C:2AEAH         SYMBOL        ?C0005
  C:2B04H         SYMBOL        ?C0007
  C:2B06H         SYMBOL        ?C0009
  C:2B10H         SYMBOL        ?C0011
  C:2B3DH         SYMBOL        ?C0012
  C:2B23H         SYMBOL        ?C0013
  C:2B28H         SYMBOL        ?C0015
  C:2B33H         SYMBOL        ?C0016
  N:0000H         SYMBOL        ?RTX51_TINY_KERNAL
  N:F63CH         SYMBOL        ?RTX_CLOCK
BL51 BANKED LINKER/LOCATER V6.00                                                      07/28/2017  09:58:56  PAGE 11


  N:0008H         SYMBOL        ?RTX_REGISTERBANK
  D:000DH         SYMBOL        ?RTX_ROBINTIME
  D:000AH         SYMBOL        ?RTX_SAVEACC
  D:000BH         SYMBOL        ?RTX_SAVEPSW
  C:2A57H         SYMBOL        ?RTX_STACKERROR
  C:2AAAH         SYMBOL        ?RTX_TASKSWITCHING
  B:0021H.1       SYMBOL        ?RTX_TS_DELAY
  D:00E0H         SYMBOL        ACC
  D:00F0H         SYMBOL        B
  N:0005H         SYMBOL        B_ACTIVE
  N:0007H         SYMBOL        B_IVL
  N:0007H         SYMBOL        B_RDY
  N:0004H         SYMBOL        B_READY
  N:0006H         SYMBOL        B_ROBIN
  N:0002H         SYMBOL        B_SIGNAL
  N:0003H         SYMBOL        B_TIMEOUT
  N:0000H         SYMBOL        B_WAITSIG
  N:0001H         SYMBOL        B_WAITTIM
  C:2AA7H         SYMBOL        CHECKROBINTIME
  C:2A81H         SYMBOL        CHECKSTACK
  N:0000H         SYMBOL        CODE_BANKING
  N:0000H         SYMBOL        CPU_IDLE_CODE
  D:0083H         SYMBOL        DPH
  D:0082H         SYMBOL        DPL
  B:00A8H.7       SYMBOL        EA
  B:00A8H.4       SYMBOL        ES
  B:00A8H.1       SYMBOL        ET0
  B:00A8H.3       SYMBOL        ET1
  B:00A8H.0       SYMBOL        EX0
  B:00A8H.2       SYMBOL        EX1
  N:0014H         SYMBOL        FREE_STACK
  C:2A5BH         SYMBOL        HW_TIMER
  D:00A8H         SYMBOL        IE
  B:0088H.1       SYMBOL        IE0
  B:0088H.3       SYMBOL        IE1
  N:09C4H         SYMBOL        INT_CLOCK
  N:0001H         SYMBOL        INT_REGBANK
  B:0088H.0       SYMBOL        IT0
  B:0088H.2       SYMBOL        IT1
  N:0020H         SYMBOL        K_ACTIVE
  N:0080H         SYMBOL        K_IVL
  N:0080H         SYMBOL        K_RDY
  N:0010H         SYMBOL        K_READY
  N:0040H         SYMBOL        K_ROBIN
  N:0001H         SYMBOL        K_SIG
  N:0002H         SYMBOL        K_TMO
  N:0000H         SYMBOL        LONG_USR_INTR
  C:2B95H         SYMBOL        MAIN1
  C:2B9FH         SYMBOL        MAIN1X
  C:2B9AH         SYMBOL        MAIN2
  C:2B60H         SYMBOL        NOEVENT
  C:2AA6H         SYMBOL        NOROBINTIMEOUT
  C:2A9DH         SYMBOL        NOTIMEOUT
  C:2A9BH         SYMBOL        NOWAITTIMEOUT
  C:2AD2H         SYMBOL        OS_SWITCH_TASK1
  D:0087H         SYMBOL        PCON
  D:00D0H         SYMBOL        PSW
BL51 BANKED LINKER/LOCATER V6.00                                                      07/28/2017  09:58:56  PAGE 12


  N:00FFH         SYMBOL        RAMTOP
  N:0080H         SYMBOL        RDY_EVENT
  C:2B6CH         SYMBOL        ROBINON
  C:2B54H         SYMBOL        SIGNALOFF
  C:2B60H         SYMBOL        SIGNALON
  N:0004H         SYMBOL        SIG_EVENT
  D:0081H         SYMBOL        SP
  I:0017H         SYMBOL        TASKSTATE
  D:0088H         SYMBOL        TCON
  B:0088H.5       SYMBOL        TF0
  B:0088H.7       SYMBOL        TF1
  D:008CH         SYMBOL        TH0
  D:008DH         SYMBOL        TH1
  C:2B5CH         SYMBOL        TIMEOUTON
  C:2A5CH         SYMBOL        TIMERINT
  C:2A8DH         SYMBOL        TIMERLOOP
  I:0016H         SYMBOL        TIMERVAL
  N:000AH         SYMBOL        TIMESHARING
  D:008AH         SYMBOL        TL0
  D:008BH         SYMBOL        TL1
  D:0089H         SYMBOL        TMOD
  N:0008H         SYMBOL        TMO_EVENT
  B:0088H.4       SYMBOL        TR0
  B:0088H.6       SYMBOL        TR1
  C:000BH         LINE#         271
  C:2A57H         LINE#         279
  C:2A5BH         LINE#         282
  C:2A5CH         LINE#         299
  C:2A5FH         LINE#         301
  C:2A62H         LINE#         302
  C:2A65H         LINE#         303
  C:2A67H         LINE#         305
  C:2A69H         LINE#         306
  C:2A6BH         LINE#         307
  C:2A6DH         LINE#         308
  C:2A6FH         LINE#         309
  C:2A71H         LINE#         310
  C:2A73H         LINE#         311
  C:2A75H         LINE#         312
  C:2A77H         LINE#         316
  C:2A78H         LINE#         317
  C:2A7AH         LINE#         318
  C:2A7BH         LINE#         319
  C:2A7CH         LINE#         320
  C:2A7FH         LINE#         321
  C:2A81H         LINE#         322
  C:2A82H         LINE#         323
  C:2A84H         LINE#         324
  C:2A87H         LINE#         325
  C:2A89H         LINE#         329
  C:2A8BH         LINE#         330
  C:2A8DH         LINE#         331
  C:2A8EH         LINE#         332
  C:2A8FH         LINE#         333
  C:2A90H         LINE#         334
  C:2A92H         LINE#         335
  C:2A94H         LINE#         336
BL51 BANKED LINKER/LOCATER V6.00                                                      07/28/2017  09:58:56  PAGE 13


  C:2A95H         LINE#         337
  C:2A98H         LINE#         338
  C:2A9AH         LINE#         339
  C:2A9BH         LINE#         340
  C:2A9DH         LINE#         341
  C:2A9EH         LINE#         342
  C:2AA0H         LINE#         344
  C:2AA1H         LINE#         345
  C:2AA3H         LINE#         360
  C:2AA6H         LINE#         366
  C:2AA7H         LINE#         367
  C:2AAAH         LINE#         370
  C:2AACH         LINE#         371
  C:2AAEH         LINE#         372
  C:2AB0H         LINE#         373
  C:2AB2H         LINE#         374
  C:2AB4H         LINE#         375
  C:2AB6H         LINE#         376
  C:2AB8H         LINE#         377
  C:2ABAH         LINE#         378
  C:2ABCH         LINE#         379
  C:2ABEH         LINE#         380
  C:2AC0H         LINE#         381
  C:2AC2H         LINE#         382
  C:2AC4H         LINE#         387
  C:2AC6H         LINE#         388
  C:2AC7H         LINE#         389
  C:2AC9H         LINE#         390
  C:2ACAH         LINE#         391
  C:2ACCH         LINE#         392
  C:2ACEH         LINE#         393
  C:2ACFH         LINE#         394
  C:2AD0H         LINE#         395
  C:2AD2H         LINE#         424
  C:2AD4H         LINE#         426
  C:2AD6H         LINE#         427
  C:2AD7H         LINE#         429
  C:2AD8H         LINE#         430
  C:2ADAH         LINE#         431
  C:2ADBH         LINE#         434
  C:2ADCH         LINE#         435
  C:2ADDH         LINE#         436
  C:2ADEH         LINE#         444
  C:2AE1H         LINE#         445
  C:2AE3H         LINE#         446
  C:2AE5H         LINE#         449
  C:2AE6H         LINE#         450
  C:2AE9H         LINE#         458
  C:2AEAH         LINE#         462
  C:2AECH         LINE#         463
  C:2AEDH         LINE#         464
  C:2AEEH         LINE#         465
  C:2AF0H         LINE#         468
  C:2AF2H         LINE#         470
  C:2AF4H         LINE#         471
  C:2AF6H         LINE#         472
  C:2AF7H         LINE#         473
BL51 BANKED LINKER/LOCATER V6.00                                                      07/28/2017  09:58:56  PAGE 14


  C:2AF8H         LINE#         474
  C:2AF9H         LINE#         476
  C:2AFBH         LINE#         478
  C:2AFCH         LINE#         479
  C:2AFDH         LINE#         480
  C:2AFFH         LINE#         481
  C:2B02H         LINE#         482
  C:2B04H         LINE#         484
  C:2B05H         LINE#         485
  C:2B06H         LINE#         490
  C:2B07H         LINE#         491
  C:2B08H         LINE#         492
  C:2B0AH         LINE#         496
  C:2B0BH         LINE#         497
  C:2B0CH         LINE#         498
  C:2B0EH         LINE#         499
  C:2B10H         LINE#         505
  C:2B12H         LINE#         506
  C:2B13H         LINE#         507
  C:2B14H         LINE#         508
  C:2B16H         LINE#         510
  C:2B18H         LINE#         511
  C:2B1AH         LINE#         512
  C:2B1BH         LINE#         513
  C:2B1CH         LINE#         516
  C:2B1EH         LINE#         517
  C:2B21H         LINE#         518
  C:2B23H         LINE#         520
  C:2B24H         LINE#         522
  C:2B25H         LINE#         523
  C:2B26H         LINE#         524
  C:2B27H         LINE#         525
  C:2B28H         LINE#         529
  C:2B2AH         LINE#         530
  C:2B2BH         LINE#         531
  C:2B2DH         LINE#         535
  C:2B2FH         LINE#         536
  C:2B30H         LINE#         537
  C:2B31H         LINE#         539
  C:2B33H         LINE#         543
  C:2B35H         LINE#         544
  C:2B37H         LINE#         545
  C:2B38H         LINE#         546
  C:2B39H         LINE#         548
  C:2B3BH         LINE#         549
  C:2B3DH         LINE#         555
  C:2B40H         LINE#         559
  C:2B42H         LINE#         560
  C:2B43H         LINE#         561
  C:2B45H         LINE#         562
  C:2B46H         LINE#         563
  C:2B48H         LINE#         564
  C:2B4AH         LINE#         565
  C:2B4BH         LINE#         567
  C:2B4EH         LINE#         571
  C:2B51H         LINE#         572
  C:2B54H         LINE#         576
BL51 BANKED LINKER/LOCATER V6.00                                                      07/28/2017  09:58:56  PAGE 15


  C:2B56H         LINE#         577
  C:2B59H         LINE#         578
  C:2B5CH         LINE#         580
  C:2B5EH         LINE#         581
  C:2B60H         LINE#         583
  C:2B62H         LINE#         584
  C:2B63H         LINE#         585
  C:2B65H         LINE#         587
  C:2B67H         LINE#         588
  C:2B69H         LINE#         594
  C:2B6BH         LINE#         595
  C:2B6CH         LINE#         608
  C:2B6DH         LINE#         609
  C:2B6FH         LINE#         614
  C:2B71H         LINE#         615
  C:2B73H         LINE#         616
  C:2B75H         LINE#         617
  C:2B77H         LINE#         618
  C:2B79H         LINE#         619
  C:2B7BH         LINE#         620
  C:2B7DH         LINE#         621
  C:2B7FH         LINE#         622
  C:2B81H         LINE#         623
  C:2B83H         LINE#         624
  C:2B85H         LINE#         625
  C:2B87H         LINE#         626
  C:2B89H         LINE#         627
  C:2B8BH         LINE#         628
  C:2B8CH         LINE#         642
  C:2B8EH         LINE#         643
  C:2B90H         LINE#         644
  C:2B92H         LINE#         645
  C:2B94H         LINE#         646
  C:2B95H         LINE#         647
  C:2B96H         LINE#         648
  C:2B98H         LINE#         649
  C:2B9AH         LINE#         650
  C:2B9CH         LINE#         651
  C:2B9DH         LINE#         652
  C:2B9FH         LINE#         653
  C:2BA0H         LINE#         654
  C:2BA1H         LINE#         655
  C:2BA2H         LINE#         656
  C:2BA3H         LINE#         657
  C:2BA5H         LINE#         658
  C:2BA7H         LINE#         659
  C:2BA9H         LINE#         660
  C:2BACH         LINE#         661
  C:2BAEH         LINE#         662
  C:2BAFH         LINE#         663
  C:2BB1H         LINE#         664
  C:2BB2H         LINE#         665
  C:2BB3H         LINE#         666
  C:2BB5H         LINE#         668
  C:2BB8H         LINE#         670
  C:2BBBH         LINE#         671
  C:2BBEH         LINE#         672
BL51 BANKED LINKER/LOCATER V6.00                                                      07/28/2017  09:58:56  PAGE 16


  C:2BC1H         LINE#         673
  C:2BC3H         LINE#         674
  C:2BC5H         LINE#         675
  C:2BC7H         LINE#         676
  -------         ENDMOD        ?RTX51_TINY_KERNAL

  -------         MODULE        PID
  C:0000H         SYMBOL        _ICE_DUMMY_
  D:0080H         PUBLIC        P0
  D:0090H         PUBLIC        P1
  D:00A0H         PUBLIC        P2
  C:46A8H         PUBLIC        _setKi
  D:00B0H         PUBLIC        P3
  C:4A66H         PUBLIC        _getErrLast
  D:00C0H         PUBLIC        P4
  D:00C8H         PUBLIC        P5
  D:00E8H         PUBLIC        P6
  D:00F8H         PUBLIC        P7
  C:4666H         PUBLIC        _setParameterUpperLimit
  C:46C9H         PUBLIC        _setKp
  D:00A8H         PUBLIC        IE
  C:4C3BH         PUBLIC        _openPID
  D:00B8H         PUBLIC        IP
  D:00D8H         PUBLIC        CCON
  D:0098H         PUBLIC        SCON
  D:0088H         PUBLIC        TCON
  C:28B9H         PUBLIC        _Incremental_PID
  C:2BC9H         PUBLIC        _PID_config
  C:4645H         PUBLIC        _setParameterInferiorLimit
  D:00F0H         PUBLIC        B
  D:00E0H         PUBLIC        ACC
  C:4687H         PUBLIC        _setActualParameter
  C:4ACEH         PUBLIC        _getOutput
  C:21A8H         PUBLIC        _PID
  X:028CH         SYMBOL        g_pid_n_info
  C:4A32H         PUBLIC        _getParameter
  C:4A4CH         PUBLIC        _getErr
  C:4AB4H         PUBLIC        _getKd
  C:470BH         PUBLIC        _setParameter
  C:4A9AH         PUBLIC        _getKi
  C:4C95H         PUBLIC        _closePID
  D:00D0H         PUBLIC        PSW
  C:4AE8H         PUBLIC        _getIntegral
  C:4A80H         PUBLIC        _getKp
  C:46EAH         PUBLIC        _setKd
  -------         PROC          _PID_CONFIG
  D:0003H         SYMBOL        PID_N
  X:04B5H         SYMBOL        kp
  X:04B9H         SYMBOL        ki
  X:04BDH         SYMBOL        kd
  C:2BC9H         LINE#         51
  C:2BCBH         LINE#         52
  C:2BCBH         LINE#         53
  C:2BE0H         LINE#         54
  C:2BF5H         LINE#         55
  C:2C0AH         LINE#         56
  C:2C1FH         LINE#         57
BL51 BANKED LINKER/LOCATER V6.00                                                      07/28/2017  09:58:56  PAGE 17


  C:2C34H         LINE#         58
  C:2C53H         LINE#         59
  C:2C72H         LINE#         60
  C:2C91H         LINE#         61
  C:2CBBH         LINE#         62
  C:2CE5H         LINE#         63
  -------         ENDPROC       _PID_CONFIG
  -------         PROC          _OPENPID
  D:0007H         SYMBOL        PID_N
  C:4C3BH         LINE#         73
  C:4C3BH         LINE#         74
  C:4C3BH         LINE#         75
  C:4C4CH         LINE#         77
  -------         ENDPROC       _OPENPID
  -------         PROC          _CLOSEPID
  D:0007H         SYMBOL        PID_N
  C:4C95H         LINE#         86
  C:4C95H         LINE#         87
  C:4C95H         LINE#         88
  C:4CA5H         LINE#         91
  -------         ENDPROC       _CLOSEPID
  -------         PROC          _PID
  X:058CH         SYMBOL        PID_N
  C:21A8H         LINE#         100
  C:21ADH         LINE#         101
  C:21ADH         LINE#         104
  C:21C0H         LINE#         105
  C:21C0H         LINE#         107
  C:220EH         LINE#         123
  C:2251H         LINE#         126
  C:2356H         LINE#         129
  C:2380H         LINE#         132
  C:2381H         LINE#         133
  C:2381H         LINE#         135
  -------         ENDPROC       _PID
  -------         PROC          _INCREMENTAL_PID
  X:058DH         SYMBOL        PID_N
  C:28B9H         LINE#         145
  C:28BEH         LINE#         146
  C:28BEH         LINE#         147
  C:28D1H         LINE#         148
  C:28D1H         LINE#         149
  C:291FH         LINE#         150
  C:2A01H         LINE#         153
  C:2A2BH         LINE#         154
  C:2A55H         LINE#         155
  C:2A56H         LINE#         156
  C:2A56H         LINE#         157
  -------         ENDPROC       _INCREMENTAL_PID
  -------         PROC          _SETPARAMETERINFERIORLIMIT
  D:0003H         SYMBOL        PID_N
  X:0526H         SYMBOL        value
  C:4645H         LINE#         168
  C:4647H         LINE#         169
  C:4647H         LINE#         170
  -------         ENDPROC       _SETPARAMETERINFERIORLIMIT
  -------         PROC          _SETPARAMETERUPPERLIMIT
BL51 BANKED LINKER/LOCATER V6.00                                                      07/28/2017  09:58:56  PAGE 18


  D:0003H         SYMBOL        PID_N
  X:052BH         SYMBOL        value
  C:4666H         LINE#         182
  C:4668H         LINE#         183
  C:4668H         LINE#         184
  -------         ENDPROC       _SETPARAMETERUPPERLIMIT
  -------         PROC          _SETACTUALPARAMETER
  D:0003H         SYMBOL        PID_N
  X:0530H         SYMBOL        value
  C:4687H         LINE#         197
  C:4689H         LINE#         198
  C:4689H         LINE#         199
  -------         ENDPROC       _SETACTUALPARAMETER
  -------         PROC          _SETKI
  D:0003H         SYMBOL        PID_N
  X:0535H         SYMBOL        value
  C:46A8H         LINE#         212
  C:46AAH         LINE#         213
  C:46AAH         LINE#         214
  -------         ENDPROC       _SETKI
  -------         PROC          _SETKP
  D:0003H         SYMBOL        PID_N
  X:053AH         SYMBOL        value
  C:46C9H         LINE#         226
  C:46CBH         LINE#         227
  C:46CBH         LINE#         228
  -------         ENDPROC       _SETKP
  -------         PROC          _SETKD
  D:0003H         SYMBOL        PID_N
  X:053FH         SYMBOL        value
  C:46EAH         LINE#         240
  C:46ECH         LINE#         241
  C:46ECH         LINE#         242
  -------         ENDPROC       _SETKD
  -------         PROC          _SETPARAMETER
  D:0003H         SYMBOL        PID_N
  X:0544H         SYMBOL        value
  C:470BH         LINE#         254
  C:470DH         LINE#         255
  C:470DH         LINE#         256
  -------         ENDPROC       _SETPARAMETER
  -------         PROC          _GETPARAMETER
  D:0007H         SYMBOL        PID_N
  C:4A32H         LINE#         268
  C:4A32H         LINE#         269
  C:4A32H         LINE#         270
  C:4A4BH         LINE#         271
  -------         ENDPROC       _GETPARAMETER
  -------         PROC          _GETERR
  D:0007H         SYMBOL        PID_N
  C:4A4CH         LINE#         281
  C:4A4CH         LINE#         282
  C:4A4CH         LINE#         283
  C:4A65H         LINE#         284
  -------         ENDPROC       _GETERR
  -------         PROC          _GETERRLAST
  D:0007H         SYMBOL        PID_N
BL51 BANKED LINKER/LOCATER V6.00                                                      07/28/2017  09:58:56  PAGE 19


  C:4A66H         LINE#         294
  C:4A66H         LINE#         295
  C:4A66H         LINE#         296
  C:4A7FH         LINE#         297
  -------         ENDPROC       _GETERRLAST
  -------         PROC          _GETKP
  D:0007H         SYMBOL        PID_N
  C:4A80H         LINE#         306
  C:4A80H         LINE#         307
  C:4A80H         LINE#         308
  C:4A99H         LINE#         309
  -------         ENDPROC       _GETKP
  -------         PROC          _GETKI
  D:0007H         SYMBOL        PID_N
  C:4A9AH         LINE#         319
  C:4A9AH         LINE#         320
  C:4A9AH         LINE#         321
  C:4AB3H         LINE#         322
  -------         ENDPROC       _GETKI
  -------         PROC          _GETKD
  D:0007H         SYMBOL        PID_N
  C:4AB4H         LINE#         332
  C:4AB4H         LINE#         333
  C:4AB4H         LINE#         334
  C:4ACDH         LINE#         335
  -------         ENDPROC       _GETKD
  -------         PROC          _GETOUTPUT
  D:0007H         SYMBOL        PID_N
  C:4ACEH         LINE#         345
  C:4ACEH         LINE#         346
  C:4ACEH         LINE#         347
  C:4AE7H         LINE#         348
  -------         ENDPROC       _GETOUTPUT
  -------         PROC          _GETINTEGRAL
  D:0007H         SYMBOL        PID_N
  C:4AE8H         LINE#         358
  C:4AE8H         LINE#         359
  C:4AE8H         LINE#         360
  C:4B01H         LINE#         361
  -------         ENDPROC       _GETINTEGRAL
  -------         ENDMOD        PID

  -------         MODULE        FILTER
  C:0000H         SYMBOL        _ICE_DUMMY_
  D:0080H         PUBLIC        P0
  D:0090H         PUBLIC        P1
  D:00A0H         PUBLIC        P2
  D:00B0H         PUBLIC        P3
  D:00C0H         PUBLIC        P4
  D:00C8H         PUBLIC        P5
  D:00E8H         PUBLIC        P6
  D:00F8H         PUBLIC        P7
  C:2E4CH         PUBLIC        _filter
  D:00A8H         PUBLIC        IE
  D:00B8H         PUBLIC        IP
  D:00D8H         PUBLIC        CCON
  D:0098H         PUBLIC        SCON
BL51 BANKED LINKER/LOCATER V6.00                                                      07/28/2017  09:58:56  PAGE 20


  D:0088H         PUBLIC        TCON
  D:00F0H         PUBLIC        B
  D:00E0H         PUBLIC        ACC
  D:00D0H         PUBLIC        PSW
  -------         PROC          _FILTER
  D:0001H         SYMBOL        ary
  X:048CH         SYMBOL        num
  X:048DH         SYMBOL        MaxValue
  X:048FH         SYMBOL        MinValue
  -------         DO            
  X:0491H         SYMBOL        angleDataloopTemp2
  X:0493H         SYMBOL        finalData
  X:0495H         SYMBOL        maxValue
  X:0497H         SYMBOL        minValue
  -------         ENDDO         
  C:2E4CH         LINE#         2
  C:2E51H         LINE#         3
  C:2E51H         LINE#         5
  C:2E58H         LINE#         6
  C:2E67H         LINE#         7
  C:2E76H         LINE#         8
  C:2E98H         LINE#         9
  C:2E98H         LINE#         10
  C:2EB4H         LINE#         11
  C:2EB4H         LINE#         12
  C:2ED1H         LINE#         13
  C:2ED1H         LINE#         14
  C:2EF3H         LINE#         15
  C:2EF3H         LINE#         16
  C:2F10H         LINE#         17
  C:2F10H         LINE#         18
  C:2F32H         LINE#         19
  C:2F46H         LINE#         20
  C:2F6BH         LINE#         21
  C:2F81H         LINE#         22
  C:2F81H         LINE#         23
  -------         ENDPROC       _FILTER
  -------         ENDMOD        FILTER

  -------         MODULE        DATASCOPE_DP
  C:0000H         SYMBOL        _ICE_DUMMY_
  D:0080H         PUBLIC        P0
  D:0090H         PUBLIC        P1
  D:00A0H         PUBLIC        P2
  D:00B0H         PUBLIC        P3
  D:00C0H         PUBLIC        P4
  D:00C8H         PUBLIC        P5
  D:00E8H         PUBLIC        P6
  D:00F8H         PUBLIC        P7
  X:038CH         PUBLIC        DataScope_OutPut_Buffer
  D:00A8H         PUBLIC        IE
  D:00B8H         PUBLIC        IP
  D:00D8H         PUBLIC        CCON
  C:436EH         PUBLIC        _sendScopeData
  D:0098H         PUBLIC        SCON
  D:0088H         PUBLIC        TCON
  D:00F0H         PUBLIC        B
BL51 BANKED LINKER/LOCATER V6.00                                                      07/28/2017  09:58:56  PAGE 21


  C:363CH         PUBLIC        _Float2Byte
  D:00E0H         PUBLIC        ACC
  C:36E6H         PUBLIC        _DataScope_Data_Generate
  C:2F82H         PUBLIC        _DataScope_Get_Channel_Data
  D:00D0H         PUBLIC        PSW
  -------         PROC          _FLOAT2BYTE
  D:0001H         SYMBOL        target
  X:04CFH         SYMBOL        buf
  X:04D2H         SYMBOL        beg
  -------         DO            
  X:04D3H         SYMBOL        point
  -------         ENDDO         
  C:363CH         LINE#         26
  C:363CH         LINE#         27
  C:363CH         LINE#         29
  C:3647H         LINE#         30
  C:3665H         LINE#         31
  C:3691H         LINE#         32
  C:36BDH         LINE#         33
  -------         ENDPROC       _FLOAT2BYTE
  -------         PROC          _SENDSCOPEDATA
  D:0004H         SYMBOL        Data
  X:0517H         SYMBOL        channel
  -------         DO            
  X:0518H         SYMBOL        a
  -------         ENDDO         
  C:436EH         LINE#         43
  C:436EH         LINE#         44
  C:436EH         LINE#         47
  C:4379H         LINE#         49
  C:438FH         LINE#         50
  C:438FH         LINE#         51
  C:439EH         LINE#         52
  C:43A6H         LINE#         54
  -------         ENDPROC       _SENDSCOPEDATA
  -------         PROC          _DATASCOPE_GET_CHANNEL_DATA
  X:0548H         SYMBOL        Data
  X:054CH         SYMBOL        Channel
  C:2F82H         LINE#         60
  C:2F88H         LINE#         61
  C:2F88H         LINE#         62
  C:2F9BH         LINE#         63
  C:2F9BH         LINE#         65
  C:2F9BH         LINE#         67
  C:2F9BH         LINE#         68
  C:2FD1H         LINE#         69
  C:2FD1H         LINE#         70
  C:2FD1H         LINE#         71
  C:2FE4H         LINE#         72
  C:2FE7H         LINE#         73
  C:2FE7H         LINE#         74
  C:2FFBH         LINE#         75
  C:2FFEH         LINE#         76
  C:2FFEH         LINE#         77
  C:3012H         LINE#         78
  C:3015H         LINE#         79
  C:3015H         LINE#         80
BL51 BANKED LINKER/LOCATER V6.00                                                      07/28/2017  09:58:56  PAGE 22


  C:3029H         LINE#         81
  C:302CH         LINE#         82
  C:302CH         LINE#         83
  C:3040H         LINE#         84
  C:3042H         LINE#         85
  C:3042H         LINE#         86
  C:3056H         LINE#         87
  C:3058H         LINE#         88
  C:3058H         LINE#         89
  C:306CH         LINE#         90
  C:306EH         LINE#         91
  C:306EH         LINE#         92
  C:3082H         LINE#         93
  C:3084H         LINE#         94
  C:3084H         LINE#         95
  C:3098H         LINE#         96
  C:309AH         LINE#         97
  C:309AH         LINE#         98
  C:30B5H         LINE#         99
  C:30B5H         LINE#         100
  C:30B5H         LINE#         101
  C:30B5H         LINE#         102
  -------         ENDPROC       _DATASCOPE_GET_CHANNEL_DATA
  -------         PROC          _DATASCOPE_DATA_GENERATE
  D:0007H         SYMBOL        Channel_Number
  C:36E6H         LINE#         107
  C:36E6H         LINE#         108
  C:36E6H         LINE#         109
  C:36EFH         LINE#         110
  C:36EFH         LINE#         111
  C:36F2H         LINE#         112
  C:36F2H         LINE#         114
  C:36F2H         LINE#         115
  C:36F8H         LINE#         116
  C:372EH         LINE#         117
  C:372EH         LINE#         118
  C:372EH         LINE#         119
  C:3734H         LINE#         120
  C:3737H         LINE#         121
  C:3737H         LINE#         122
  C:3737H         LINE#         123
  C:373DH         LINE#         124
  C:3740H         LINE#         125
  C:3740H         LINE#         126
  C:3740H         LINE#         127
  C:3746H         LINE#         128
  C:3749H         LINE#         129
  C:3749H         LINE#         130
  C:3749H         LINE#         131
  C:374FH         LINE#         132
  C:3752H         LINE#         133
  C:3752H         LINE#         134
  C:3752H         LINE#         135
  C:3758H         LINE#         136
  C:375BH         LINE#         137
  C:375BH         LINE#         138
  C:375BH         LINE#         139
BL51 BANKED LINKER/LOCATER V6.00                                                      07/28/2017  09:58:56  PAGE 23


  C:3761H         LINE#         140
  C:3764H         LINE#         141
  C:3764H         LINE#         142
  C:3764H         LINE#         143
  C:376AH         LINE#         144
  C:376DH         LINE#         145
  C:376DH         LINE#         146
  C:376DH         LINE#         147
  C:3773H         LINE#         148
  C:3776H         LINE#         149
  C:3776H         LINE#         150
  C:3776H         LINE#         151
  C:377CH         LINE#         152
  C:377FH         LINE#         153
  C:377FH         LINE#         154
  C:377FH         LINE#         155
  C:3785H         LINE#         156
  C:3788H         LINE#         157
  C:3788H         LINE#         158
  C:3788H         LINE#         159
  C:3788H         LINE#         160
  C:378AH         LINE#         161
  -------         ENDPROC       _DATASCOPE_DATA_GENERATE
  -------         ENDMOD        DATASCOPE_DP

  -------         MODULE        STORAGE
  C:0000H         SYMBOL        _ICE_DUMMY_
  D:0080H         PUBLIC        P0
  D:0090H         PUBLIC        P1
  D:00A0H         PUBLIC        P2
  D:00B0H         PUBLIC        P3
  D:00C0H         PUBLIC        P4
  D:00C8H         PUBLIC        P5
  D:00E8H         PUBLIC        P6
  D:00F8H         PUBLIC        P7
  D:00A8H         PUBLIC        IE
  D:00B8H         PUBLIC        IP
  D:00D8H         PUBLIC        CCON
  C:4C4DH         PUBLIC        _writeData
  D:0098H         PUBLIC        SCON
  D:0088H         PUBLIC        TCON
  D:00F0H         PUBLIC        B
  D:00E0H         PUBLIC        ACC
  D:00D0H         PUBLIC        PSW
  -------         PROC          _WRITEDATA
  X:054DH         SYMBOL        add
  X:054FH         SYMBOL        Data
  C:4C4DH         LINE#         3
  C:4C5EH         LINE#         4
  C:4C5EH         LINE#         6
  -------         ENDPROC       _WRITEDATA
  -------         ENDMOD        STORAGE

  -------         MODULE        BUTTON
  C:0000H         SYMBOL        _ICE_DUMMY_
  D:0080H         PUBLIC        P0
  D:0090H         PUBLIC        P1
BL51 BANKED LINKER/LOCATER V6.00                                                      07/28/2017  09:58:56  PAGE 24


  D:00A0H         PUBLIC        P2
  D:00B0H         PUBLIC        P3
  D:00C0H         PUBLIC        P4
  D:00C8H         PUBLIC        P5
  D:00E8H         PUBLIC        P6
  D:00F8H         PUBLIC        P7
  D:00A8H         PUBLIC        IE
  D:00B8H         PUBLIC        IP
  D:00D8H         PUBLIC        CCON
  C:402CH         PUBLIC        buttonScan
  B:0020H.0       SYMBOL        BUTTON1_bit
  B:0020H.1       SYMBOL        BUTTON2_bit
  B:0020H.2       SYMBOL        BUTTON3_bit
  B:0020H.3       SYMBOL        BUTTON4_bit
  D:0098H         PUBLIC        SCON
  B:00A0H.3       PUBLIC        P23
  D:0088H         PUBLIC        TCON
  B:00A0H.4       PUBLIC        P24
  B:00A0H.5       PUBLIC        P25
  B:00A0H.6       PUBLIC        P26
  D:00F0H         PUBLIC        B
  C:48C1H         PUBLIC        _getButtonState
  D:00E0H         PUBLIC        ACC
  C:47ADH         PUBLIC        Button_config
  C:4D6CH         SYMBOL        _digitalRead
  D:00D0H         PUBLIC        PSW
  -------         PROC          BUTTON_CONFIG
  -------         DO            
  X:057AH         SYMBOL        GPIO_InitStructure
  -------         ENDDO         
  C:47ADH         LINE#         25
  C:47ADH         LINE#         26
  C:47ADH         LINE#         28
  C:47B3H         LINE#         29
  C:47B8H         LINE#         30
  C:47C3H         LINE#         31
  C:47C5H         LINE#         32
  C:47C7H         LINE#         33
  C:47C9H         LINE#         34
  C:47CBH         LINE#         35
  -------         ENDPROC       BUTTON_CONFIG
  -------         PROC          _DIGITALREAD
  D:0006H         SYMBOL        pin
  C:4D6CH         LINE#         43
  C:4D6CH         LINE#         44
  C:4D6CH         LINE#         45
  C:4D70H         LINE#         46
  C:4D70H         LINE#         47
  C:4D75H         LINE#         48
  C:4D75H         LINE#         49
  -------         ENDPROC       _DIGITALREAD
  -------         PROC          _GETBUTTONSTATE
  D:0007H         SYMBOL        BUTTON_data
  C:48C1H         LINE#         61
  C:48C1H         LINE#         62
  C:48C1H         LINE#         63
  C:48D2H         LINE#         64
BL51 BANKED LINKER/LOCATER V6.00                                                      07/28/2017  09:58:56  PAGE 25


  C:48D2H         LINE#         65
  C:48D2H         LINE#         66
  C:48D5H         LINE#         67
  C:48D5H         LINE#         68
  C:48D5H         LINE#         69
  C:48D8H         LINE#         70
  C:48D8H         LINE#         71
  C:48D8H         LINE#         72
  C:48DBH         LINE#         73
  C:48DBH         LINE#         74
  C:48DBH         LINE#         75
  C:48DDH         LINE#         76
  C:48DDH         LINE#         77
  C:48DDH         LINE#         78
  -------         ENDPROC       _GETBUTTONSTATE
  -------         PROC          BUTTONSCAN
  C:402CH         LINE#         88
  C:402CH         LINE#         89
  C:402CH         LINE#         90
  C:4037H         LINE#         91
  C:4037H         LINE#         92
  C:4041H         LINE#         93
  C:4041H         LINE#         97
  C:4043H         LINE#         98
  C:4043H         LINE#         99
  C:4045H         LINE#         101
  C:4045H         LINE#         102
  C:4047H         LINE#         103
  C:4047H         LINE#         104
  C:4052H         LINE#         105
  C:4052H         LINE#         106
  C:4055H         LINE#         107
  C:4055H         LINE#         111
  C:4057H         LINE#         112
  C:4057H         LINE#         113
  C:4059H         LINE#         115
  C:4059H         LINE#         116
  C:405BH         LINE#         117
  C:405BH         LINE#         118
  C:4066H         LINE#         119
  C:4066H         LINE#         120
  C:4069H         LINE#         121
  C:4069H         LINE#         125
  C:406BH         LINE#         127
  C:406BH         LINE#         128
  C:406DH         LINE#         130
  C:406DH         LINE#         131
  C:406FH         LINE#         132
  C:406FH         LINE#         133
  C:407AH         LINE#         134
  C:407AH         LINE#         135
  C:407DH         LINE#         136
  C:407DH         LINE#         140
  C:407FH         LINE#         142
  C:407FH         LINE#         143
  C:4080H         LINE#         145
  C:4080H         LINE#         146
BL51 BANKED LINKER/LOCATER V6.00                                                      07/28/2017  09:58:56  PAGE 26


  C:4082H         LINE#         147
  C:4082H         LINE#         148
  -------         ENDPROC       BUTTONSCAN
  -------         ENDMOD        BUTTON

  -------         MODULE        LED
  C:0000H         SYMBOL        _ICE_DUMMY_
  D:0080H         PUBLIC        P0
  D:0090H         PUBLIC        P1
  D:00A0H         PUBLIC        P2
  D:00B0H         PUBLIC        P3
  D:00C0H         PUBLIC        P4
  D:00C8H         PUBLIC        P5
  B:0021H.2       SYMBOL        Board_LED_State
  D:00E8H         PUBLIC        P6
  D:00F8H         PUBLIC        P7
  D:00A8H         PUBLIC        IE
  C:4623H         PUBLIC        _blink
  C:44C5H         PUBLIC        Board_LED_Init
  D:00B8H         PUBLIC        IP
  C:4DC7H         PUBLIC        close_Board_LED
  D:00D8H         PUBLIC        CCON
  D:0098H         PUBLIC        SCON
  D:0088H         PUBLIC        TCON
  C:4DC2H         PUBLIC        open_Board_LED
  B:00C8H.5       PUBLIC        P55
  D:00F0H         PUBLIC        B
  D:00E0H         PUBLIC        ACC
  C:4DD5H         PUBLIC        getBoard_LED_State
  C:4DA4H         PUBLIC        _Board_LED_PWM
  D:00D0H         PUBLIC        PSW
  -------         PROC          BOARD_LED_INIT
  -------         DO            
  X:057CH         SYMBOL        GPIO_InitStructure
  -------         ENDDO         
  C:44C5H         LINE#         8
  C:44C5H         LINE#         9
  C:44C5H         LINE#         11
  C:44CBH         LINE#         12
  C:44D0H         LINE#         13
  C:44DBH         LINE#         14
  C:44DEH         LINE#         15
  C:44E3H         LINE#         16
  C:44E6H         LINE#         17
  C:44EBH         LINE#         18
  C:44ECH         LINE#         19
  -------         ENDPROC       BOARD_LED_INIT
  -------         PROC          OPEN_BOARD_LED
  C:4DC2H         LINE#         20
  C:4DC2H         LINE#         21
  C:4DC2H         LINE#         22
  C:4DC4H         LINE#         23
  C:4DC6H         LINE#         24
  -------         ENDPROC       OPEN_BOARD_LED
  -------         PROC          CLOSE_BOARD_LED
  C:4DC7H         LINE#         25
  C:4DC7H         LINE#         26
BL51 BANKED LINKER/LOCATER V6.00                                                      07/28/2017  09:58:56  PAGE 27


  C:4DC7H         LINE#         27
  C:4DC9H         LINE#         28
  C:4DCBH         LINE#         30
  -------         ENDPROC       CLOSE_BOARD_LED
  -------         PROC          _BLINK
  X:0599H         SYMBOL        time
  C:4623H         LINE#         31
  C:4628H         LINE#         32
  C:4628H         LINE#         33
  C:4632H         LINE#         34
  C:4632H         LINE#         35
  C:4635H         LINE#         36
  C:463AH         LINE#         37
  C:463DH         LINE#         38
  C:4642H         LINE#         40
  C:4644H         LINE#         41
  -------         ENDPROC       _BLINK
  -------         PROC          GETBOARD_LED_STATE
  C:4DD5H         LINE#         42
  C:4DD5H         LINE#         43
  C:4DD5H         LINE#         44
  C:4DD7H         LINE#         45
  -------         ENDPROC       GETBOARD_LED_STATE
  -------         PROC          _BOARD_LED_PWM
  X:058EH         SYMBOL        luminance
  C:4DA4H         LINE#         46
  C:4DA9H         LINE#         47
  C:4DA9H         LINE#         48
  C:4DA9H         LINE#         49
  C:4DA9H         LINE#         52
  C:4DA9H         LINE#         54
  -------         ENDPROC       _BOARD_LED_PWM
  -------         ENDMOD        LED

  -------         MODULE        MOTOR
  C:0000H         SYMBOL        _ICE_DUMMY_
  D:0080H         PUBLIC        P0
  D:0090H         PUBLIC        P1
  D:00A0H         PUBLIC        P2
  D:00B0H         PUBLIC        P3
  D:00C0H         PUBLIC        P4
  D:00C8H         PUBLIC        P5
  D:00E8H         PUBLIC        P6
  D:00F8H         PUBLIC        P7
  D:00BAH         PUBLIC        P_SW2
  D:00A8H         PUBLIC        IE
  C:4867H         PUBLIC        _open_DC_Motor
  D:00B8H         PUBLIC        IP
  D:00D8H         PUBLIC        CCON
  B:00A0H.2       PUBLIC        P22
  D:0098H         PUBLIC        SCON
  B:00A0H.3       PUBLIC        P23
  D:0088H         PUBLIC        TCON
  C:3A01H         PUBLIC        _setDC_MotorSpeed
  D:00F0H         PUBLIC        B
  X:0566H         SYMBOL        g_DC_Motor
  C:4CEAH         PUBLIC        _getDC_MotorState
BL51 BANKED LINKER/LOCATER V6.00                                                      07/28/2017  09:58:56  PAGE 28


  D:00E0H         PUBLIC        ACC
  C:3E9DH         PUBLIC        DC_MOTOR_config
  C:48DEH         PUBLIC        _close_DC_Motor
  D:00D0H         PUBLIC        PSW
  -------         PROC          _SETDC_MOTORSPEED
  X:0552H         SYMBOL        motor
  X:0553H         SYMBOL        speed
  C:3A01H         LINE#         38
  C:3A06H         LINE#         39
  C:3A06H         LINE#         41
  C:3A21H         LINE#         42
  C:3A21H         LINE#         43
  C:3A2BH         LINE#         44
  C:3A2BH         LINE#         45
  C:3A46H         LINE#         46
  C:3A46H         LINE#         48
  C:3A50H         LINE#         49
  C:3A50H         LINE#         52
  C:3A70H         LINE#         53
  C:3A92H         LINE#         54
  -------         ENDPROC       _SETDC_MOTORSPEED
  -------         PROC          _OPEN_DC_MOTOR
  X:058FH         SYMBOL        motor
  C:4867H         LINE#         55
  C:486CH         LINE#         56
  C:486CH         LINE#         57
  C:4872H         LINE#         58
  C:4884H         LINE#         59
  -------         ENDPROC       _OPEN_DC_MOTOR
  -------         PROC          _CLOSE_DC_MOTOR
  X:0590H         SYMBOL        motor
  C:48DEH         LINE#         60
  C:48E3H         LINE#         61
  C:48E3H         LINE#         62
  C:48E9H         LINE#         63
  C:48FAH         LINE#         67
  -------         ENDPROC       _CLOSE_DC_MOTOR
  -------         PROC          _GETDC_MOTORSTATE
  D:0007H         SYMBOL        motor
  C:4CEAH         LINE#         68
  C:4CEAH         LINE#         69
  C:4CEAH         LINE#         70
  C:4CF9H         LINE#         72
  -------         ENDPROC       _GETDC_MOTORSTATE
  -------         PROC          DC_MOTOR_CONFIG
  -------         DO            
  X:0477H         SYMBOL        GPIO_InitStructure
  X:0479H         SYMBOL        PWM_InitStructure
  -------         ENDDO         
  C:3E9DH         LINE#         80
  C:3E9DH         LINE#         81
  C:3E9DH         LINE#         85
  C:3EA2H         LINE#         88
  C:3EA6H         LINE#         89
  C:3EB1H         LINE#         93
  C:3EB7H         LINE#         94
  C:3EC2H         LINE#         95
BL51 BANKED LINKER/LOCATER V6.00                                                      07/28/2017  09:58:56  PAGE 29


  C:3EC4H         LINE#         96
  C:3EC6H         LINE#         99
  C:3EC9H         LINE#         100
  C:3ECEH         LINE#         101
  C:3ED0H         LINE#         102
  C:3ED2H         LINE#         103
  C:3ED5H         LINE#         104
  C:3ED8H         LINE#         105
  C:3EDAH         LINE#         106
  C:3EDCH         LINE#         107
  C:3EDEH         LINE#         108
  C:3EE0H         LINE#         109
  C:3EE2H         LINE#         110
  C:3EE4H         LINE#         111
  C:3EE6H         LINE#         112
  C:3EE8H         LINE#         113
  C:3EEAH         LINE#         114
  C:3EECH         LINE#         115
  C:3EEEH         LINE#         116
  C:3EF9H         LINE#         117
  C:3F04H         LINE#         119
  C:3F07H         LINE#         122
  -------         ENDPROC       DC_MOTOR_CONFIG
  -------         ENDMOD        MOTOR

  -------         MODULE        SERVO
  C:0000H         SYMBOL        _ICE_DUMMY_
  D:0080H         PUBLIC        P0
  D:0090H         PUBLIC        P1
  D:00A0H         PUBLIC        P2
  D:00B0H         PUBLIC        P3
  D:00C0H         PUBLIC        P4
  D:00C8H         PUBLIC        P5
  D:00E8H         PUBLIC        P6
  D:00F8H         PUBLIC        P7
  D:00BAH         PUBLIC        P_SW2
  D:00A8H         PUBLIC        IE
  C:474DH         PUBLIC        _open_STR
  C:31E1H         PUBLIC        _set_STR_angle
  D:00B8H         PUBLIC        IP
  D:00D8H         PUBLIC        CCON
  C:2382H         PUBLIC        _Init_Str_Motor
  D:0098H         PUBLIC        SCON
  D:0088H         PUBLIC        TCON
  B:00B0H.7       PUBLIC        P37
  D:00F0H         PUBLIC        B
  D:00E0H         PUBLIC        ACC
  C:4B02H         PUBLIC        _read_STR_angle
  X:0306H         SYMBOL        str_motor
  C:47CCH         PUBLIC        _close_STR
  D:00D0H         PUBLIC        PSW
  -------         PROC          _INIT_STR_MOTOR
  X:03B6H         SYMBOL        MOTOR
  X:03B7H         SYMBOL        pl
  X:03BBH         SYMBOL        ph
  X:03BFH         SYMBOL        ma
  X:03C3H         SYMBOL        n
BL51 BANKED LINKER/LOCATER V6.00                                                      07/28/2017  09:58:56  PAGE 30


  -------         DO            
  X:03C5H         SYMBOL        GPIO_InitStructure
  X:03C7H         SYMBOL        PWM_InitStructure
  -------         ENDDO         
  C:2382H         LINE#         43
  C:2387H         LINE#         44
  C:2387H         LINE#         47
  C:238CH         LINE#         48
  C:2390H         LINE#         49
  C:239BH         LINE#         54
  C:239DH         LINE#         56
  C:23A0H         LINE#         57
  C:23A5H         LINE#         58
  C:23A7H         LINE#         59
  C:23A9H         LINE#         60
  C:23ACH         LINE#         61
  C:23AFH         LINE#         62
  C:23B1H         LINE#         63
  C:23B3H         LINE#         64
  C:23B5H         LINE#         65
  C:23B7H         LINE#         66
  C:23B9H         LINE#         67
  C:23BDH         LINE#         68
  C:23C0H         LINE#         69
  C:23C2H         LINE#         70
  C:23C4H         LINE#         71
  C:23C6H         LINE#         72
  C:23C8H         LINE#         73
  C:23D6H         LINE#         75
  C:23D9H         LINE#         76
  C:23E3H         LINE#         77
  C:23EFH         LINE#         78
  C:2412H         LINE#         79
  C:2431H         LINE#         80
  C:2450H         LINE#         81
  C:246BH         LINE#         82
  C:24EDH         LINE#         83
  C:2540H         LINE#         84
  C:2555H         LINE#         85
  -------         ENDPROC       _INIT_STR_MOTOR
  -------         PROC          _SET_STR_ANGLE
  X:04D6H         SYMBOL        MOTOR
  X:04D7H         SYMBOL        angle
  -------         DO            
  X:04DBH         SYMBOL        str_duty
  -------         ENDDO         
  C:31E1H         LINE#         96
  C:31E6H         LINE#         97
  C:31E6H         LINE#         99
  C:3207H         LINE#         100
  C:3284H         LINE#         110
  C:3284H         LINE#         111
  C:32ADH         LINE#         112
  C:32C9H         LINE#         113
  C:32C9H         LINE#         114
  -------         ENDPROC       _SET_STR_ANGLE
  -------         PROC          _READ_STR_ANGLE
BL51 BANKED LINKER/LOCATER V6.00                                                      07/28/2017  09:58:56  PAGE 31


  D:0007H         SYMBOL        MOTOR
  C:4B02H         LINE#         125
  C:4B02H         LINE#         126
  C:4B02H         LINE#         127
  C:4B1BH         LINE#         128
  -------         ENDPROC       _READ_STR_ANGLE
  -------         PROC          _OPEN_STR
  X:0591H         SYMBOL        MOTOR
  C:474DH         LINE#         129
  C:4752H         LINE#         130
  C:4752H         LINE#         131
  C:4755H         LINE#         132
  C:476BH         LINE#         133
  C:476CH         LINE#         134
  -------         ENDPROC       _OPEN_STR
  -------         PROC          _CLOSE_STR
  X:0592H         SYMBOL        MOTOR
  C:47CCH         LINE#         135
  C:47D1H         LINE#         136
  C:47D1H         LINE#         137
  C:47D4H         LINE#         138
  C:47E9H         LINE#         139
  C:47EAH         LINE#         140
  -------         ENDPROC       _CLOSE_STR
  -------         ENDMOD        SERVO

  -------         MODULE        STEP_MOTOR
  C:0000H         SYMBOL        _ICE_DUMMY_
  D:0080H         PUBLIC        P0
  D:0090H         PUBLIC        P1
  D:00A0H         PUBLIC        P2
  D:00B0H         PUBLIC        P3
  D:00C0H         PUBLIC        P4
  D:00C8H         PUBLIC        P5
  D:00E8H         PUBLIC        P6
  C:4D0AH         PUBLIC        _setStepMotorState
  D:00F8H         PUBLIC        P7
  C:3F08H         PUBLIC        _setStepMotorWithAngle
  D:00A8H         PUBLIC        IE
  B:00A0H.6       PUBLIC        StepMotor_1_LockControl
  B:00A0H.4       PUBLIC        StepMotor_2_LockControl
  D:00B8H         PUBLIC        IP
  X:03D7H         SYMBOL        g_stepMotor
  D:00D8H         PUBLIC        CCON
  C:48FBH         PUBLIC        _close_StepMotor
  C:43A7H         PUBLIC        _setStepMotorWithRound
  C:45B4H         PUBLIC        _setStepMotorWithPulse
  D:0098H         PUBLIC        SCON
  D:0088H         PUBLIC        TCON
  C:4A17H         PUBLIC        _setStepMotorDiversion
  D:00F0H         PUBLIC        B
  B:00A0H.7       PUBLIC        StepMotor_1_DiversionControl
  B:00A0H.5       PUBLIC        StepMotor_2_DiversionControl
  D:00E0H         PUBLIC        ACC
  C:4BDCH         PUBLIC        _open_StepMotor
  C:382EH         PUBLIC        _stepMotor_Init
  C:34C7H         PUBLIC        _setStepMotorWithDistance
BL51 BANKED LINKER/LOCATER V6.00                                                      07/28/2017  09:58:56  PAGE 32


  C:496FH         PUBLIC        _freeStepMotor
  C:498BH         PUBLIC        _lockStepMotor
  C:4CA6H         PUBLIC        _getStepMotorState
  D:00D0H         PUBLIC        PSW
  -------         PROC          _SETSTEPMOTORWITHPULSE
  D:0007H         SYMBOL        motor
  X:04F1H         SYMBOL        pulse
  X:04F5H         SYMBOL        speed
  C:45B4H         LINE#         35
  C:45B4H         LINE#         36
  C:45B4H         LINE#         37
  C:45D7H         LINE#         38
  C:45D8H         LINE#         39
  -------         ENDPROC       _SETSTEPMOTORWITHPULSE
  -------         PROC          _SETSTEPMOTORWITHDISTANCE
  X:04F7H         SYMBOL        motor
  X:04F8H         SYMBOL        distance
  X:04FCH         SYMBOL        speed
  C:34C7H         LINE#         50
  C:34CCH         LINE#         51
  C:34CCH         LINE#         54
  C:358CH         LINE#         56
  C:358DH         LINE#         58
  -------         ENDPROC       _SETSTEPMOTORWITHDISTANCE
  -------         PROC          _SETSTEPMOTORWITHANGLE
  X:04FEH         SYMBOL        motor
  X:04FFH         SYMBOL        angle
  X:0503H         SYMBOL        speed
  C:3F08H         LINE#         69
  C:3F0DH         LINE#         70
  C:3F0DH         LINE#         72
  C:3F6BH         LINE#         73
  C:3F6CH         LINE#         74
  -------         ENDPROC       _SETSTEPMOTORWITHANGLE
  -------         PROC          _SETSTEPMOTORWITHROUND
  D:0007H         SYMBOL        motor
  D:0004H         SYMBOL        round
  X:057EH         SYMBOL        speed
  C:43A7H         LINE#         85
  C:43AFH         LINE#         86
  C:43AFH         LINE#         87
  C:43DEH         LINE#         88
  C:43DFH         LINE#         89
  -------         ENDPROC       _SETSTEPMOTORWITHROUND
  -------         PROC          _SETSTEPMOTORSTATE
  D:0007H         SYMBOL        motor
  D:0005H         SYMBOL        state
  C:4D0AH         LINE#         90
  C:4D0AH         LINE#         91
  C:4D0AH         LINE#         92
  C:4D0DH         LINE#         93
  C:4D0DH         LINE#         94
  C:4D12H         LINE#         95
  C:4D13H         LINE#         97
  C:4D13H         LINE#         98
  C:4D18H         LINE#         99
  C:4D18H         LINE#         100
BL51 BANKED LINKER/LOCATER V6.00                                                      07/28/2017  09:58:56  PAGE 33


  -------         ENDPROC       _SETSTEPMOTORSTATE
  -------         PROC          _GETSTEPMOTORSTATE
  D:0007H         SYMBOL        motor
  C:4CA6H         LINE#         109
  C:4CA6H         LINE#         110
  C:4CA6H         LINE#         111
  C:4CB6H         LINE#         112
  -------         ENDPROC       _GETSTEPMOTORSTATE
  -------         PROC          _SETSTEPMOTORDIVERSION
  D:0007H         SYMBOL        motor
  B:0021H.3       SYMBOL        diversion
  C:4A17H         LINE#         114
  C:4A17H         LINE#         115
  C:4A17H         LINE#         117
  C:4A1AH         LINE#         118
  C:4A1AH         LINE#         119
  C:4A1DH         LINE#         120
  C:4A1DH         LINE#         121
  C:4A1FH         LINE#         122
  C:4A21H         LINE#         124
  C:4A21H         LINE#         125
  C:4A23H         LINE#         126
  C:4A23H         LINE#         127
  C:4A23H         LINE#         128
  C:4A27H         LINE#         129
  C:4A27H         LINE#         130
  C:4A2AH         LINE#         131
  C:4A2AH         LINE#         132
  C:4A2CH         LINE#         133
  C:4A2EH         LINE#         135
  C:4A2EH         LINE#         136
  C:4A30H         LINE#         137
  C:4A30H         LINE#         138
  C:4A30H         LINE#         141
  C:4A31H         LINE#         142
  -------         ENDPROC       _SETSTEPMOTORDIVERSION
  -------         PROC          _CLOSE_STEPMOTOR
  X:0593H         SYMBOL        motor
  C:48FBH         LINE#         151
  C:4900H         LINE#         152
  C:4900H         LINE#         153
  C:4903H         LINE#         154
  C:4917H         LINE#         156
  -------         ENDPROC       _CLOSE_STEPMOTOR
  -------         PROC          _OPEN_STEPMOTOR
  D:0007H         SYMBOL        motor
  C:4BDCH         LINE#         165
  C:4BDCH         LINE#         166
  C:4BDCH         LINE#         167
  C:4BECH         LINE#         168
  -------         ENDPROC       _OPEN_STEPMOTOR
  -------         PROC          _FREESTEPMOTOR
  D:0007H         SYMBOL        motor
  C:496FH         LINE#         178
  C:496FH         LINE#         179
  C:496FH         LINE#         180
  C:4972H         LINE#         181
BL51 BANKED LINKER/LOCATER V6.00                                                      07/28/2017  09:58:56  PAGE 34


  C:4972H         LINE#         182
  C:4974H         LINE#         183
  C:4976H         LINE#         185
  C:4976H         LINE#         186
  C:4978H         LINE#         187
  C:4978H         LINE#         188
  C:4989H         LINE#         189
  C:498AH         LINE#         190
  -------         ENDPROC       _FREESTEPMOTOR
  -------         PROC          _LOCKSTEPMOTOR
  D:0007H         SYMBOL        motor
  C:498BH         LINE#         199
  C:498BH         LINE#         200
  C:498BH         LINE#         201
  C:498EH         LINE#         202
  C:498EH         LINE#         203
  C:4990H         LINE#         204
  C:4992H         LINE#         206
  C:4992H         LINE#         207
  C:4994H         LINE#         208
  C:4994H         LINE#         209
  C:49A5H         LINE#         211
  C:49A6H         LINE#         212
  -------         ENDPROC       _LOCKSTEPMOTOR
  -------         PROC          _STEPMOTOR_INIT
  X:0499H         SYMBOL        motor
  X:049AH         SYMBOL        div
  X:049EH         SYMBOL        driverDiv
  X:049FH         SYMBOL        maxPeriod
  X:04A1H         SYMBOL        bearingDia
  -------         DO            
  X:04A5H         SYMBOL        GPIO_InitStructure
  -------         ENDDO         
  C:382EH         LINE#         224
  C:3833H         LINE#         225
  C:3833H         LINE#         231
  C:3838H         LINE#         232
  C:383CH         LINE#         233
  C:3847H         LINE#         234
  C:386AH         LINE#         235
  C:387FH         LINE#         236
  C:389AH         LINE#         237
  C:38B9H         LINE#         238
  C:38CAH         LINE#         239
  -------         ENDPROC       _STEPMOTOR_INIT
  -------         ENDMOD        STEP_MOTOR

  -------         MODULE        RELAY
  C:0000H         SYMBOL        _ICE_DUMMY_
  D:0080H         PUBLIC        P0
  D:0090H         PUBLIC        P1
  D:00A0H         PUBLIC        P2
  D:00B0H         PUBLIC        P3
  D:00C0H         PUBLIC        P4
  D:00C8H         PUBLIC        P5
  D:00E8H         PUBLIC        P6
  D:00F8H         PUBLIC        P7
BL51 BANKED LINKER/LOCATER V6.00                                                      07/28/2017  09:58:56  PAGE 35


  D:00A8H         PUBLIC        IE
  C:4D28H         PUBLIC        _unSetRelay
  C:4DE4H         PUBLIC        relay_Init
  D:00B8H         PUBLIC        IP
  X:056EH         PUBLIC        relay
  D:00D8H         PUBLIC        CCON
  D:0098H         PUBLIC        SCON
  D:0088H         PUBLIC        TCON
  D:00F0H         PUBLIC        B
  D:00E0H         PUBLIC        ACC
  C:4D19H         PUBLIC        _setRelay
  D:00D0H         PUBLIC        PSW
  -------         PROC          _SETRELAY
  D:0007H         SYMBOL        RELAY
  C:4D19H         LINE#         10
  C:4D19H         LINE#         11
  C:4D19H         LINE#         12
  C:4D26H         LINE#         13
  C:4D27H         LINE#         14
  -------         ENDPROC       _SETRELAY
  -------         PROC          _UNSETRELAY
  D:0007H         SYMBOL        RELAY
  C:4D28H         LINE#         15
  C:4D28H         LINE#         16
  C:4D28H         LINE#         17
  C:4D34H         LINE#         18
  C:4D35H         LINE#         19
  -------         ENDPROC       _UNSETRELAY
  -------         PROC          RELAY_INIT
  C:4DE4H         LINE#         20
  C:4DE4H         LINE#         21
  C:4DE4H         LINE#         23
  -------         ENDPROC       RELAY_INIT
  -------         ENDMOD        RELAY

  -------         MODULE        ANGLE
  C:0000H         SYMBOL        _ICE_DUMMY_
  D:0080H         PUBLIC        P0
  D:0090H         PUBLIC        P1
  D:00A0H         PUBLIC        P2
  D:00B0H         PUBLIC        P3
  D:00C0H         PUBLIC        P4
  D:00C8H         PUBLIC        P5
  D:00E8H         PUBLIC        P6
  D:00F8H         PUBLIC        P7
  D:00A8H         PUBLIC        IE
  D:00B8H         PUBLIC        IP
  C:49A7H         PUBLIC        _ADC_config
  D:00D8H         PUBLIC        CCON
  C:3E23H         PUBLIC        getAngle
  D:0098H         PUBLIC        SCON
  D:0088H         PUBLIC        TCON
  D:00F0H         PUBLIC        B
  D:00E0H         PUBLIC        ACC
  D:00D0H         PUBLIC        PSW
  -------         PROC          _ADC_CONFIG
  D:0007H         SYMBOL        pin
BL51 BANKED LINKER/LOCATER V6.00                                                      07/28/2017  09:58:56  PAGE 36


  D:0005H         SYMBOL        speed
  -------         DO            
  X:0519H         SYMBOL        ADC_InitStructure
  -------         ENDDO         
  C:49A7H         LINE#         27
  C:49A7H         LINE#         28
  C:49A7H         LINE#         30
  C:49ACH         LINE#         31
  C:49AFH         LINE#         32
  C:49B3H         LINE#         33
  C:49B6H         LINE#         34
  C:49B8H         LINE#         35
  C:49BAH         LINE#         36
  -------         ENDPROC       _ADC_CONFIG
  -------         PROC          GETANGLE
  B:0021H.4       SYMBOL        whichAngle
  -------         DO            
  X:043AH         SYMBOL        angleData
  X:044EH         SYMBOL        angleDataloopTemp1
  X:04E8H         SYMBOL        presentAngle
  X:04ECH         SYMBOL        lastAngle
  -------         ENDDO         
  C:3E23H         LINE#         53
  C:3E23H         LINE#         54
  C:3E23H         LINE#         56
  C:3E28H         LINE#         58
  C:3E2BH         LINE#         59
  C:3E2BH         LINE#         61
  C:3E2CH         LINE#         62
  C:3E2CH         LINE#         63
  C:3E45H         LINE#         64
  C:3E51H         LINE#         65
  C:3E77H         LINE#         67
  C:3E89H         LINE#         68
  C:3E8EH         LINE#         69
  C:3E8EH         LINE#         71
  C:3E8EH         LINE#         72
  C:3E9CH         LINE#         73
  C:3E9CH         LINE#         74
  -------         ENDPROC       GETANGLE
  -------         ENDMOD        ANGLE

  -------         MODULE        LCD1602
  C:0000H         SYMBOL        _ICE_DUMMY_
  D:0080H         PUBLIC        P0
  D:0090H         PUBLIC        P1
  D:00B4H         PUBLIC        P4M0
  D:00A0H         PUBLIC        P2
  D:00CAH         PUBLIC        P5M0
  D:00B3H         PUBLIC        P4M1
  D:00B0H         PUBLIC        P3
  D:00C9H         PUBLIC        P5M1
  D:00C0H         PUBLIC        P4
  D:00C8H         PUBLIC        P5
  D:00E8H         PUBLIC        P6
  D:00F8H         PUBLIC        P7
  C:4885H         SYMBOL        LCD1602_GPIO_config
BL51 BANKED LINKER/LOCATER V6.00                                                      07/28/2017  09:58:56  PAGE 37


  B:00C8H.4       PUBLIC        LCD1602_Backlight
  D:00A8H         PUBLIC        IE
  B:00C8H.2       PUBLIC        LCD1602_EN
  C:4918H         PUBLIC        LCD1602_Init
  D:00B8H         PUBLIC        IP
  B:00C8H.0       PUBLIC        LCD1602_RS
  D:00D8H         PUBLIC        CCON
  B:00C8H.1       PUBLIC        LCD1602_RW
  C:49C3H         PUBLIC        _LCD1602_write_char
  D:0098H         PUBLIC        SCON
  D:0088H         PUBLIC        TCON
  D:00F0H         PUBLIC        B
  D:00E0H         PUBLIC        ACC
  C:43E0H         PUBLIC        _LCD1602_write_word
  C:49DFH         SYMBOL        _LCD1602_write_com
  D:00D0H         PUBLIC        PSW
  -------         PROC          _LCD1602_WRITE_CHAR
  X:0594H         SYMBOL        dat
  C:49C3H         LINE#         18
  C:49C8H         LINE#         19
  C:49C8H         LINE#         20
  C:49CAH         LINE#         21
  C:49CFH         LINE#         22
  C:49D5H         LINE#         23
  C:49D7H         LINE#         24
  C:49DCH         LINE#         25
  C:49DEH         LINE#         26
  -------         ENDPROC       _LCD1602_WRITE_CHAR
  -------         PROC          _LCD1602_WRITE_WORD
  X:0571H         SYMBOL        s
  C:43E0H         LINE#         31
  C:43EBH         LINE#         32
  C:43EBH         LINE#         33
  C:43FFH         LINE#         34
  C:43FFH         LINE#         35
  C:4402H         LINE#         36
  C:440CH         LINE#         37
  C:440EH         LINE#         38
  -------         ENDPROC       _LCD1602_WRITE_WORD
  -------         PROC          LCD1602_INIT
  C:4918H         LINE#         40
  C:4918H         LINE#         41
  C:4918H         LINE#         42
  C:491BH         LINE#         43
  C:491DH         LINE#         46
  C:491FH         LINE#         47
  C:4921H         LINE#         48
  C:4926H         LINE#         49
  C:492BH         LINE#         50
  C:4930H         LINE#         51
  -------         ENDPROC       LCD1602_INIT
  -------         PROC          _LCD1602_WRITE_COM
  X:0595H         SYMBOL        com
  C:49DFH         LINE#         59
  C:49E4H         LINE#         60
  C:49E4H         LINE#         61
  C:49E6H         LINE#         62
BL51 BANKED LINKER/LOCATER V6.00                                                      07/28/2017  09:58:56  PAGE 38


  C:49EBH         LINE#         63
  C:49EDH         LINE#         64
  C:49F3H         LINE#         65
  C:49F8H         LINE#         66
  C:49FAH         LINE#         67
  -------         ENDPROC       _LCD1602_WRITE_COM
  -------         PROC          LCD1602_GPIO_CONFIG
  C:4885H         LINE#         69
  C:4885H         LINE#         70
  C:4885H         LINE#         71
  C:4888H         LINE#         72
  C:488BH         LINE#         74
  C:488EH         LINE#         75
  C:4891H         LINE#         77
  C:4894H         LINE#         78
  C:4897H         LINE#         80
  C:489AH         LINE#         81
  C:489DH         LINE#         83
  C:48A0H         LINE#         84
  C:48A2H         LINE#         85
  -------         ENDPROC       LCD1602_GPIO_CONFIG
  -------         ENDMOD        LCD1602

  -------         MODULE        74HC595
  C:0000H         SYMBOL        _ICE_DUMMY_
  D:0080H         PUBLIC        P0
  D:0090H         PUBLIC        P1
  D:00A0H         PUBLIC        P2
  D:00B0H         PUBLIC        P3
  D:00C0H         PUBLIC        P4
  D:00C8H         PUBLIC        P5
  D:00E8H         PUBLIC        P6
  D:00F8H         PUBLIC        P7
  D:00A8H         PUBLIC        IE
  D:00B8H         PUBLIC        IP
  D:00D8H         PUBLIC        CCON
  C:4B84H         PUBLIC        _HC595_Init
  D:0098H         PUBLIC        SCON
  D:0088H         PUBLIC        TCON
  C:4CB7H         PUBLIC        _HC595SendData
  D:00F0H         PUBLIC        B
  D:00E0H         PUBLIC        ACC
  D:00D0H         PUBLIC        PSW
  -------         PROC          _HC595_INIT
  D:0006H         SYMBOL        pin1
  X:056AH         SYMBOL        pin2
  -------         DO            
  X:056CH         SYMBOL        HC595_Pin
  -------         ENDDO         
  C:4B84H         LINE#         16
  C:4B8CH         LINE#         17
  C:4B8CH         LINE#         19
  C:4B8FH         LINE#         20
  C:4B92H         LINE#         21
  -------         ENDPROC       _HC595_INIT
  -------         PROC          _HC595SENDDATA
  X:0596H         SYMBOL        SendVal
BL51 BANKED LINKER/LOCATER V6.00                                                      07/28/2017  09:58:56  PAGE 39


  -------         DO            
  D:0007H         SYMBOL        i
  -------         ENDDO         
  C:4CB7H         LINE#         24
  C:4CBCH         LINE#         25
  C:4CBCH         LINE#         27
  C:4CBEH         LINE#         28
  C:4CBEH         LINE#         29
  C:4CBEH         LINE#         30
  C:4CBEH         LINE#         32
  C:4CBEH         LINE#         34
  C:4CBEH         LINE#         36
  C:4CBEH         LINE#         38
  C:4CC0H         LINE#         40
  C:4CC5H         LINE#         42
  C:4CC7H         LINE#         44
  -------         ENDPROC       _HC595SENDDATA
  -------         ENDMOD        74HC595

  -------         MODULE        LCD5510_V2
  C:0000H         SYMBOL        _ICE_DUMMY_
  D:0080H         PUBLIC        P0
  D:0090H         PUBLIC        P1
  D:00A0H         PUBLIC        P2
  D:00B0H         PUBLIC        P3
  D:00C0H         PUBLIC        P4
  D:00C8H         PUBLIC        P5
  D:00E8H         PUBLIC        P6
  D:00F8H         PUBLIC        P7
  D:00A8H         PUBLIC        IE
  B:00C8H.0       PUBLIC        LCD_CLK
  B:00C8H.1       PUBLIC        LCD_DIN
  C:1CF8H         PUBLIC        Font_code
  C:41B9H         PUBLIC        LCD5510_Init
  D:00B8H         PUBLIC        IP
  C:4BB4H         PUBLIC        _LCD_pos_byte
  C:472CH         PUBLIC        LCD_clr_scr
  D:00D8H         PUBLIC        CCON
  B:00C8H.4       PUBLIC        LCD_RST
  C:4BEFH         PUBLIC        _LCD_clr_row
  D:0098H         PUBLIC        SCON
  D:0088H         PUBLIC        TCON
  B:00C8H.2       PUBLIC        LCD_DC
  D:00F0H         PUBLIC        B
  C:412AH         PUBLIC        _LCD_printsl
  D:00E0H         PUBLIC        ACC
  C:42C1H         PUBLIC        _LCD_printc
  B:00C8H.3       PUBLIC        LCD_CS
  C:4333H         PUBLIC        _LCD_prints
  C:476DH         PUBLIC        _LCD_write_byte
  D:00D0H         PUBLIC        PSW
  -------         PROC          _LCD_WRITE_BYTE
  D:0007H         SYMBOL        wbyte
  D:0005H         SYMBOL        dat_cmd
  -------         DO            
  D:0006H         SYMBOL        i
  -------         ENDDO         
BL51 BANKED LINKER/LOCATER V6.00                                                      07/28/2017  09:58:56  PAGE 40


  C:476DH         LINE#         111
  C:476DH         LINE#         112
  C:476DH         LINE#         115
  C:476FH         LINE#         116
  C:4774H         LINE#         118
  C:4776H         LINE#         119
  C:4776H         LINE#         120
  C:477EH         LINE#         121
  C:4780H         LINE#         123
  C:4782H         LINE#         124
  C:4786H         LINE#         125
  C:4788H         LINE#         126
  C:478AH         LINE#         128
  C:478CH         LINE#         129
  -------         ENDPROC       _LCD_WRITE_BYTE
  -------         PROC          LCD_CLR_SCR
  -------         DO            
  D:0002H         SYMBOL        i
  -------         ENDDO         
  C:472CH         LINE#         164
  C:472CH         LINE#         165
  C:472CH         LINE#         168
  C:4733H         LINE#         169
  C:4738H         LINE#         171
  C:474CH         LINE#         172
  -------         ENDPROC       LCD_CLR_SCR
  -------         PROC          _LCD_CLR_ROW
  D:0007H         SYMBOL        num
  -------         DO            
  D:0004H         SYMBOL        i
  -------         ENDDO         
  C:4BEFH         LINE#         178
  C:4BEFH         LINE#         179
  C:4BEFH         LINE#         182
  C:4BF6H         LINE#         183
  C:4C01H         LINE#         184
  -------         ENDPROC       _LCD_CLR_ROW
  -------         PROC          _LCD_POS_BYTE
  D:0007H         SYMBOL        x
  D:0004H         SYMBOL        y
  C:4BB4H         LINE#         192
  C:4BB6H         LINE#         193
  C:4BB6H         LINE#         194
  C:4BBAH         LINE#         195
  C:4BBEH         LINE#         196
  C:4BC3H         LINE#         197
  -------         ENDPROC       _LCD_POS_BYTE
  -------         PROC          L?0030
  -------         ENDPROC       L?0030
  -------         PROC          _LCD_PRINTC
  D:0007H         SYMBOL        x
  D:0005H         SYMBOL        y
  D:0003H         SYMBOL        c_dat
  -------         DO            
  D:0004H         SYMBOL        i
  -------         ENDDO         
  C:42C1H         LINE#         205
BL51 BANKED LINKER/LOCATER V6.00                                                      07/28/2017  09:58:56  PAGE 41


  C:42C1H         LINE#         206
  C:42C1H         LINE#         209
  C:42C5H         LINE#         210
  C:42CBH         LINE#         212
  C:42CEH         LINE#         213
  C:42F6H         LINE#         214
  -------         ENDPROC       _LCD_PRINTC
  -------         PROC          _LCD_PRINTS
  X:0557H         SYMBOL        x
  X:0558H         SYMBOL        y
  X:0559H         SYMBOL        s_dat
  C:4333H         LINE#         221
  C:4344H         LINE#         222
  C:4344H         LINE#         223
  C:436DH         LINE#         224
  -------         ENDPROC       _LCD_PRINTS
  -------         PROC          _LCD_PRINTSL
  X:055CH         SYMBOL        x
  X:055DH         SYMBOL        y
  X:055EH         SYMBOL        s_dat
  C:412AH         LINE#         231
  C:413BH         LINE#         232
  C:413BH         LINE#         233
  C:414CH         LINE#         234
  C:414CH         LINE#         235
  C:4152H         LINE#         236
  C:415CH         LINE#         237
  C:4169H         LINE#         238
  C:4172H         LINE#         239
  C:4174H         LINE#         240
  -------         ENDPROC       _LCD_PRINTSL
  -------         PROC          LCD5510_INIT
  -------         DO            
  X:0580H         SYMBOL        GPIO_InitStructure
  -------         ENDDO         
  C:41B9H         LINE#         263
  C:41B9H         LINE#         264
  C:41B9H         LINE#         266
  C:41BEH         LINE#         267
  C:41C1H         LINE#         268
  C:41CBH         LINE#         269
  C:41CFH         LINE#         272
  C:41D6H         LINE#         273
  C:41DBH         LINE#         274
  C:41E0H         LINE#         275
  C:41E5H         LINE#         277
  C:41EAH         LINE#         278
  C:41EFH         LINE#         279
  C:41F4H         LINE#         280
  C:41F9H         LINE#         281
  -------         ENDPROC       LCD5510_INIT
  -------         ENDMOD        LCD5510_V2

  -------         MODULE        TM1638
  C:0000H         SYMBOL        _ICE_DUMMY_
  D:000EH         PUBLIC        DisBuffer
  D:0080H         PUBLIC        P0
BL51 BANKED LINKER/LOCATER V6.00                                                      07/28/2017  09:58:56  PAGE 42


  D:0090H         PUBLIC        P1
  D:00A0H         PUBLIC        P2
  D:00B0H         PUBLIC        P3
  D:00C0H         PUBLIC        P4
  D:00C8H         PUBLIC        P5
  D:00E8H         PUBLIC        P6
  D:00F8H         PUBLIC        P7
  D:00A8H         PUBLIC        IE
  D:00B8H         PUBLIC        IP
  C:47EBH         PUBLIC        _setTM1638COM
  D:00D8H         PUBLIC        CCON
  B:0090H.1       PUBLIC        TM1638_CLK
  B:0090H.0       PUBLIC        TM1638_DIO
  D:0098H         PUBLIC        SCON
  D:0088H         PUBLIC        TCON
  C:41FCH         PUBLIC        getTM1638Read
  C:4C5FH         PUBLIC        tab
  B:0090H.2       PUBLIC        TM1638_STB
  D:00F0H         PUBLIC        B
  D:00E0H         PUBLIC        ACC
  C:4DCCH         PUBLIC        CloseTM1638Display
  C:42F7H         PUBLIC        _setTM1638Write
  C:1965H         PUBLIC        _TM1638LedDisplay
  C:440FH         PUBLIC        Init_TM1638
  C:30B6H         PUBLIC        getButtonNum
  D:00D0H         PUBLIC        PSW
  -------         PROC          _SETTM1638WRITE
  X:0582H         SYMBOL        DATA
  -------         DO            
  X:0583H         SYMBOL        i
  -------         ENDDO         
  C:42F7H         LINE#         32
  C:42FCH         LINE#         33
  C:42FCH         LINE#         35
  C:42FFH         LINE#         36
  C:42FFH         LINE#         37
  C:4301H         LINE#         38
  C:4308H         LINE#         39
  C:4310H         LINE#         40
  C:4314H         LINE#         42
  C:4316H         LINE#         43
  C:431DH         LINE#         44
  C:431FH         LINE#         45
  C:4326H         LINE#         46
  C:4332H         LINE#         47
  -------         ENDPROC       _SETTM1638WRITE
  -------         PROC          GETTM1638READ
  -------         DO            
  X:0584H         SYMBOL        i
  X:0585H         SYMBOL        temp
  -------         ENDDO         
  C:41FCH         LINE#         57
  C:41FCH         LINE#         58
  C:41FCH         LINE#         60
  C:4201H         LINE#         61
  C:4203H         LINE#         62
  C:4207H         LINE#         63
BL51 BANKED LINKER/LOCATER V6.00                                                      07/28/2017  09:58:56  PAGE 43


  C:4207H         LINE#         64
  C:420EH         LINE#         65
  C:4210H         LINE#         66
  C:4217H         LINE#         67
  C:421AH         LINE#         68
  C:4221H         LINE#         69
  C:4223H         LINE#         70
  C:422AH         LINE#         71
  C:4236H         LINE#         72
  C:423BH         LINE#         73
  -------         ENDPROC       GETTM1638READ
  -------         PROC          _SETTM1638COM
  X:0597H         SYMBOL        cmd
  C:47EBH         LINE#         83
  C:47F0H         LINE#         84
  C:47F0H         LINE#         85
  C:47F2H         LINE#         86
  C:47F9H         LINE#         87
  C:4801H         LINE#         88
  C:4803H         LINE#         89
  -------         ENDPROC       _SETTM1638COM
  -------         PROC          GETBUTTONNUM
  -------         DO            
  X:051FH         SYMBOL        c
  X:0523H         SYMBOL        i
  X:0524H         SYMBOL        key_value
  -------         ENDDO         
  C:30B6H         LINE#         100
  C:30B6H         LINE#         101
  C:30B6H         LINE#         102
  C:30BBH         LINE#         103
  C:30BDH         LINE#         104
  C:30C2H         LINE#         105
  C:30C7H         LINE#         106
  C:30CCH         LINE#         107
  C:30EAH         LINE#         108
  C:30ECH         LINE#         109
  C:30FDH         LINE#         110
  C:310AH         LINE#         111
  C:311BH         LINE#         112
  C:3128H         LINE#         113
  C:3139H         LINE#         114
  C:3146H         LINE#         115
  C:3157H         LINE#         116
  C:3163H         LINE#         117
  C:3173H         LINE#         118
  C:317FH         LINE#         119
  C:318FH         LINE#         120
  C:319BH         LINE#         121
  C:31ABH         LINE#         122
  C:31B7H         LINE#         123
  C:31C7H         LINE#         124
  C:31D3H         LINE#         125
  C:31D6H         LINE#         126
  C:31DBH         LINE#         127
  C:31E0H         LINE#         128
  -------         ENDPROC       GETBUTTONNUM
BL51 BANKED LINKER/LOCATER V6.00                                                      07/28/2017  09:58:56  PAGE 44


  -------         PROC          INIT_TM1638
  -------         DO            
  X:0598H         SYMBOL        i
  -------         ENDDO         
  C:440FH         LINE#         138
  C:440FH         LINE#         139
  C:440FH         LINE#         141
  C:4414H         LINE#         142
  C:4419H         LINE#         143
  C:441EH         LINE#         144
  C:4420H         LINE#         145
  C:4425H         LINE#         146
  C:442AH         LINE#         147
  C:443BH         LINE#         148
  C:443DH         LINE#         149
  -------         ENDPROC       INIT_TM1638
  -------         PROC          _TM1638LEDDISPLAY
  D:0007H         SYMBOL        ddata0
  D:0005H         SYMBOL        ddata1
  D:0003H         SYMBOL        ddata2
  X:0467H         SYMBOL        ddata3
  X:0468H         SYMBOL        ddata4
  X:0469H         SYMBOL        ddata5
  X:046AH         SYMBOL        ddata6
  X:046BH         SYMBOL        ddata7
  -------         DO            
  X:046CH         SYMBOL        writedata0
  X:046DH         SYMBOL        writedata1
  X:046EH         SYMBOL        writedata2
  X:046FH         SYMBOL        writedata3
  X:0470H         SYMBOL        writedata4
  X:0471H         SYMBOL        writedata5
  X:0472H         SYMBOL        writedata6
  X:0473H         SYMBOL        writedata7
  X:0474H         SYMBOL        data0
  X:0475H         SYMBOL        data1
  X:0476H         SYMBOL        data2
  D:0001H         SYMBOL        data3
  D:0002H         SYMBOL        data4
  D:0003H         SYMBOL        data5
  D:0004H         SYMBOL        data6
  D:0005H         SYMBOL        data7
  -------         ENDDO         
  C:1965H         LINE#         241
  C:1965H         LINE#         244
  C:1965H         LINE#         247
  C:196DH         LINE#         248
  C:1975H         LINE#         249
  C:197DH         LINE#         250
  C:1982H         LINE#         251
  C:1987H         LINE#         252
  C:1987H         LINE#         253
  C:198BH         LINE#         254
  C:198DH         LINE#         256
  C:19EEH         LINE#         259
  C:1A4BH         LINE#         262
  C:1AA7H         LINE#         265
BL51 BANKED LINKER/LOCATER V6.00                                                      07/28/2017  09:58:56  PAGE 45


  C:1B04H         LINE#         268
  C:1B61H         LINE#         271
  C:1BBDH         LINE#         274
  C:1C1AH         LINE#         277
  C:1C7CH         LINE#         280
  C:1C81H         LINE#         281
  C:1C86H         LINE#         282
  C:1C88H         LINE#         283
  C:1C8DH         LINE#         285
  C:1C95H         LINE#         286
  C:1C9AH         LINE#         287
  C:1CA2H         LINE#         288
  C:1CA7H         LINE#         289
  C:1CAFH         LINE#         290
  C:1CB4H         LINE#         291
  C:1CBCH         LINE#         292
  C:1CC1H         LINE#         293
  C:1CC9H         LINE#         294
  C:1CCEH         LINE#         295
  C:1CD6H         LINE#         296
  C:1CDBH         LINE#         297
  C:1CE3H         LINE#         298
  C:1CE8H         LINE#         299
  C:1CF0H         LINE#         300
  C:1CF5H         LINE#         302
  C:1CF7H         LINE#         305
  -------         ENDPROC       _TM1638LEDDISPLAY
  -------         PROC          CLOSETM1638DISPLAY
  C:4DCCH         LINE#         315
  C:4DCCH         LINE#         316
  C:4DCCH         LINE#         317
  -------         ENDPROC       CLOSETM1638DISPLAY
  -------         ENDMOD        TM1638

  -------         MODULE        FIXEDPULSER
  C:0000H         SYMBOL        _ICE_DUMMY_
  D:0080H         PUBLIC        P0
  D:0090H         PUBLIC        P1
  D:00A0H         PUBLIC        P2
  D:00B0H         PUBLIC        P3
  X:040CH         SYMBOL        pulser1Tmp
  D:00C0H         PUBLIC        P4
  X:040EH         SYMBOL        pulser2Tmp
  D:00C8H         PUBLIC        P5
  D:00E8H         PUBLIC        P6
  D:00F8H         PUBLIC        P7
  D:00A8H         PUBLIC        IE
  X:0410H         SYMBOL        count1Tmp
  X:0412H         SYMBOL        count2Tmp
  C:446CH         PUBLIC        PulserInit
  C:4935H         PUBLIC        _closePulser
  D:00B8H         PUBLIC        IP
  D:00D8H         PUBLIC        CCON
  B:0020H.7       SYMBOL        timer2UseBit
  B:0021H.0       SYMBOL        timer3UseBit
  C:48A3H         PUBLIC        _openPulser
  D:0098H         PUBLIC        SCON
BL51 BANKED LINKER/LOCATER V6.00                                                      07/28/2017  09:58:56  PAGE 46


  D:0088H         PUBLIC        TCON
  C:3D2DH         SYMBOL        Pulser_1Int
  C:3DA8H         SYMBOL        Pulser_2Int
  D:00F0H         PUBLIC        B
  D:008EH         PUBLIC        AUXR
  C:4C71H         PUBLIC        _getPulserState
  D:00E0H         PUBLIC        ACC
  D:00D6H         PUBLIC        TH2
  D:00D4H         PUBLIC        TH3
  X:0414H         SYMBOL        tmp
  D:00D7H         PUBLIC        TL2
  D:00D5H         PUBLIC        TL3
  C:32F7H         PUBLIC        _setPulse
  D:00D1H         PUBLIC        T4T3M
  X:0416H         SYMBOL        g_pulser
  D:008FH         PUBLIC        INT_CLKO
  D:00D0H         PUBLIC        PSW
  -------         PROC          _SETPULSE
  D:0003H         SYMBOL        pulser_num
  X:04C2H         SYMBOL        Hz
  X:04C4H         SYMBOL        count
  -------         DO            
  X:04C8H         SYMBOL        timerTmp
  X:04CAH         SYMBOL        TIM_Value
  -------         ENDDO         
  C:32F7H         LINE#         44
  C:3301H         LINE#         45
  C:3301H         LINE#         46
  C:3308H         LINE#         48
  C:3323H         LINE#         49
  C:3342H         LINE#         50
  C:3345H         LINE#         51
  C:3345H         LINE#         52
  C:3355H         LINE#         53
  C:3355H         LINE#         56
  C:337CH         LINE#         57
  C:337EH         LINE#         58
  C:3381H         LINE#         59
  C:338CH         LINE#         60
  C:338EH         LINE#         62
  C:3390H         LINE#         64
  C:3390H         LINE#         65
  C:3392H         LINE#         67
  C:3392H         LINE#         68
  C:3394H         LINE#         70
  C:3394H         LINE#         71
  C:33A4H         LINE#         72
  C:33A4H         LINE#         73
  C:33CBH         LINE#         74
  C:33CDH         LINE#         75
  C:33D0H         LINE#         76
  C:33DBH         LINE#         77
  C:33DDH         LINE#         79
  C:33DFH         LINE#         81
  C:33DFH         LINE#         82
  C:33E1H         LINE#         83
  C:33E1H         LINE#         84
BL51 BANKED LINKER/LOCATER V6.00                                                      07/28/2017  09:58:56  PAGE 47


  C:33E1H         LINE#         86
  C:33E2H         LINE#         87
  -------         ENDPROC       _SETPULSE
  -------         PROC          _OPENPULSER
  D:0007H         SYMBOL        pulser_num
  C:48A3H         LINE#         88
  C:48A3H         LINE#         89
  C:48A3H         LINE#         90
  C:48B4H         LINE#         92
  C:48B7H         LINE#         93
  C:48B7H         LINE#         94
  C:48BAH         LINE#         97
  C:48BCH         LINE#         99
  C:48BCH         LINE#         100
  C:48BFH         LINE#         101
  C:48BFH         LINE#         103
  C:48C0H         LINE#         104
  -------         ENDPROC       _OPENPULSER
  -------         PROC          _CLOSEPULSER
  D:0007H         SYMBOL        pulser_num
  C:4935H         LINE#         105
  C:4935H         LINE#         106
  C:4935H         LINE#         107
  C:4938H         LINE#         108
  C:4938H         LINE#         109
  C:493BH         LINE#         112
  C:493DH         LINE#         114
  C:493DH         LINE#         115
  C:4940H         LINE#         117
  C:4940H         LINE#         118
  C:4950H         LINE#         119
  C:4951H         LINE#         121
  -------         ENDPROC       _CLOSEPULSER
  -------         PROC          _GETPULSERSTATE
  D:0007H         SYMBOL        pulser_num
  C:4C71H         LINE#         122
  C:4C71H         LINE#         123
  C:4C71H         LINE#         125
  C:4C82H         LINE#         127
  -------         ENDPROC       _GETPULSERSTATE
  -------         PROC          PULSERINIT
  -------         DO            
  X:0586H         SYMBOL        GPIO_InitStructure
  -------         ENDDO         
  C:446CH         LINE#         128
  C:446CH         LINE#         129
  C:446CH         LINE#         133
  C:4471H         LINE#         134
  C:4474H         LINE#         135
  C:447EH         LINE#         136
  C:4484H         LINE#         137
  C:448FH         LINE#         138
  C:4494H         LINE#         139
  C:4498H         LINE#         143
  -------         ENDPROC       PULSERINIT
  -------         PROC          PULSER_1INT
  C:3D2DH         LINE#         185
BL51 BANKED LINKER/LOCATER V6.00                                                      07/28/2017  09:58:56  PAGE 48


  C:3D4AH         LINE#         187
  C:3D81H         LINE#         188
  C:3D81H         LINE#         189
  C:3D86H         LINE#         190
  C:3D8DH         LINE#         191
  C:3D8DH         LINE#         193
  -------         ENDPROC       PULSER_1INT
  -------         PROC          PULSER_2INT
  C:3DA8H         LINE#         197
  C:3DC5H         LINE#         199
  C:3DFCH         LINE#         200
  C:3DFCH         LINE#         201
  C:3E01H         LINE#         202
  C:3E08H         LINE#         203
  C:3E08H         LINE#         205
  -------         ENDPROC       PULSER_2INT
  -------         ENDMOD        FIXEDPULSER

  -------         MODULE        ADC
  C:0000H         SYMBOL        _ICE_DUMMY_
  D:0080H         PUBLIC        P0
  D:0090H         PUBLIC        P1
  C:40D7H         PUBLIC        _ADC_Inilize
  D:00A0H         PUBLIC        P2
  D:00B0H         PUBLIC        P3
  D:00C0H         PUBLIC        P4
  D:00C8H         PUBLIC        P5
  D:00E8H         PUBLIC        P6
  D:00F8H         PUBLIC        P7
  B:00A8H.5       PUBLIC        EADC
  D:00A8H         PUBLIC        IE
  D:00BDH         PUBLIC        ADC_RES
  B:00B8H.5       PUBLIC        PADC
  D:00B8H         PUBLIC        IP
  C:4D60H         PUBLIC        _ADC_PowerControl
  D:00D8H         PUBLIC        CCON
  D:00BCH         PUBLIC        ADC_CONTR
  D:0098H         PUBLIC        SCON
  D:0088H         PUBLIC        TCON
  D:00F0H         PUBLIC        B
  D:00E0H         PUBLIC        ACC
  D:009DH         PUBLIC        P1ASF
  D:00BEH         PUBLIC        ADC_RESL
  D:0097H         PUBLIC        PCON2
  C:3FCEH         PUBLIC        _Get_ADC10bitResult
  C:4DD1H         PUBLIC        ADC_int
  D:00D0H         PUBLIC        PSW
  -------         PROC          _ADC_INILIZE
  D:0001H         SYMBOL        ADCx
  C:40D7H         LINE#         22
  C:40D7H         LINE#         23
  C:40D7H         LINE#         24
  C:40DCH         LINE#         25
  C:40EAH         LINE#         26
  C:40F3H         LINE#         27
  C:40F3H         LINE#         28
  C:40F6H         LINE#         29
BL51 BANKED LINKER/LOCATER V6.00                                                      07/28/2017  09:58:56  PAGE 49


  C:40F8H         LINE#         31
  C:40F8H         LINE#         32
  C:40FBH         LINE#         33
  C:40FBH         LINE#         34
  C:4104H         LINE#         35
  C:4104H         LINE#         36
  C:4107H         LINE#         37
  C:4109H         LINE#         39
  C:4109H         LINE#         40
  C:410CH         LINE#         41
  C:410CH         LINE#         42
  C:4115H         LINE#         43
  C:4115H         LINE#         44
  C:4117H         LINE#         45
  C:4119H         LINE#         47
  C:4119H         LINE#         48
  C:411BH         LINE#         49
  C:411BH         LINE#         50
  C:4124H         LINE#         51
  C:4124H         LINE#         52
  C:4126H         LINE#         53
  C:4127H         LINE#         55
  C:4127H         LINE#         56
  C:4129H         LINE#         57
  C:4129H         LINE#         58
  -------         ENDPROC       _ADC_INILIZE
  -------         PROC          _ADC_POWERCONTROL
  D:0007H         SYMBOL        pwr
  C:4D60H         LINE#         66
  C:4D60H         LINE#         67
  C:4D60H         LINE#         68
  C:4D64H         LINE#         69
  C:4D64H         LINE#         70
  C:4D67H         LINE#         71
  C:4D68H         LINE#         73
  C:4D68H         LINE#         74
  C:4D6BH         LINE#         75
  C:4D6BH         LINE#         76
  -------         ENDPROC       _ADC_POWERCONTROL
  -------         PROC          _GET_ADC10BITRESULT
  D:0007H         SYMBOL        channel
  -------         DO            
  D:0004H         SYMBOL        adc
  D:0003H         SYMBOL        i
  -------         ENDDO         
  C:3FCEH         LINE#         84
  C:3FCEH         LINE#         85
  C:3FCEH         LINE#         88
  C:3FD4H         LINE#         89
  C:3FD4H         LINE#         90
  C:3FD6H         LINE#         91
  C:3FD6H         LINE#         92
  C:3FD9H         LINE#         93
  C:3FDBH         LINE#         94
  C:3FE4H         LINE#         95
  C:3FE8H         LINE#         96
  C:3FEAH         LINE#         97
BL51 BANKED LINKER/LOCATER V6.00                                                      07/28/2017  09:58:56  PAGE 50


  C:3FEAH         LINE#         98
  C:3FEFH         LINE#         99
  C:3FEFH         LINE#         100
  C:3FF2H         LINE#         101
  C:3FF7H         LINE#         102
  C:3FF7H         LINE#         103
  C:3FFBH         LINE#         104
  C:3FFEH         LINE#         105
  C:4000H         LINE#         107
  C:4000H         LINE#         108
  C:4006H         LINE#         109
  C:401DH         LINE#         110
  C:401DH         LINE#         111
  C:4022H         LINE#         112
  C:4022H         LINE#         113
  C:4027H         LINE#         114
  C:402BH         LINE#         115
  -------         ENDPROC       _GET_ADC10BITRESULT
  -------         PROC          ADC_INT
  C:4DD1H         LINE#         123
  C:4DD1H         LINE#         125
  C:4DD4H         LINE#         126
  -------         ENDPROC       ADC_INT
  -------         ENDMOD        ADC

  -------         MODULE        DELAY
  C:0000H         SYMBOL        _ICE_DUMMY_
  D:0080H         PUBLIC        P0
  D:0090H         PUBLIC        P1
  D:00A0H         PUBLIC        P2
  D:00B0H         PUBLIC        P3
  D:00C0H         PUBLIC        P4
  D:00C8H         PUBLIC        P5
  D:00E8H         PUBLIC        P6
  D:00F8H         PUBLIC        P7
  D:00A8H         PUBLIC        IE
  D:00B8H         PUBLIC        IP
  D:00D8H         PUBLIC        CCON
  D:0098H         PUBLIC        SCON
  D:0088H         PUBLIC        TCON
  D:00F0H         PUBLIC        B
  D:00E0H         PUBLIC        ACC
  C:4CFAH         PUBLIC        _delay_ms
  C:443EH         PUBLIC        _delay_us
  D:00D0H         PUBLIC        PSW
  -------         PROC          _DELAY_MS
  D:0007H         SYMBOL        ms
  -------         DO            
  D:0004H         SYMBOL        i
  -------         ENDDO         
  C:4CFAH         LINE#         26
  C:4CFAH         LINE#         27
  C:4CFAH         LINE#         30
  C:4CFAH         LINE#         31
  C:4CFEH         LINE#         32
  C:4D07H         LINE#         33
  C:4D07H         LINE#         35
BL51 BANKED LINKER/LOCATER V6.00                                                      07/28/2017  09:58:56  PAGE 51


  C:4D07H         LINE#         36
  C:4D07H         LINE#         37
  C:4D09H         LINE#         38
  -------         ENDPROC       _DELAY_MS
  -------         PROC          _DELAY_US
  D:0006H         SYMBOL        us
  -------         DO            
  D:0006H         SYMBOL        j
  -------         ENDDO         
  C:443EH         LINE#         39
  C:443EH         LINE#         40
  C:443EH         LINE#         42
  C:445FH         LINE#         43
  C:445FH         LINE#         44
  C:4463H         LINE#         45
  C:4463H         LINE#         46
  C:4464H         LINE#         47
  C:446BH         LINE#         48
  -------         ENDPROC       _DELAY_US
  -------         ENDMOD        DELAY

  -------         MODULE        GPIO
  C:0000H         SYMBOL        _ICE_DUMMY_
  D:0093H         PUBLIC        P0M1
  D:0092H         PUBLIC        P1M0
  D:0096H         PUBLIC        P2M0
  D:0091H         PUBLIC        P1M1
  D:0080H         PUBLIC        P0
  D:00B2H         PUBLIC        P3M0
  D:0095H         PUBLIC        P2M1
  D:0090H         PUBLIC        P1
  D:00B4H         PUBLIC        P4M0
  D:00B1H         PUBLIC        P3M1
  D:00A0H         PUBLIC        P2
  D:00CAH         PUBLIC        P5M0
  D:00B3H         PUBLIC        P4M1
  D:00B0H         PUBLIC        P3
  D:00C9H         PUBLIC        P5M1
  D:00C0H         PUBLIC        P4
  D:00C8H         PUBLIC        P5
  D:00E8H         PUBLIC        P6
  D:00F8H         PUBLIC        P7
  D:00A8H         PUBLIC        IE
  D:00B8H         PUBLIC        IP
  D:00D8H         PUBLIC        CCON
  D:0098H         PUBLIC        SCON
  D:0088H         PUBLIC        TCON
  D:00F0H         PUBLIC        B
  D:00E0H         PUBLIC        ACC
  C:2556H         PUBLIC        _GPIO_Inilize
  D:00D0H         PUBLIC        PSW
  C:4DD8H         PUBLIC        _setPinState
  D:0094H         PUBLIC        P0M0
  -------         PROC          _SETPINSTATE
  D:0007H         SYMBOL        Pin
  B:0021H.5       SYMBOL        State
  C:4DD8H         LINE#         18
BL51 BANKED LINKER/LOCATER V6.00                                                      07/28/2017  09:58:56  PAGE 52


  C:4DD8H         LINE#         19
  C:4DD8H         LINE#         20
  C:4DDAH         LINE#         23
  -------         ENDPROC       _SETPINSTATE
  -------         PROC          _GPIO_INILIZE
  D:0007H         SYMBOL        GPIO
  D:0001H         SYMBOL        GPIOx
  C:2556H         LINE#         31
  C:2556H         LINE#         32
  C:2556H         LINE#         33
  C:255CH         LINE#         34
  C:255CH         LINE#         35
  C:255FH         LINE#         36
  C:255FH         LINE#         37
  C:2568H         LINE#         38
  C:2568H         LINE#         39
  C:256BH         LINE#         40
  C:256BH         LINE#         41
  C:256EH         LINE#         42
  C:256EH         LINE#         43
  C:2571H         LINE#         44
  C:2571H         LINE#         45
  C:257CH         LINE#         46
  C:257CH         LINE#         47
  C:2582H         LINE#         48
  C:2582H         LINE#         49
  C:258DH         LINE#         50
  C:258DH         LINE#         51
  C:2594H         LINE#         52
  C:2594H         LINE#         53
  C:259EH         LINE#         54
  C:259EH         LINE#         55
  C:25A2H         LINE#         56
  C:25A2H         LINE#         57
  C:25AFH         LINE#         58
  C:25AFH         LINE#         59
  C:25AFH         LINE#         60
  C:25B4H         LINE#         61
  C:25B4H         LINE#         62
  C:25BAH         LINE#         63
  C:25BAH         LINE#         64
  C:25C5H         LINE#         65
  C:25C5H         LINE#         66
  C:25C9H         LINE#         67
  C:25C9H         LINE#         68
  C:25D4H         LINE#         69
  C:25D4H         LINE#         70
  C:25DAH         LINE#         71
  C:25DAH         LINE#         72
  C:25E4H         LINE#         73
  C:25E4H         LINE#         74
  C:25EAH         LINE#         75
  C:25EAH         LINE#         76
  C:25F7H         LINE#         77
  C:25F7H         LINE#         78
  C:25F7H         LINE#         79
  C:25FCH         LINE#         80
BL51 BANKED LINKER/LOCATER V6.00                                                      07/28/2017  09:58:56  PAGE 53


  C:25FCH         LINE#         81
  C:2602H         LINE#         82
  C:2602H         LINE#         83
  C:260DH         LINE#         84
  C:260DH         LINE#         85
  C:2611H         LINE#         86
  C:2611H         LINE#         87
  C:261CH         LINE#         88
  C:261CH         LINE#         89
  C:2622H         LINE#         90
  C:2622H         LINE#         91
  C:262CH         LINE#         92
  C:262CH         LINE#         93
  C:2632H         LINE#         94
  C:2632H         LINE#         95
  C:263FH         LINE#         96
  C:263FH         LINE#         97
  C:263FH         LINE#         98
  C:2644H         LINE#         99
  C:2644H         LINE#         100
  C:264AH         LINE#         101
  C:264AH         LINE#         102
  C:2655H         LINE#         103
  C:2655H         LINE#         104
  C:2659H         LINE#         105
  C:2659H         LINE#         106
  C:2664H         LINE#         107
  C:2664H         LINE#         108
  C:266AH         LINE#         109
  C:266AH         LINE#         110
  C:2674H         LINE#         111
  C:2674H         LINE#         112
  C:267AH         LINE#         113
  C:267AH         LINE#         114
  C:2687H         LINE#         115
  C:2687H         LINE#         116
  C:2687H         LINE#         117
  C:268CH         LINE#         118
  C:268CH         LINE#         119
  C:2692H         LINE#         120
  C:2692H         LINE#         121
  C:269DH         LINE#         122
  C:269DH         LINE#         123
  C:26A1H         LINE#         124
  C:26A1H         LINE#         125
  C:26ACH         LINE#         126
  C:26ACH         LINE#         127
  C:26B2H         LINE#         128
  C:26B2H         LINE#         129
  C:26BCH         LINE#         130
  C:26BCH         LINE#         131
  C:26C2H         LINE#         132
  C:26C2H         LINE#         133
  C:26CFH         LINE#         134
  C:26CFH         LINE#         135
  C:26CFH         LINE#         136
  C:26D4H         LINE#         137
BL51 BANKED LINKER/LOCATER V6.00                                                      07/28/2017  09:58:56  PAGE 54


  C:26D4H         LINE#         138
  C:26DAH         LINE#         139
  C:26DAH         LINE#         140
  C:26E5H         LINE#         141
  C:26E5H         LINE#         142
  C:26E9H         LINE#         143
  C:26E9H         LINE#         144
  C:26F4H         LINE#         145
  C:26F4H         LINE#         146
  C:26FAH         LINE#         147
  C:26FAH         LINE#         148
  C:2704H         LINE#         149
  C:2704H         LINE#         150
  C:270AH         LINE#         151
  C:270AH         LINE#         152
  C:2717H         LINE#         153
  C:2717H         LINE#         154
  C:2717H         LINE#         155
  C:2719H         LINE#         156
  -------         ENDPROC       _GPIO_INILIZE
  -------         ENDMOD        GPIO

  -------         MODULE        PCA
  C:0000H         SYMBOL        _ICE_DUMMY_
  B:00D8H.2       PUBLIC        CCF2
  D:0080H         PUBLIC        P0
  D:0090H         PUBLIC        P1
  D:00A0H         PUBLIC        P2
  D:00B0H         PUBLIC        P3
  D:00C0H         PUBLIC        P4
  D:00C8H         PUBLIC        P5
  D:00E8H         PUBLIC        P6
  D:00F8H         PUBLIC        P7
  D:00F9H         PUBLIC        CH
  X:044FH         PUBLIC        PCA0_mode
  X:0450H         PUBLIC        PCA1_mode
  D:00A8H         PUBLIC        IE
  X:0451H         PUBLIC        PCA2_mode
  D:00E9H         PUBLIC        CL
  D:00FAH         PUBLIC        CCAP0H
  D:00FBH         PUBLIC        CCAP1H
  D:00FCH         PUBLIC        CCAP2H
  B:00D8H.6       PUBLIC        CR
  D:00EAH         PUBLIC        CCAP0L
  D:00EBH         PUBLIC        CCAP1L
  D:00DAH         PUBLIC        CCAPM0
  D:00ECH         PUBLIC        CCAP2L
  D:00DBH         PUBLIC        CCAPM1
  D:00DCH         PUBLIC        CCAPM2
  D:00B8H         PUBLIC        IP
  D:00D9H         PUBLIC        CMOD
  D:00D8H         PUBLIC        CCON
  B:00B8H.7       PUBLIC        PPCA
  C:358EH         PUBLIC        _PWMn_Update
  B:0020H.4       PUBLIC        B_Capture0
  B:0020H.5       PUBLIC        B_Capture1
  B:0020H.6       PUBLIC        B_Capture2
BL51 BANKED LINKER/LOCATER V6.00                                                      07/28/2017  09:58:56  PAGE 55


  D:0098H         PUBLIC        SCON
  D:0088H         PUBLIC        TCON
  B:00A0H.5       PUBLIC        P25
  B:00A0H.6       PUBLIC        P26
  B:00A0H.7       PUBLIC        P27
  D:00F0H         PUBLIC        B
  D:00E0H         PUBLIC        ACC
  C:2D0FH         PUBLIC        _pwmOutPut
  C:271AH         PUBLIC        _PCA_Init
  X:0452H         PUBLIC        PWM0_low
  X:0454H         PUBLIC        PWM1_low
  D:00F2H         PUBLIC        PCA_PWM0
  X:0456H         PUBLIC        PWM2_low
  D:00F3H         PUBLIC        PCA_PWM1
  D:00F4H         PUBLIC        PCA_PWM2
  X:0458H         PUBLIC        PCA_Timer0
  X:045AH         PUBLIC        PCA_Timer1
  X:045CH         PUBLIC        PCA_Timer2
  D:00A2H         PUBLIC        AUXR1
  C:378BH         PUBLIC        PCA_Handler
  D:00D0H         PUBLIC        PSW
  X:045EH         PUBLIC        CCAP0_tmp
  X:0460H         PUBLIC        CCAP1_tmp
  B:00D8H.0       PUBLIC        CCF0
  X:0462H         PUBLIC        CCAP2_tmp
  B:00D8H.1       PUBLIC        CCF1
  -------         PROC          _PWMN_UPDATE
  D:0007H         SYMBOL        PCA_id
  D:0004H         SYMBOL        high
  C:358EH         LINE#         34
  C:358EH         LINE#         35
  C:358EH         LINE#         36
  C:3591H         LINE#         37
  C:3591H         LINE#         38
  C:359AH         LINE#         39
  C:359AH         LINE#         40
  C:359EH         LINE#         41
  C:359EH         LINE#         42
  C:35A7H         LINE#         43
  C:35A7H         LINE#         44
  C:35ABH         LINE#         45
  C:35ABH         LINE#         46
  C:35ADH         LINE#         47
  C:35B5H         LINE#         48
  C:35C3H         LINE#         49
  C:35C3H         LINE#         50
  C:35C5H         LINE#         51
  C:35CAH         LINE#         52
  C:35CAH         LINE#         53
  C:35D3H         LINE#         54
  C:35D3H         LINE#         55
  C:35D7H         LINE#         56
  C:35D7H         LINE#         57
  C:35E0H         LINE#         58
  C:35E0H         LINE#         59
  C:35E4H         LINE#         60
  C:35E4H         LINE#         61
BL51 BANKED LINKER/LOCATER V6.00                                                      07/28/2017  09:58:56  PAGE 56


  C:35E6H         LINE#         62
  C:35EEH         LINE#         63
  C:35FCH         LINE#         64
  C:35FCH         LINE#         65
  C:35FEH         LINE#         66
  C:3603H         LINE#         67
  C:3603H         LINE#         68
  C:360CH         LINE#         69
  C:360CH         LINE#         70
  C:3610H         LINE#         71
  C:3610H         LINE#         72
  C:3619H         LINE#         73
  C:3619H         LINE#         74
  C:361DH         LINE#         75
  C:361DH         LINE#         76
  C:361FH         LINE#         77
  C:3627H         LINE#         78
  C:3639H         LINE#         79
  C:363BH         LINE#         80
  C:363BH         LINE#         81
  -------         ENDPROC       _PWMN_UPDATE
  -------         PROC          _PCA_INIT
  D:0005H         SYMBOL        PCA_id
  X:0574H         SYMBOL        PCAx
  C:271AH         LINE#         106
  C:2727H         LINE#         107
  C:2727H         LINE#         108
  C:2730H         LINE#         109
  C:2730H         LINE#         111
  C:2730H         LINE#         112
  C:2735H         LINE#         113
  C:2735H         LINE#         114
  C:2737H         LINE#         115
  C:2739H         LINE#         116
  C:273BH         LINE#         117
  C:2751H         LINE#         118
  C:275FH         LINE#         119
  C:276FH         LINE#         120
  C:2778H         LINE#         121
  C:2778H         LINE#         122
  C:277AH         LINE#         123
  C:277CH         LINE#         125
  C:277CH         LINE#         126
  C:277EH         LINE#         127
  C:277EH         LINE#         128
  C:2781H         LINE#         130
  C:2781H         LINE#         131
  C:2799H         LINE#         132
  C:27AFH         LINE#         133
  C:27AFH         LINE#         134
  C:27BEH         LINE#         135
  C:27BEH         LINE#         136
  C:27C1H         LINE#         137
  C:27C1H         LINE#         138
  C:27DDH         LINE#         139
  C:27EBH         LINE#         140
  C:27FCH         LINE#         141
BL51 BANKED LINKER/LOCATER V6.00                                                      07/28/2017  09:58:56  PAGE 57


  C:27FEH         LINE#         142
  C:2803H         LINE#         143
  C:280BH         LINE#         144
  C:280DH         LINE#         145
  C:2810H         LINE#         146
  C:2810H         LINE#         147
  C:2815H         LINE#         148
  C:2815H         LINE#         149
  C:2831H         LINE#         150
  C:283FH         LINE#         151
  C:2850H         LINE#         152
  C:2852H         LINE#         153
  C:2857H         LINE#         154
  C:285FH         LINE#         155
  C:2861H         LINE#         156
  C:2864H         LINE#         157
  C:2864H         LINE#         158
  C:2869H         LINE#         159
  C:2869H         LINE#         160
  C:2885H         LINE#         161
  C:2893H         LINE#         162
  C:28A4H         LINE#         163
  C:28A6H         LINE#         164
  C:28ABH         LINE#         165
  C:28B3H         LINE#         166
  C:28B5H         LINE#         167
  C:28B8H         LINE#         168
  C:28B8H         LINE#         169
  -------         ENDPROC       _PCA_INIT
  -------         PROC          _PWMOUTPUT
  X:0577H         SYMBOL        PCA_id
  X:0578H         SYMBOL        T
  D:0002H         SYMBOL        duty
  C:2D0FH         LINE#         170
  C:2D1CH         LINE#         171
  C:2D1CH         LINE#         172
  C:2D1EH         LINE#         173
  C:2D1EH         LINE#         174
  C:2D27H         LINE#         175
  C:2D27H         LINE#         176
  C:2D2BH         LINE#         177
  C:2D2BH         LINE#         178
  C:2D34H         LINE#         179
  C:2D34H         LINE#         180
  C:2D38H         LINE#         181
  C:2D38H         LINE#         182
  C:2D3AH         LINE#         183
  C:2D58H         LINE#         184
  C:2D79H         LINE#         185
  C:2D79H         LINE#         186
  C:2D7CH         LINE#         187
  C:2D84H         LINE#         188
  C:2D84H         LINE#         189
  C:2D8DH         LINE#         190
  C:2D8DH         LINE#         191
  C:2D91H         LINE#         192
  C:2D91H         LINE#         193
BL51 BANKED LINKER/LOCATER V6.00                                                      07/28/2017  09:58:56  PAGE 58


  C:2D9AH         LINE#         194
  C:2D9AH         LINE#         195
  C:2D9EH         LINE#         196
  C:2D9EH         LINE#         197
  C:2DA0H         LINE#         198
  C:2DBEH         LINE#         199
  C:2DDFH         LINE#         200
  C:2DDFH         LINE#         201
  C:2DE1H         LINE#         202
  C:2DE9H         LINE#         203
  C:2DE9H         LINE#         204
  C:2DF2H         LINE#         205
  C:2DF2H         LINE#         206
  C:2DF6H         LINE#         207
  C:2DF6H         LINE#         208
  C:2DFFH         LINE#         209
  C:2DFFH         LINE#         210
  C:2E03H         LINE#         211
  C:2E03H         LINE#         212
  C:2E05H         LINE#         213
  C:2E23H         LINE#         214
  C:2E49H         LINE#         215
  C:2E4BH         LINE#         216
  C:2E4BH         LINE#         217
  -------         ENDPROC       _PWMOUTPUT
  -------         PROC          PCA_HANDLER
  C:378BH         LINE#         225
  C:379AH         LINE#         227
  C:379DH         LINE#         228
  C:379DH         LINE#         229
  C:379FH         LINE#         230
  C:37A2H         LINE#         231
  C:37A2H         LINE#         232
  C:37A5H         LINE#         233
  C:37A7H         LINE#         235
  C:37A7H         LINE#         236
  C:37BBH         LINE#         237
  C:37BBH         LINE#         238
  C:37C4H         LINE#         239
  C:37C7H         LINE#         240
  C:37C7H         LINE#         241
  C:37CAH         LINE#         242
  C:37CAH         LINE#         243
  C:37CCH         LINE#         244
  C:37CFH         LINE#         245
  C:37CFH         LINE#         246
  C:37D2H         LINE#         247
  C:37D4H         LINE#         249
  C:37D4H         LINE#         250
  C:37E8H         LINE#         251
  C:37E8H         LINE#         252
  C:37F1H         LINE#         253
  C:37F4H         LINE#         254
  C:37F4H         LINE#         255
  C:37F7H         LINE#         256
  C:37F7H         LINE#         257
  C:37F9H         LINE#         258
BL51 BANKED LINKER/LOCATER V6.00                                                      07/28/2017  09:58:56  PAGE 59


  C:37FCH         LINE#         259
  C:37FCH         LINE#         260
  C:37FFH         LINE#         261
  C:3801H         LINE#         263
  C:3801H         LINE#         264
  C:3815H         LINE#         265
  C:3815H         LINE#         266
  C:381EH         LINE#         267
  C:3821H         LINE#         268
  C:3821H         LINE#         274
  -------         ENDPROC       PCA_HANDLER
  -------         ENDMOD        PCA

  -------         MODULE        STC15_PWM
  C:0000H         SYMBOL        _ICE_DUMMY_
  C:4B1CH         PUBLIC        _get_PWM_period
  D:0080H         PUBLIC        P0
  C:3967H         SYMBOL        _PWM_SET_T12_PERIOD
  D:0090H         PUBLIC        P1
  D:00A0H         PUBLIC        P2
  D:00B0H         PUBLIC        P3
  D:00C0H         PUBLIC        P4
  D:00C8H         PUBLIC        P5
  D:00E8H         PUBLIC        P6
  D:00F8H         PUBLIC        P7
  C:4CC8H         PUBLIC        _setPWM_DIV
  C:3F6DH         PUBLIC        _set_PWM_period
  D:00F5H         PUBLIC        PWMCR
  D:00BAH         PUBLIC        P_SW2
  D:00A8H         PUBLIC        IE
  D:00F7H         PUBLIC        PWMFDCR
  D:00B8H         PUBLIC        IP
  C:45D9H         PUBLIC        _close_PWM_N
  D:00D8H         PUBLIC        CCON
  C:4D80H         PUBLIC        close_PWM_ALL
  C:15CBH         PUBLIC        _PWM_Inilize
  X:0350H         SYMBOL        PWM_N_INFO
  D:0098H         PUBLIC        SCON
  D:0088H         PUBLIC        TCON
  C:44EDH         PUBLIC        _open_PWM_N
  D:00F0H         PUBLIC        B
  C:4D76H         PUBLIC        open_PWM_ALL
  D:00F1H         PUBLIC        PWMCFG
  D:00E0H         PUBLIC        ACC
  C:4C83H         PUBLIC        _get_PWM_N_state
  C:33E3H         PUBLIC        _set_PWM_duty
  C:480AH         SYMBOL        _PWM_SET_PERIOD
  C:4B36H         PUBLIC        _get_PWM_N_duty
  D:00D0H         PUBLIC        PSW
  C:4CD9H         PUBLIC        _getPWM_DIV
  -------         PROC          _SET_PWM_PERIOD
  D:0003H         SYMBOL        PWM_N
  X:0588H         SYMBOL        Hz
  C:3F6DH         LINE#         52
  C:3F77H         LINE#         53
  C:3F77H         LINE#         54
  C:3F93H         LINE#         55
BL51 BANKED LINKER/LOCATER V6.00                                                      07/28/2017  09:58:56  PAGE 60


  C:3F96H         LINE#         56
  C:3F99H         LINE#         57
  C:3FCAH         LINE#         60
  C:3FCDH         LINE#         63
  -------         ENDPROC       _SET_PWM_PERIOD
  -------         PROC          _GET_PWM_PERIOD
  D:0007H         SYMBOL        PWM_N
  C:4B1CH         LINE#         73
  C:4B1CH         LINE#         74
  C:4B1CH         LINE#         75
  C:4B35H         LINE#         76
  -------         ENDPROC       _GET_PWM_PERIOD
  -------         PROC          _SET_PWM_DUTY
  X:0561H         SYMBOL        PWM_N
  X:0562H         SYMBOL        duty
  C:33E3H         LINE#         90
  C:33E8H         LINE#         91
  C:33E8H         LINE#         92
  C:3403H         LINE#         93
  C:3403H         LINE#         94
  C:340DH         LINE#         95
  C:340DH         LINE#         96
  C:3428H         LINE#         97
  C:3428H         LINE#         98
  C:3432H         LINE#         99
  C:3432H         LINE#         100
  C:3455H         LINE#         101
  C:3458H         LINE#         102
  C:34C3H         LINE#         105
  C:34C6H         LINE#         106
  -------         ENDPROC       _SET_PWM_DUTY
  -------         PROC          _GET_PWM_N_DUTY
  D:0007H         SYMBOL        PWM_N
  C:4B36H         LINE#         115
  C:4B36H         LINE#         116
  C:4B36H         LINE#         117
  C:4B4FH         LINE#         118
  -------         ENDPROC       _GET_PWM_N_DUTY
  -------         PROC          _SETPWM_DIV
  D:0007H         SYMBOL        PWM_N
  D:0005H         SYMBOL        DIV
  C:4CC8H         LINE#         129
  C:4CC8H         LINE#         130
  C:4CC8H         LINE#         131
  C:4CD8H         LINE#         132
  -------         ENDPROC       _SETPWM_DIV
  -------         PROC          _GETPWM_DIV
  D:0007H         SYMBOL        PWM_N
  C:4CD9H         LINE#         141
  C:4CD9H         LINE#         142
  C:4CD9H         LINE#         143
  C:4CE9H         LINE#         144
  -------         ENDPROC       _GETPWM_DIV
  -------         PROC          OPEN_PWM_ALL
  C:4D76H         LINE#         153
  C:4D76H         LINE#         154
  C:4D76H         LINE#         155
BL51 BANKED LINKER/LOCATER V6.00                                                      07/28/2017  09:58:56  PAGE 61


  C:4D79H         LINE#         156
  C:4D7CH         LINE#         157
  C:4D7FH         LINE#         158
  -------         ENDPROC       OPEN_PWM_ALL
  -------         PROC          CLOSE_PWM_ALL
  C:4D80H         LINE#         167
  C:4D80H         LINE#         168
  C:4D80H         LINE#         169
  C:4D83H         LINE#         170
  C:4D86H         LINE#         171
  C:4D89H         LINE#         173
  -------         ENDPROC       CLOSE_PWM_ALL
  -------         PROC          _OPEN_PWM_N
  D:0007H         SYMBOL        PWM_N
  C:44EDH         LINE#         182
  C:44EDH         LINE#         183
  C:44EDH         LINE#         184
  C:44F0H         LINE#         185
  C:44FDH         LINE#         186
  C:450EH         LINE#         187
  C:4511H         LINE#         188
  C:4514H         LINE#         191
  -------         ENDPROC       _OPEN_PWM_N
  -------         PROC          _CLOSE_PWM_N
  D:0007H         SYMBOL        PWM_N
  C:45D9H         LINE#         200
  C:45D9H         LINE#         201
  C:45D9H         LINE#         202
  C:45DCH         LINE#         203
  C:45EAH         LINE#         204
  C:45FAH         LINE#         205
  C:45FDH         LINE#         207
  -------         ENDPROC       _CLOSE_PWM_N
  -------         PROC          _GET_PWM_N_STATE
  D:0007H         SYMBOL        PWM_N
  C:4C83H         LINE#         216
  C:4C83H         LINE#         217
  C:4C83H         LINE#         219
  C:4C94H         LINE#         220
  -------         ENDPROC       _GET_PWM_N_STATE
  -------         PROC          _PWM_INILIZE
  X:058AH         SYMBOL        PWM_N
  D:0001H         SYMBOL        PWMx
  -------         DO            
  X:058BH         SYMBOL        i
  -------         ENDDO         
  C:15CBH         LINE#         228
  C:15D0H         LINE#         229
  C:15D0H         LINE#         230
  C:15D3H         LINE#         231
  C:15DDH         LINE#         232
  C:15DDH         LINE#         233
  C:15F2H         LINE#         234
  C:1606H         LINE#         235
  C:161BH         LINE#         236
  C:162FH         LINE#         237
  C:1637H         LINE#         239
BL51 BANKED LINKER/LOCATER V6.00                                                      07/28/2017  09:58:56  PAGE 62


  C:163AH         LINE#         240
  C:1640H         LINE#         241
  C:1640H         LINE#         242
  C:1643H         LINE#         243
  C:1645H         LINE#         245
  C:1645H         LINE#         246
  C:1648H         LINE#         247
  C:1648H         LINE#         248
  C:1651H         LINE#         249
  C:1651H         LINE#         250
  C:1663H         LINE#         251
  C:1665H         LINE#         253
  C:1665H         LINE#         254
  C:1678H         LINE#         255
  C:1678H         LINE#         256
  C:1681H         LINE#         257
  C:1681H         LINE#         258
  C:1684H         LINE#         259
  C:1686H         LINE#         261
  C:1686H         LINE#         262
  C:1689H         LINE#         263
  C:1689H         LINE#         264
  C:1692H         LINE#         265
  C:1692H         LINE#         266
  C:16A4H         LINE#         267
  C:16A6H         LINE#         269
  C:16A6H         LINE#         270
  C:16B9H         LINE#         271
  C:16B9H         LINE#         272
  C:16C2H         LINE#         273
  C:16C2H         LINE#         274
  C:16C5H         LINE#         275
  C:16C7H         LINE#         277
  C:16C7H         LINE#         278
  C:16CAH         LINE#         279
  C:16CAH         LINE#         280
  C:16D3H         LINE#         281
  C:16D3H         LINE#         282
  C:16D6H         LINE#         283
  C:16D8H         LINE#         285
  C:16D8H         LINE#         286
  C:16DBH         LINE#         287
  C:16DBH         LINE#         288
  C:16E4H         LINE#         289
  C:16E4H         LINE#         290
  C:16E7H         LINE#         291
  C:16E9H         LINE#         293
  C:16E9H         LINE#         294
  C:16ECH         LINE#         295
  C:16ECH         LINE#         296
  C:16F5H         LINE#         297
  C:16F5H         LINE#         298
  C:16F8H         LINE#         299
  C:16FAH         LINE#         301
  C:16FAH         LINE#         302
  C:16FDH         LINE#         303
  C:16FDH         LINE#         304
BL51 BANKED LINKER/LOCATER V6.00                                                      07/28/2017  09:58:56  PAGE 63


  C:1706H         LINE#         305
  C:1706H         LINE#         306
  C:1709H         LINE#         307
  C:170BH         LINE#         309
  C:170BH         LINE#         310
  C:170EH         LINE#         311
  C:170EH         LINE#         313
  C:1719H         LINE#         314
  C:1719H         LINE#         315
  C:171DH         LINE#         316
  C:171FH         LINE#         318
  C:171FH         LINE#         319
  C:1723H         LINE#         320
  C:1723H         LINE#         322
  C:173AH         LINE#         323
  C:1760H         LINE#         324
  C:1760H         LINE#         325
  C:1760H         LINE#         326
  C:1760H         LINE#         327
  C:176BH         LINE#         328
  C:176BH         LINE#         329
  C:176FH         LINE#         330
  C:1771H         LINE#         332
  C:1771H         LINE#         333
  C:1775H         LINE#         334
  C:1775H         LINE#         335
  C:1781H         LINE#         336
  C:1781H         LINE#         337
  C:1785H         LINE#         338
  C:1787H         LINE#         340
  C:1787H         LINE#         341
  C:178BH         LINE#         342
  C:178BH         LINE#         343
  C:1797H         LINE#         344
  C:1797H         LINE#         345
  C:179BH         LINE#         346
  C:179DH         LINE#         348
  C:179DH         LINE#         349
  C:17A1H         LINE#         350
  C:17A1H         LINE#         351
  C:17ADH         LINE#         352
  C:17ADH         LINE#         353
  C:17ADH         LINE#         354
  C:17B0H         LINE#         356
  C:17B0H         LINE#         357
  C:17B0H         LINE#         358
  C:17B0H         LINE#         359
  C:17B0H         LINE#         360
  C:17B3H         LINE#         361
  C:17B3H         LINE#         362
  C:17B3H         LINE#         363
  C:17BEH         LINE#         364
  C:17BEH         LINE#         365
  C:17C2H         LINE#         366
  C:17C4H         LINE#         368
  C:17C4H         LINE#         369
  C:17C8H         LINE#         370
BL51 BANKED LINKER/LOCATER V6.00                                                      07/28/2017  09:58:56  PAGE 64


  C:17C8H         LINE#         371
  C:17D4H         LINE#         372
  C:17D4H         LINE#         373
  C:17D8H         LINE#         374
  C:17DAH         LINE#         376
  C:17DAH         LINE#         377
  C:17DEH         LINE#         378
  C:17DEH         LINE#         379
  C:17EAH         LINE#         380
  C:17EAH         LINE#         381
  C:17EEH         LINE#         382
  C:17F0H         LINE#         384
  C:17F0H         LINE#         385
  C:17F4H         LINE#         386
  C:17F4H         LINE#         387
  C:1800H         LINE#         388
  C:1800H         LINE#         389
  C:1800H         LINE#         390
  C:1803H         LINE#         392
  C:1803H         LINE#         393
  C:1803H         LINE#         394
  C:1803H         LINE#         395
  C:1803H         LINE#         396
  C:1806H         LINE#         397
  C:1806H         LINE#         398
  C:1806H         LINE#         399
  C:1811H         LINE#         400
  C:1811H         LINE#         401
  C:1815H         LINE#         402
  C:1817H         LINE#         404
  C:1817H         LINE#         405
  C:181BH         LINE#         406
  C:181BH         LINE#         407
  C:1827H         LINE#         408
  C:1827H         LINE#         409
  C:182BH         LINE#         410
  C:182DH         LINE#         412
  C:182DH         LINE#         413
  C:1831H         LINE#         414
  C:1831H         LINE#         415
  C:183DH         LINE#         416
  C:183DH         LINE#         417
  C:1841H         LINE#         418
  C:1843H         LINE#         420
  C:1843H         LINE#         421
  C:1847H         LINE#         422
  C:1847H         LINE#         423
  C:1853H         LINE#         424
  C:1853H         LINE#         425
  C:1853H         LINE#         426
  C:1856H         LINE#         428
  C:1856H         LINE#         429
  C:1856H         LINE#         430
  C:1856H         LINE#         431
  C:1856H         LINE#         432
  C:1859H         LINE#         433
  C:1859H         LINE#         434
BL51 BANKED LINKER/LOCATER V6.00                                                      07/28/2017  09:58:56  PAGE 65


  C:1859H         LINE#         435
  C:1864H         LINE#         436
  C:1864H         LINE#         437
  C:1868H         LINE#         438
  C:186AH         LINE#         440
  C:186AH         LINE#         441
  C:186EH         LINE#         442
  C:186EH         LINE#         443
  C:187AH         LINE#         444
  C:187AH         LINE#         445
  C:187EH         LINE#         446
  C:1880H         LINE#         448
  C:1880H         LINE#         449
  C:1884H         LINE#         450
  C:1884H         LINE#         451
  C:1890H         LINE#         452
  C:1890H         LINE#         453
  C:1894H         LINE#         454
  C:1896H         LINE#         456
  C:1896H         LINE#         457
  C:189AH         LINE#         458
  C:189AH         LINE#         459
  C:18A6H         LINE#         460
  C:18A6H         LINE#         461
  C:18A6H         LINE#         462
  C:18A9H         LINE#         464
  C:18A9H         LINE#         465
  C:18A9H         LINE#         466
  C:18A9H         LINE#         467
  C:18A9H         LINE#         468
  C:18ACH         LINE#         469
  C:18ACH         LINE#         470
  C:18ACH         LINE#         471
  C:18B7H         LINE#         472
  C:18B7H         LINE#         473
  C:18BBH         LINE#         474
  C:18BDH         LINE#         476
  C:18BDH         LINE#         477
  C:18C1H         LINE#         478
  C:18C1H         LINE#         479
  C:18CDH         LINE#         480
  C:18CDH         LINE#         481
  C:18D1H         LINE#         482
  C:18D3H         LINE#         484
  C:18D3H         LINE#         485
  C:18D7H         LINE#         486
  C:18D7H         LINE#         487
  C:18E3H         LINE#         488
  C:18E3H         LINE#         489
  C:18E7H         LINE#         490
  C:18E9H         LINE#         492
  C:18E9H         LINE#         493
  C:18EDH         LINE#         494
  C:18EDH         LINE#         495
  C:18F9H         LINE#         496
  C:18F9H         LINE#         497
  C:18F9H         LINE#         498
BL51 BANKED LINKER/LOCATER V6.00                                                      07/28/2017  09:58:56  PAGE 66


  C:18FBH         LINE#         500
  C:18FBH         LINE#         501
  C:18FBH         LINE#         502
  C:18FBH         LINE#         503
  C:18FBH         LINE#         504
  C:18FDH         LINE#         505
  C:18FDH         LINE#         506
  C:18FDH         LINE#         507
  C:1908H         LINE#         508
  C:1908H         LINE#         509
  C:190CH         LINE#         510
  C:190EH         LINE#         512
  C:190EH         LINE#         513
  C:1912H         LINE#         514
  C:1912H         LINE#         515
  C:191EH         LINE#         516
  C:191EH         LINE#         517
  C:1922H         LINE#         518
  C:1924H         LINE#         520
  C:1924H         LINE#         521
  C:1928H         LINE#         522
  C:1928H         LINE#         523
  C:1934H         LINE#         524
  C:1934H         LINE#         525
  C:1938H         LINE#         526
  C:193AH         LINE#         528
  C:193AH         LINE#         529
  C:193EH         LINE#         530
  C:193EH         LINE#         531
  C:194AH         LINE#         532
  C:194AH         LINE#         533
  C:194EH         LINE#         534
  C:1950H         LINE#         536
  C:1950H         LINE#         537
  C:1954H         LINE#         538
  C:1954H         LINE#         539
  C:1954H         LINE#         540
  C:1954H         LINE#         541
  C:1954H         LINE#         543
  C:1954H         LINE#         544
  C:1954H         LINE#         545
  C:195DH         LINE#         546
  C:195DH         LINE#         547
  C:1960H         LINE#         548
  C:1961H         LINE#         550
  C:1961H         LINE#         551
  C:1964H         LINE#         552
  C:1964H         LINE#         553
  -------         ENDPROC       _PWM_INILIZE
  -------         PROC          _PWM_SET_PERIOD
  D:0006H         SYMBOL        period
  C:480AH         LINE#         564
  C:480AH         LINE#         565
  C:480AH         LINE#         566
  C:4815H         LINE#         567
  C:4815H         LINE#         568
  C:4817H         LINE#         569
BL51 BANKED LINKER/LOCATER V6.00                                                      07/28/2017  09:58:56  PAGE 67


  C:481CH         LINE#         570
  C:481FH         LINE#         571
  C:481FH         LINE#         573
  C:481FH         LINE#         574
  C:4822H         LINE#         575
  C:4828H         LINE#         576
  C:4828H         LINE#         577
  -------         ENDPROC       _PWM_SET_PERIOD
  -------         PROC          _PWM_SET_T12_PERIOD
  D:0007H         SYMBOL        PWM_N
  D:0004H         SYMBOL        period1
  D:0002H         SYMBOL        period2
  C:3967H         LINE#         590
  C:3967H         LINE#         591
  C:3967H         LINE#         592
  C:397EH         LINE#         593
  C:397EH         LINE#         594
  C:397EH         LINE#         595
  C:3983H         LINE#         596
  C:3988H         LINE#         597
  C:398DH         LINE#         598
  C:3991H         LINE#         599
  C:3993H         LINE#         600
  C:3993H         LINE#         601
  C:3993H         LINE#         602
  C:3998H         LINE#         603
  C:399DH         LINE#         604
  C:39A2H         LINE#         605
  C:39A6H         LINE#         606
  C:39A8H         LINE#         607
  C:39A8H         LINE#         608
  C:39A8H         LINE#         609
  C:39ADH         LINE#         610
  C:39B2H         LINE#         611
  C:39B7H         LINE#         612
  C:39BBH         LINE#         613
  C:39BDH         LINE#         614
  C:39BDH         LINE#         615
  C:39BDH         LINE#         616
  C:39C2H         LINE#         617
  C:39C7H         LINE#         618
  C:39CCH         LINE#         619
  C:39D0H         LINE#         620
  C:39D2H         LINE#         621
  C:39D2H         LINE#         622
  C:39D2H         LINE#         623
  C:39D7H         LINE#         624
  C:39DCH         LINE#         625
  C:39E1H         LINE#         626
  C:39E5H         LINE#         627
  C:39E7H         LINE#         628
  C:39E7H         LINE#         629
  C:39E7H         LINE#         630
  C:39ECH         LINE#         631
  C:39F1H         LINE#         632
  C:39F6H         LINE#         633
  C:39FBH         LINE#         634
BL51 BANKED LINKER/LOCATER V6.00                                                      07/28/2017  09:58:56  PAGE 68


  C:39FEH         LINE#         635
  C:39FEH         LINE#         636
  C:39FEH         LINE#         637
  C:3A00H         LINE#         638
  C:3A00H         LINE#         639
  C:3A00H         LINE#         640
  -------         ENDPROC       _PWM_SET_T12_PERIOD
  -------         ENDMOD        STC15_PWM

  -------         MODULE        TIMER
  C:0000H         SYMBOL        _ICE_DUMMY_
  D:0080H         PUBLIC        P0
  D:0090H         PUBLIC        P1
  D:00A0H         PUBLIC        P2
  D:00B0H         PUBLIC        P3
  D:00C0H         PUBLIC        P4
  D:00C8H         PUBLIC        P5
  D:00E8H         PUBLIC        P6
  D:00F8H         PUBLIC        P7
  X:0424H         SYMBOL        minutes
  X:0425H         SYMBOL        millis
  D:00A8H         PUBLIC        IE
  C:4BC8H         PUBLIC        _restartTimer
  X:0427H         SYMBOL        micros
  C:4DAAH         PUBLIC        getSeconds
  D:00B8H         PUBLIC        IP
  C:4B50H         PUBLIC        _getTimerout
  D:00D8H         PUBLIC        CCON
  C:4DB0H         PUBLIC        getMinutes
  C:4D93H         PUBLIC        getMillis
  X:0429H         SYMBOL        days
  C:4D8AH         PUBLIC        getMicros
  X:042AH         SYMBOL        hours
  D:0098H         PUBLIC        SCON
  D:0089H         PUBLIC        TMOD
  D:0088H         PUBLIC        TCON
  C:4829H         PUBLIC        _isExpiredTimer
  X:042BH         PUBLIC        Timer1_state
  C:45FEH         PUBLIC        _setTimeout
  X:042CH         PUBLIC        Timer2_state
  C:4083H         PUBLIC        timerInit
  C:1F56H         SYMBOL        _Timer_Inilize
  D:00AFH         PUBLIC        IE2
  C:4848H         PUBLIC        _isStopped
  D:00F0H         PUBLIC        B
  D:008EH         PUBLIC        AUXR
  C:4952H         PUBLIC        _isActiveTimer
  D:00E0H         PUBLIC        ACC
  B:00A8H.1       PUBLIC        ET0
  B:00A8H.3       PUBLIC        ET1
  D:008CH         PUBLIC        TH0
  C:4D44H         PUBLIC        _onRestartTimer
  C:4D36H         PUBLIC        _stopTimer
  D:008DH         PUBLIC        TH1
  X:042DH         SYMBOL        Timer1_temp
  D:00D6H         PUBLIC        TH2
  X:042FH         SYMBOL        Timer2_temp
BL51 BANKED LINKER/LOCATER V6.00                                                      07/28/2017  09:58:56  PAGE 69


  D:00D4H         PUBLIC        TH3
  D:00D2H         PUBLIC        TH4
  D:008AH         PUBLIC        TL0
  D:008BH         PUBLIC        TL1
  D:00D7H         PUBLIC        TL2
  D:00D5H         PUBLIC        TL3
  B:00B8H.1       PUBLIC        PT0
  D:00D3H         PUBLIC        TL4
  C:4DBCH         PUBLIC        getDays
  B:00B8H.3       PUBLIC        PT1
  C:4DB6H         PUBLIC        getHours
  B:0088H.4       PUBLIC        TR0
  C:4B6AH         PUBLIC        _getTimerHertz
  B:0088H.6       PUBLIC        TR1
  D:00D1H         PUBLIC        T4T3M
  X:0431H         PUBLIC        timer1_struct
  X:0435H         PUBLIC        timer2_struct
  C:49FBH         PUBLIC        _setTimerHertz
  X:0439H         SYMBOL        seconds
  D:008FH         PUBLIC        INT_CLKO
  D:00D0H         PUBLIC        PSW
  -------         PROC          TIMERINIT
  -------         DO            
  X:03F3H         SYMBOL        USER_Timer
  X:03FBH         SYMBOL        Pulser_1_Timer
  X:0403H         SYMBOL        Pulser_2_Timer
  X:040BH         SYMBOL        Error_Code
  -------         ENDDO         
  C:4083H         LINE#         84
  C:4083H         LINE#         85
  C:4083H         LINE#         89
  C:4088H         LINE#         92
  C:408CH         LINE#         93
  C:408EH         LINE#         94
  C:4090H         LINE#         95
  C:4092H         LINE#         96
  C:4094H         LINE#         97
  C:4098H         LINE#         98
  C:40A2H         LINE#         100
  C:40A7H         LINE#         101
  C:40AAH         LINE#         102
  C:40ACH         LINE#         103
  C:40AEH         LINE#         105
  C:40B3H         LINE#         108
  C:40B5H         LINE#         109
  C:40B8H         LINE#         110
  C:40BAH         LINE#         111
  C:40BCH         LINE#         113
  C:40C1H         LINE#         115
  C:40CCH         LINE#         116
  -------         ENDPROC       TIMERINIT
  -------         PROC          _SETTIMEOUT
  D:0007H         SYMBOL        whichTimer
  D:0004H         SYMBOL        time
  C:45FEH         LINE#         173
  C:45FEH         LINE#         174
  C:45FEH         LINE#         175
BL51 BANKED LINKER/LOCATER V6.00                                                      07/28/2017  09:58:56  PAGE 70


  C:4608H         LINE#         176
  C:4608H         LINE#         177
  C:4610H         LINE#         178
  C:4610H         LINE#         180
  C:4610H         LINE#         181
  C:4610H         LINE#         182
  C:4618H         LINE#         183
  C:4618H         LINE#         184
  C:4618H         LINE#         185
  C:4618H         LINE#         186
  C:4622H         LINE#         187
  C:4622H         LINE#         188
  C:4622H         LINE#         189
  C:4622H         LINE#         190
  C:4622H         LINE#         191
  C:4622H         LINE#         192
  -------         ENDPROC       _SETTIMEOUT
  -------         PROC          _GETTIMEROUT
  D:0007H         SYMBOL        whichTimer
  C:4B50H         LINE#         201
  C:4B50H         LINE#         202
  C:4B50H         LINE#         203
  C:4B58H         LINE#         204
  C:4B58H         LINE#         206
  C:4B58H         LINE#         207
  C:4B58H         LINE#         208
  C:4B5DH         LINE#         209
  C:4B5DH         LINE#         210
  C:4B5DH         LINE#         211
  C:4B5DH         LINE#         212
  C:4B5DH         LINE#         213
  C:4B66H         LINE#         214
  C:4B66H         LINE#         215
  C:4B66H         LINE#         217
  C:4B69H         LINE#         218
  C:4B69H         LINE#         220
  -------         ENDPROC       _GETTIMEROUT
  -------         PROC          _SETTIMERHERTZ
  D:0007H         SYMBOL        whichTimer
  D:0004H         SYMBOL        Hz
  C:49FBH         LINE#         231
  C:49FBH         LINE#         232
  C:49FBH         LINE#         233
  C:4A03H         LINE#         234
  C:4A03H         LINE#         236
  C:4A03H         LINE#         237
  C:4A03H         LINE#         238
  C:4A0BH         LINE#         239
  C:4A0BH         LINE#         240
  C:4A0CH         LINE#         241
  C:4A0CH         LINE#         242
  C:4A0CH         LINE#         243
  C:4A16H         LINE#         244
  C:4A16H         LINE#         245
  C:4A16H         LINE#         247
  C:4A16H         LINE#         250
  -------         ENDPROC       _SETTIMERHERTZ
BL51 BANKED LINKER/LOCATER V6.00                                                      07/28/2017  09:58:56  PAGE 71


  -------         PROC          _GETTIMERHERTZ
  D:0007H         SYMBOL        whichTimer
  C:4B6AH         LINE#         251
  C:4B6AH         LINE#         252
  C:4B6AH         LINE#         253
  C:4B72H         LINE#         254
  C:4B72H         LINE#         256
  C:4B72H         LINE#         257
  C:4B72H         LINE#         258
  C:4B72H         LINE#         259
  C:4B77H         LINE#         260
  C:4B77H         LINE#         261
  C:4B77H         LINE#         262
  C:4B77H         LINE#         263
  C:4B77H         LINE#         264
  C:4B80H         LINE#         265
  C:4B80H         LINE#         266
  C:4B80H         LINE#         267
  C:4B83H         LINE#         268
  C:4B83H         LINE#         269
  -------         ENDPROC       _GETTIMERHERTZ
  -------         PROC          _STOPTIMER
  D:0007H         SYMBOL        whichTimer
  C:4D36H         LINE#         279
  C:4D36H         LINE#         280
  C:4D36H         LINE#         281
  C:4D3AH         LINE#         282
  C:4D3AH         LINE#         283
  C:4D3AH         LINE#         284
  C:4D3AH         LINE#         285
  C:4D3DH         LINE#         286
  C:4D43H         LINE#         288
  C:4D43H         LINE#         289
  C:4D43H         LINE#         290
  C:4D43H         LINE#         291
  C:4D43H         LINE#         295
  C:4D43H         LINE#         296
  C:4D43H         LINE#         297
  C:4D43H         LINE#         299
  -------         ENDPROC       _STOPTIMER
  -------         PROC          _ISACTIVETIMER
  D:0007H         SYMBOL        whichTimer
  C:4952H         LINE#         309
  C:4952H         LINE#         310
  C:4952H         LINE#         311
  C:495AH         LINE#         312
  C:495AH         LINE#         313
  C:495AH         LINE#         314
  C:495AH         LINE#         315
  C:4964H         LINE#         317
  C:4964H         LINE#         318
  C:4964H         LINE#         319
  C:4964H         LINE#         320
  C:496EH         LINE#         322
  C:496EH         LINE#         323
  C:496EH         LINE#         324
  C:496EH         LINE#         325
BL51 BANKED LINKER/LOCATER V6.00                                                      07/28/2017  09:58:56  PAGE 72


  -------         ENDPROC       _ISACTIVETIMER
  -------         PROC          _ISEXPIREDTIMER
  D:0007H         SYMBOL        whichTimer
  C:4829H         LINE#         335
  C:4829H         LINE#         336
  C:4829H         LINE#         337
  C:4831H         LINE#         338
  C:4831H         LINE#         339
  C:4831H         LINE#         340
  C:4831H         LINE#         341
  C:483CH         LINE#         342
  C:483CH         LINE#         343
  C:483CH         LINE#         344
  C:483CH         LINE#         345
  C:4847H         LINE#         346
  C:4847H         LINE#         347
  C:4847H         LINE#         348
  C:4847H         LINE#         351
  -------         ENDPROC       _ISEXPIREDTIMER
  -------         PROC          _ISSTOPPED
  D:0007H         SYMBOL        whichtimer
  C:4848H         LINE#         361
  C:4848H         LINE#         362
  C:4848H         LINE#         363
  C:4850H         LINE#         364
  C:4850H         LINE#         365
  C:4850H         LINE#         366
  C:4850H         LINE#         367
  C:485BH         LINE#         368
  C:485BH         LINE#         369
  C:485BH         LINE#         370
  C:485BH         LINE#         371
  C:4866H         LINE#         372
  C:4866H         LINE#         373
  C:4866H         LINE#         374
  C:4866H         LINE#         375
  -------         ENDPROC       _ISSTOPPED
  -------         PROC          _RESTARTTIMER
  D:0006H         SYMBOL        whichTimer
  C:4BC8H         LINE#         386
  C:4BCAH         LINE#         387
  C:4BCAH         LINE#         388
  C:4BCFH         LINE#         389
  C:4BCFH         LINE#         390
  C:4BD3H         LINE#         391
  C:4BD3H         LINE#         392
  C:4BD3H         LINE#         393
  C:4BD3H         LINE#         394
  C:4BD6H         LINE#         395
  C:4BDBH         LINE#         396
  C:4BDBH         LINE#         397
  C:4BDBH         LINE#         398
  C:4BDBH         LINE#         399
  C:4BDBH         LINE#         402
  C:4BDBH         LINE#         403
  C:4BDBH         LINE#         404
  C:4BDBH         LINE#         405
BL51 BANKED LINKER/LOCATER V6.00                                                      07/28/2017  09:58:56  PAGE 73


  C:4BDBH         LINE#         406
  C:4BDBH         LINE#         410
  C:4BDBH         LINE#         411
  -------         ENDPROC       _RESTARTTIMER
  -------         PROC          _ONRESTARTTIMER
  D:0006H         SYMBOL        whichTimer
  C:4D44H         LINE#         421
  C:4D46H         LINE#         422
  C:4D46H         LINE#         423
  C:4D4BH         LINE#         424
  C:4D4BH         LINE#         425
  C:4D4EH         LINE#         426
  C:4D50H         LINE#         427
  C:4D50H         LINE#         429
  C:4D50H         LINE#         430
  C:4D51H         LINE#         431
  C:4D51H         LINE#         433
  -------         ENDPROC       _ONRESTARTTIMER
  -------         PROC          GETMICROS
  C:4D8AH         LINE#         437
  C:4D8AH         LINE#         438
  C:4D8AH         LINE#         440
  C:4D92H         LINE#         441
  -------         ENDPROC       GETMICROS
  -------         PROC          GETMILLIS
  C:4D93H         LINE#         443
  C:4D93H         LINE#         444
  C:4D93H         LINE#         445
  C:4D9BH         LINE#         446
  -------         ENDPROC       GETMILLIS
  -------         PROC          GETSECONDS
  C:4DAAH         LINE#         447
  C:4DAAH         LINE#         448
  C:4DAAH         LINE#         449
  C:4DAFH         LINE#         450
  -------         ENDPROC       GETSECONDS
  -------         PROC          GETMINUTES
  C:4DB0H         LINE#         451
  C:4DB0H         LINE#         452
  C:4DB0H         LINE#         453
  C:4DB5H         LINE#         454
  -------         ENDPROC       GETMINUTES
  -------         PROC          GETHOURS
  C:4DB6H         LINE#         455
  C:4DB6H         LINE#         456
  C:4DB6H         LINE#         457
  C:4DBBH         LINE#         458
  -------         ENDPROC       GETHOURS
  -------         PROC          GETDAYS
  C:4DBCH         LINE#         459
  C:4DBCH         LINE#         460
  C:4DBCH         LINE#         461
  C:4DC1H         LINE#         462
  -------         ENDPROC       GETDAYS
  -------         PROC          _TIMER_INILIZE
  D:0005H         SYMBOL        TIM
  D:0001H         SYMBOL        TIMx
BL51 BANKED LINKER/LOCATER V6.00                                                      07/28/2017  09:58:56  PAGE 74


  C:1F56H         LINE#         553
  C:1F58H         LINE#         554
  C:1F58H         LINE#         555
  C:1F61H         LINE#         557
  C:1F64H         LINE#         558
  C:1F64H         LINE#         559
  C:1F70H         LINE#         560
  C:1F72H         LINE#         561
  C:1F74H         LINE#         562
  C:1F76H         LINE#         563
  C:1F79H         LINE#         564
  C:1F7CH         LINE#         565
  C:1F7FH         LINE#         566
  C:1F8AH         LINE#         567
  C:1F95H         LINE#         568
  C:1F98H         LINE#         569
  C:1FA4H         LINE#         570
  C:1FABH         LINE#         571
  C:1FB7H         LINE#         573
  C:1FC1H         LINE#         574
  C:1FC9H         LINE#         575
  C:1FD4H         LINE#         576
  C:1FD7H         LINE#         577
  C:1FD7H         LINE#         579
  C:1FDFH         LINE#         580
  C:1FDFH         LINE#         581
  C:1FE1H         LINE#         582
  C:1FEEH         LINE#         583
  C:1FF0H         LINE#         584
  C:1FFDH         LINE#         585
  C:1FFFH         LINE#         586
  C:200BH         LINE#         587
  C:2012H         LINE#         588
  C:201FH         LINE#         589
  C:2025H         LINE#         590
  C:202EH         LINE#         591
  C:2031H         LINE#         592
  C:203FH         LINE#         593
  C:2042H         LINE#         595
  C:204CH         LINE#         596
  C:2054H         LINE#         597
  C:205FH         LINE#         598
  C:2062H         LINE#         599
  C:2062H         LINE#         601
  C:2067H         LINE#         602
  C:2067H         LINE#         603
  C:206AH         LINE#         604
  C:2078H         LINE#         605
  C:207BH         LINE#         606
  C:208AH         LINE#         607
  C:2091H         LINE#         608
  C:209CH         LINE#         609
  C:20AAH         LINE#         610
  C:20ADH         LINE#         611
  C:20BBH         LINE#         612
  C:20BEH         LINE#         614
  C:20C8H         LINE#         615
BL51 BANKED LINKER/LOCATER V6.00                                                      07/28/2017  09:58:56  PAGE 75


  C:20D0H         LINE#         616
  C:20DCH         LINE#         617
  C:20DFH         LINE#         618
  C:20DFH         LINE#         620
  C:20E4H         LINE#         621
  C:20E4H         LINE#         622
  C:20F3H         LINE#         623
  C:20F6H         LINE#         624
  C:20F9H         LINE#         625
  C:2105H         LINE#         626
  C:210BH         LINE#         627
  C:2117H         LINE#         628
  C:2123H         LINE#         630
  C:212DH         LINE#         631
  C:2135H         LINE#         632
  C:2141H         LINE#         633
  C:2144H         LINE#         634
  C:2144H         LINE#         636
  C:2149H         LINE#         637
  C:2149H         LINE#         638
  C:2158H         LINE#         639
  C:215BH         LINE#         640
  C:215EH         LINE#         641
  C:216AH         LINE#         642
  C:2170H         LINE#         643
  C:217CH         LINE#         645
  C:2188H         LINE#         646
  C:218AH         LINE#         647
  C:2196H         LINE#         648
  C:21A2H         LINE#         650
  C:21A5H         LINE#         651
  C:21A5H         LINE#         653
  C:21A7H         LINE#         654
  -------         ENDPROC       _TIMER_INILIZE
  -------         ENDMOD        TIMER

  -------         MODULE        USART1
  C:0000H         SYMBOL        _ICE_DUMMY_
  D:0080H         PUBLIC        P0
  D:0090H         PUBLIC        P1
  D:00A0H         PUBLIC        P2
  D:00B0H         PUBLIC        P3
  D:00C0H         PUBLIC        P4
  D:00C8H         PUBLIC        P5
  B:00A8H.7       PUBLIC        EA
  D:00E8H         PUBLIC        P6
  D:00F8H         PUBLIC        P7
  D:00A2H         PUBLIC        P_SW1
  D:00BAH         PUBLIC        P_SW2
  D:00A8H         PUBLIC        IE
  X:0000H         PUBLIC        COM1
  X:0007H         PUBLIC        COM2
  X:000EH         PUBLIC        COM3
  X:0015H         PUBLIC        COM4
  B:00A8H.4       PUBLIC        ES
  D:00B8H         PUBLIC        IP
  X:001CH         PUBLIC        RX1_Buffer
BL51 BANKED LINKER/LOCATER V6.00                                                      07/28/2017  09:58:56  PAGE 76


  X:009CH         PUBLIC        RX2_Buffer
  B:0098H.0       PUBLIC        RI
  C:3CAEH         PUBLIC        UART1_int
  X:011CH         PUBLIC        RX3_Buffer
  X:0138H         PUBLIC        TX1_Buffer
  C:3B1FH         PUBLIC        UART2_int
  X:01B8H         PUBLIC        RX4_Buffer
  X:01D4H         PUBLIC        TX2_Buffer
  B:0098H.1       PUBLIC        TI
  C:3BA4H         PUBLIC        UART3_int
  X:0254H         PUBLIC        TX3_Buffer
  C:3C29H         PUBLIC        UART4_int
  X:0270H         PUBLIC        TX4_Buffer
  B:00B8H.4       PUBLIC        PS
  D:00D8H         PUBLIC        CCON
  D:0099H         PUBLIC        SBUF
  D:0087H         PUBLIC        PCON
  D:0098H         PUBLIC        SCON
  D:0089H         PUBLIC        TMOD
  D:0088H         PUBLIC        TCON
  C:4B9DH         PUBLIC        _PrintString1
  C:4C02H         PUBLIC        _PrintString2
  C:4C15H         PUBLIC        _PrintString3
  C:4C28H         PUBLIC        _PrintString4
  D:00AFH         PUBLIC        IE2
  D:00F0H         PUBLIC        B
  D:008EH         PUBLIC        AUXR
  C:458DH         PUBLIC        _TX1_write2buff
  C:4515H         PUBLIC        _TX2_write2buff
  C:453DH         PUBLIC        _TX3_write2buff
  D:00E0H         PUBLIC        ACC
  C:4565H         PUBLIC        _TX4_write2buff
  B:00A8H.3       PUBLIC        ET1
  D:00B5H         PUBLIC        IP2
  D:008DH         PUBLIC        TH1
  D:00D6H         PUBLIC        TH2
  D:00D4H         PUBLIC        TH3
  D:00D2H         PUBLIC        TH4
  D:008BH         PUBLIC        TL1
  D:00D7H         PUBLIC        TL2
  C:0EEBH         PUBLIC        _USART_Configuration
  D:00D5H         PUBLIC        TL3
  D:00D3H         PUBLIC        TL4
  B:0088H.6       PUBLIC        TR1
  D:00D1H         PUBLIC        T4T3M
  D:009BH         PUBLIC        S2BUF
  D:0097H         PUBLIC        PCON2
  D:00ADH         PUBLIC        S3BUF
  B:0098H.4       PUBLIC        REN
  D:0085H         PUBLIC        S4BUF
  D:009AH         PUBLIC        S2CON
  D:00ACH         PUBLIC        S3CON
  D:0084H         PUBLIC        S4CON
  D:008FH         PUBLIC        INT_CLKO
  D:00D0H         PUBLIC        PSW
  -------         PROC          _USART_CONFIGURATION
  X:04DFH         SYMBOL        UARTx
BL51 BANKED LINKER/LOCATER V6.00                                                      07/28/2017  09:58:56  PAGE 77


  X:04E0H         SYMBOL        COMx
  -------         DO            
  X:04E3H         SYMBOL        i
  X:04E4H         SYMBOL        j
  -------         ENDDO         
  C:0EEBH         LINE#         25
  C:0EFBH         LINE#         26
  C:0EFBH         LINE#         30
  C:0F02H         LINE#         31
  C:0F02H         LINE#         32
  C:0F07H         LINE#         33
  C:0F0AH         LINE#         34
  C:0F0CH         LINE#         35
  C:0F0EH         LINE#         36
  C:0F10H         LINE#         37
  C:0F12H         LINE#         38
  C:0F14H         LINE#         39
  C:0F36H         LINE#         40
  C:0F59H         LINE#         42
  C:0F6FH         LINE#         43
  C:0F7CH         LINE#         44
  C:0F7EH         LINE#         45
  C:0F89H         LINE#         46
  C:0F96H         LINE#         47
  C:0F96H         LINE#         48
  C:0FADH         LINE#         49
  C:0FCAH         LINE#         50
  C:0FECH         LINE#         51
  C:1002H         LINE#         52
  C:1002H         LINE#         53
  C:1004H         LINE#         54
  C:1007H         LINE#         55
  C:100AH         LINE#         56
  C:100DH         LINE#         57
  C:1010H         LINE#         58
  C:1025H         LINE#         59
  C:102EH         LINE#         60
  C:1030H         LINE#         61
  C:1033H         LINE#         62
  C:1036H         LINE#         63
  C:1038H         LINE#         64
  C:103AH         LINE#         65
  C:103FH         LINE#         66
  C:103FH         LINE#         67
  C:1042H         LINE#         68
  C:1045H         LINE#         69
  C:1048H         LINE#         70
  C:104BH         LINE#         71
  C:1060H         LINE#         72
  C:1069H         LINE#         73
  C:106CH         LINE#         74
  C:106FH         LINE#         75
  C:1072H         LINE#         76
  C:1074H         LINE#         77
  C:1077H         LINE#         78
  C:1077H         LINE#         79
  C:1088H         LINE#         80
BL51 BANKED LINKER/LOCATER V6.00                                                      07/28/2017  09:58:56  PAGE 78


  C:1088H         LINE#         81
  C:1096H         LINE#         82
  C:1099H         LINE#         83
  C:109BH         LINE#         84
  C:109FH         LINE#         85
  C:109FH         LINE#         86
  C:10ADH         LINE#         87
  C:10B0H         LINE#         88
  C:10B0H         LINE#         89
  C:10C8H         LINE#         90
  C:10CAH         LINE#         91
  C:10D7H         LINE#         92
  C:10D9H         LINE#         93
  C:10E9H         LINE#         94
  C:10F7H         LINE#         95
  C:10FAH         LINE#         96
  C:10FDH         LINE#         97
  C:10FDH         LINE#         99
  C:1108H         LINE#         100
  C:1108H         LINE#         101
  C:110EH         LINE#         102
  C:1111H         LINE#         103
  C:1113H         LINE#         104
  C:1115H         LINE#         105
  C:1117H         LINE#         106
  C:1119H         LINE#         107
  C:111BH         LINE#         108
  C:113DH         LINE#         109
  C:1160H         LINE#         111
  C:117BH         LINE#         112
  C:117BH         LINE#         113
  C:1189H         LINE#         114
  C:118CH         LINE#         115
  C:1197H         LINE#         116
  C:119AH         LINE#         117
  C:11B1H         LINE#         118
  C:11CEH         LINE#         119
  C:11F0H         LINE#         120
  C:11F3H         LINE#         121
  C:11F6H         LINE#         122
  C:11F9H         LINE#         123
  C:120EH         LINE#         124
  C:1217H         LINE#         125
  C:121AH         LINE#         126
  C:121DH         LINE#         127
  C:121FH         LINE#         128
  C:1222H         LINE#         129
  C:123BH         LINE#         130
  C:123EH         LINE#         131
  C:124CH         LINE#         132
  C:124FH         LINE#         133
  C:125FH         LINE#         134
  C:125FH         LINE#         136
  C:126AH         LINE#         137
  C:126AH         LINE#         138
  C:1270H         LINE#         139
  C:1273H         LINE#         140
BL51 BANKED LINKER/LOCATER V6.00                                                      07/28/2017  09:58:56  PAGE 79


  C:1275H         LINE#         141
  C:1277H         LINE#         142
  C:1279H         LINE#         143
  C:127BH         LINE#         144
  C:127DH         LINE#         145
  C:129FH         LINE#         146
  C:12C2H         LINE#         147
  C:12DDH         LINE#         148
  C:12DDH         LINE#         149
  C:12E0H         LINE#         150
  C:12E9H         LINE#         151
  C:12ECH         LINE#         152
  C:130EH         LINE#         153
  C:132BH         LINE#         154
  C:134DH         LINE#         155
  C:1363H         LINE#         156
  C:1363H         LINE#         157
  C:1366H         LINE#         158
  C:1369H         LINE#         159
  C:136CH         LINE#         160
  C:136FH         LINE#         161
  C:1384H         LINE#         162
  C:138DH         LINE#         163
  C:1390H         LINE#         164
  C:1393H         LINE#         165
  C:1395H         LINE#         166
  C:139AH         LINE#         167
  C:139AH         LINE#         168
  C:139DH         LINE#         169
  C:13A0H         LINE#         170
  C:13A3H         LINE#         171
  C:13A6H         LINE#         172
  C:13A9H         LINE#         173
  C:13ACH         LINE#         174
  C:13C1H         LINE#         175
  C:13CAH         LINE#         176
  C:13CDH         LINE#         177
  C:13CFH         LINE#         178
  C:13D2H         LINE#         179
  C:13D2H         LINE#         180
  C:13D5H         LINE#         181
  C:13EEH         LINE#         182
  C:13F1H         LINE#         183
  C:13FFH         LINE#         184
  C:1402H         LINE#         185
  C:140FH         LINE#         186
  C:1412H         LINE#         188
  C:1412H         LINE#         190
  C:141DH         LINE#         191
  C:141DH         LINE#         192
  C:1423H         LINE#         193
  C:1426H         LINE#         194
  C:1428H         LINE#         195
  C:142AH         LINE#         196
  C:142CH         LINE#         197
  C:142EH         LINE#         198
  C:1430H         LINE#         199
BL51 BANKED LINKER/LOCATER V6.00                                                      07/28/2017  09:58:56  PAGE 80


  C:1452H         LINE#         200
  C:1475H         LINE#         202
  C:1490H         LINE#         203
  C:1490H         LINE#         204
  C:1493H         LINE#         205
  C:149CH         LINE#         206
  C:149FH         LINE#         207
  C:14C1H         LINE#         208
  C:14DEH         LINE#         209
  C:1500H         LINE#         210
  C:1516H         LINE#         211
  C:1516H         LINE#         212
  C:1519H         LINE#         213
  C:151CH         LINE#         214
  C:151FH         LINE#         215
  C:1522H         LINE#         216
  C:1537H         LINE#         217
  C:1540H         LINE#         218
  C:1543H         LINE#         219
  C:1546H         LINE#         220
  C:1548H         LINE#         221
  C:154DH         LINE#         222
  C:154DH         LINE#         223
  C:1550H         LINE#         224
  C:1553H         LINE#         225
  C:1556H         LINE#         226
  C:1559H         LINE#         227
  C:155CH         LINE#         228
  C:155FH         LINE#         229
  C:1574H         LINE#         230
  C:157DH         LINE#         231
  C:1580H         LINE#         232
  C:1582H         LINE#         233
  C:1585H         LINE#         234
  C:1585H         LINE#         235
  C:1588H         LINE#         236
  C:15A1H         LINE#         237
  C:15A4H         LINE#         238
  C:15B2H         LINE#         239
  C:15B5H         LINE#         240
  C:15C5H         LINE#         241
  C:15C8H         LINE#         242
  C:15C8H         LINE#         244
  C:15CAH         LINE#         245
  -------         ENDPROC       _USART_CONFIGURATION
  -------         PROC          _TX1_WRITE2BUFF
  D:0007H         SYMBOL        dat
  C:458DH         LINE#         250
  C:458DH         LINE#         251
  C:458DH         LINE#         252
  C:459CH         LINE#         253
  C:45A9H         LINE#         255
  C:45AFH         LINE#         256
  C:45AFH         LINE#         257
  C:45B1H         LINE#         258
  C:45B3H         LINE#         259
  C:45B3H         LINE#         260
BL51 BANKED LINKER/LOCATER V6.00                                                      07/28/2017  09:58:56  PAGE 81


  -------         ENDPROC       _TX1_WRITE2BUFF
  -------         PROC          _TX2_WRITE2BUFF
  D:0007H         SYMBOL        dat
  C:4515H         LINE#         262
  C:4515H         LINE#         263
  C:4515H         LINE#         264
  C:4524H         LINE#         265
  C:4531H         LINE#         267
  C:4537H         LINE#         268
  C:4537H         LINE#         269
  C:4539H         LINE#         270
  C:453CH         LINE#         271
  C:453CH         LINE#         272
  -------         ENDPROC       _TX2_WRITE2BUFF
  -------         PROC          _TX3_WRITE2BUFF
  D:0007H         SYMBOL        dat
  C:453DH         LINE#         274
  C:453DH         LINE#         275
  C:453DH         LINE#         276
  C:454CH         LINE#         277
  C:4559H         LINE#         279
  C:455FH         LINE#         280
  C:455FH         LINE#         281
  C:4561H         LINE#         282
  C:4564H         LINE#         283
  C:4564H         LINE#         284
  -------         ENDPROC       _TX3_WRITE2BUFF
  -------         PROC          _TX4_WRITE2BUFF
  D:0007H         SYMBOL        dat
  C:4565H         LINE#         286
  C:4565H         LINE#         287
  C:4565H         LINE#         288
  C:4574H         LINE#         289
  C:4581H         LINE#         291
  C:4587H         LINE#         292
  C:4587H         LINE#         293
  C:4589H         LINE#         294
  C:458CH         LINE#         295
  C:458CH         LINE#         296
  -------         ENDPROC       _TX4_WRITE2BUFF
  -------         PROC          _PRINTSTRING1
  D:0001H         SYMBOL        puts
  C:4B9DH         LINE#         298
  C:4B9DH         LINE#         299
  C:4B9DH         LINE#         300
  C:4B9FH         LINE#         301
  C:4BB1H         LINE#         302
  C:4BB3H         LINE#         303
  -------         ENDPROC       _PRINTSTRING1
  -------         PROC          _PRINTSTRING2
  D:0001H         SYMBOL        puts
  C:4C02H         LINE#         305
  C:4C02H         LINE#         306
  C:4C02H         LINE#         307
  C:4C14H         LINE#         308
  -------         ENDPROC       _PRINTSTRING2
  -------         PROC          _PRINTSTRING3
BL51 BANKED LINKER/LOCATER V6.00                                                      07/28/2017  09:58:56  PAGE 82


  D:0001H         SYMBOL        puts
  C:4C15H         LINE#         310
  C:4C15H         LINE#         311
  C:4C15H         LINE#         312
  C:4C27H         LINE#         313
  -------         ENDPROC       _PRINTSTRING3
  -------         PROC          _PRINTSTRING4
  D:0001H         SYMBOL        puts
  C:4C28H         LINE#         315
  C:4C28H         LINE#         316
  C:4C28H         LINE#         317
  C:4C3AH         LINE#         318
  -------         ENDPROC       _PRINTSTRING4
  -------         PROC          UART1_INT
  C:3CAEH         LINE#         325
  C:3CBDH         LINE#         327
  C:3CC0H         LINE#         328
  C:3CC0H         LINE#         329
  C:3CC2H         LINE#         330
  C:3CC8H         LINE#         331
  C:3CC8H         LINE#         332
  C:3CD3H         LINE#         333
  C:3CE7H         LINE#         334
  C:3CEDH         LINE#         335
  C:3CEDH         LINE#         336
  C:3CEDH         LINE#         338
  C:3CF0H         LINE#         339
  C:3CF0H         LINE#         340
  C:3CF2H         LINE#         341
  C:3CFFH         LINE#         342
  C:3CFFH         LINE#         343
  C:3D0CH         LINE#         344
  C:3D19H         LINE#         345
  C:3D1BH         LINE#         346
  C:3D20H         LINE#         347
  C:3D20H         LINE#         348
  -------         ENDPROC       UART1_INT
  -------         PROC          UART2_INT
  C:3B1FH         LINE#         351
  C:3B2EH         LINE#         353
  C:3B33H         LINE#         354
  C:3B33H         LINE#         355
  C:3B36H         LINE#         356
  C:3B3CH         LINE#         357
  C:3B3CH         LINE#         358
  C:3B47H         LINE#         359
  C:3B5BH         LINE#         360
  C:3B61H         LINE#         361
  C:3B61H         LINE#         362
  C:3B61H         LINE#         364
  C:3B66H         LINE#         365
  C:3B66H         LINE#         366
  C:3B69H         LINE#         367
  C:3B76H         LINE#         368
  C:3B76H         LINE#         369
  C:3B83H         LINE#         370
  C:3B90H         LINE#         371
BL51 BANKED LINKER/LOCATER V6.00                                                      07/28/2017  09:58:56  PAGE 83


  C:3B92H         LINE#         372
  C:3B97H         LINE#         373
  C:3B97H         LINE#         375
  -------         ENDPROC       UART2_INT
  -------         PROC          UART3_INT
  C:3BA4H         LINE#         379
  C:3BB3H         LINE#         381
  C:3BB8H         LINE#         382
  C:3BB8H         LINE#         383
  C:3BBBH         LINE#         384
  C:3BC1H         LINE#         385
  C:3BC1H         LINE#         386
  C:3BCCH         LINE#         387
  C:3BE0H         LINE#         388
  C:3BE6H         LINE#         389
  C:3BE6H         LINE#         390
  C:3BE6H         LINE#         392
  C:3BEBH         LINE#         393
  C:3BEBH         LINE#         394
  C:3BEEH         LINE#         395
  C:3BFBH         LINE#         396
  C:3BFBH         LINE#         397
  C:3C08H         LINE#         398
  C:3C15H         LINE#         399
  C:3C17H         LINE#         400
  C:3C1CH         LINE#         401
  C:3C1CH         LINE#         403
  -------         ENDPROC       UART3_INT
  -------         PROC          UART4_INT
  C:3C29H         LINE#         407
  C:3C38H         LINE#         409
  C:3C3DH         LINE#         410
  C:3C3DH         LINE#         411
  C:3C40H         LINE#         412
  C:3C46H         LINE#         413
  C:3C46H         LINE#         414
  C:3C51H         LINE#         415
  C:3C65H         LINE#         416
  C:3C6BH         LINE#         417
  C:3C6BH         LINE#         418
  C:3C6BH         LINE#         420
  C:3C70H         LINE#         421
  C:3C70H         LINE#         422
  C:3C73H         LINE#         423
  C:3C80H         LINE#         424
  C:3C80H         LINE#         425
  C:3C8DH         LINE#         426
  C:3C9AH         LINE#         427
  C:3C9CH         LINE#         428
  C:3CA1H         LINE#         429
  C:3CA1H         LINE#         431
  -------         ENDPROC       UART4_INT
  -------         ENDMOD        USART1

  -------         MODULE        STC15_EEPROM
  C:0000H         SYMBOL        _ICE_DUMMY_
  D:0080H         PUBLIC        P0
BL51 BANKED LINKER/LOCATER V6.00                                                      07/28/2017  09:58:56  PAGE 84


  D:0090H         PUBLIC        P1
  D:00A0H         PUBLIC        P2
  D:00B0H         PUBLIC        P3
  C:4D52H         PUBLIC        DisableEEPROM
  D:00C0H         PUBLIC        P4
  D:00C8H         PUBLIC        P5
  D:00C6H         PUBLIC        ISP_TRIG
  B:00A8H.7       PUBLIC        EA
  D:00E8H         PUBLIC        P6
  D:00F8H         PUBLIC        P7
  D:00A8H         PUBLIC        IE
  C:478DH         PUBLIC        _EEPROM_SectorErase
  C:423CH         PUBLIC        _EEPROM_read_n
  D:00B8H         PUBLIC        IP
  D:00C5H         PUBLIC        ISP_CMD
  D:00D8H         PUBLIC        CCON
  C:427BH         PUBLIC        _EEPROM_write_n
  D:00C3H         PUBLIC        ISP_ADDRH
  D:0098H         PUBLIC        SCON
  D:0088H         PUBLIC        TCON
  D:00C4H         PUBLIC        ISP_ADDRL
  D:00F0H         PUBLIC        B
  D:00E0H         PUBLIC        ACC
  D:00C7H         PUBLIC        ISP_CONTR
  D:00C2H         PUBLIC        ISP_DATA
  D:00D0H         PUBLIC        PSW
  -------         PROC          DISABLEEEPROM
  C:4D52H         LINE#         30
  C:4D52H         LINE#         31
  C:4D52H         LINE#         32
  C:4D55H         LINE#         33
  C:4D57H         LINE#         34
  C:4D59H         LINE#         35
  C:4D5CH         LINE#         36
  C:4D5FH         LINE#         37
  -------         ENDPROC       DISABLEEEPROM
  -------         PROC          _EEPROM_READ_N
  D:0004H         SYMBOL        EE_address
  D:0001H         SYMBOL        DataAddress
  X:050AH         SYMBOL        number
  C:423CH         LINE#         49
  C:4240H         LINE#         50
  C:4240H         LINE#         51
  C:4242H         LINE#         52
  C:4245H         LINE#         53
  C:4248H         LINE#         55
  C:4248H         LINE#         56
  C:424BH         LINE#         57
  C:424FH         LINE#         58
  C:4255H         LINE#         61
  C:4256H         LINE#         62
  C:425BH         LINE#         63
  C:4260H         LINE#         64
  C:4267H         LINE#         65
  C:4275H         LINE#         67
  C:4278H         LINE#         68
  C:427AH         LINE#         69
BL51 BANKED LINKER/LOCATER V6.00                                                      07/28/2017  09:58:56  PAGE 85


  -------         ENDPROC       _EEPROM_READ_N
  -------         PROC          _EEPROM_SECTORERASE
  D:0004H         SYMBOL        EE_address
  C:478DH         LINE#         80
  C:4791H         LINE#         81
  C:4791H         LINE#         82
  C:4793H         LINE#         85
  C:4796H         LINE#         86
  C:479AH         LINE#         87
  C:479DH         LINE#         88
  C:47A0H         LINE#         89
  C:47A6H         LINE#         90
  C:47A7H         LINE#         91
  C:47AAH         LINE#         92
  C:47ACH         LINE#         93
  -------         ENDPROC       _EEPROM_SECTORERASE
  -------         PROC          _EEPROM_WRITE_N
  D:0004H         SYMBOL        EE_address
  D:0001H         SYMBOL        DataAddress
  X:0511H         SYMBOL        number
  C:427BH         LINE#         104
  C:427FH         LINE#         105
  C:427FH         LINE#         106
  C:4281H         LINE#         108
  C:4284H         LINE#         109
  C:4287H         LINE#         111
  C:4287H         LINE#         112
  C:428AH         LINE#         113
  C:428EH         LINE#         114
  C:4293H         LINE#         115
  C:4299H         LINE#         116
  C:429AH         LINE#         117
  C:429FH         LINE#         118
  C:42A6H         LINE#         119
  C:42B4H         LINE#         121
  C:42B7H         LINE#         122
  C:42B9H         LINE#         123
  -------         ENDPROC       _EEPROM_WRITE_N
  -------         ENDMOD        STC15_EEPROM

  -------         MODULE        ?C?FPADD
  C:0807H         PUBLIC        ?C?FPADD
  C:0803H         PUBLIC        ?C?FPSUB
  -------         ENDMOD        ?C?FPADD

  -------         MODULE        ?C?FPMUL
  C:08F8H         PUBLIC        ?C?FPMUL
  -------         ENDMOD        ?C?FPMUL

  -------         MODULE        ?C?FPDIV
  C:0A01H         PUBLIC        ?C?FPDIV
  -------         ENDMOD        ?C?FPDIV

  -------         MODULE        ?C?FPCMP
  C:0AA0H         PUBLIC        ?C?FPCMP
  C:0A9EH         PUBLIC        ?C?FPCMP3
  -------         ENDMOD        ?C?FPCMP
BL51 BANKED LINKER/LOCATER V6.00                                                      07/28/2017  09:58:56  PAGE 86



  -------         MODULE        ?C?FCAST
  C:0B15H         PUBLIC        ?C?FCASTC
  C:0B10H         PUBLIC        ?C?FCASTI
  C:0B0BH         PUBLIC        ?C?FCASTL
  -------         ENDMOD        ?C?FCAST

  -------         MODULE        ?C?CASTF
  C:0B49H         PUBLIC        ?C?CASTF
  -------         ENDMOD        ?C?CASTF

  -------         MODULE        ?C?CLDPTR
  C:0BCAH         PUBLIC        ?C?CLDPTR
  -------         ENDMOD        ?C?CLDPTR

  -------         MODULE        ?C?CLDOPTR
  C:0BE3H         PUBLIC        ?C?CLDOPTR
  -------         ENDMOD        ?C?CLDOPTR

  -------         MODULE        ?C?CSTPTR
  C:0C10H         PUBLIC        ?C?CSTPTR
  -------         ENDMOD        ?C?CSTPTR

  -------         MODULE        ?C?CSTOPTR
  C:0C22H         PUBLIC        ?C?CSTOPTR
  -------         ENDMOD        ?C?CSTOPTR

  -------         MODULE        ?C?IMUL
  C:0C44H         PUBLIC        ?C?IMUL
  -------         ENDMOD        ?C?IMUL

  -------         MODULE        ?C?UIDIV
  C:0C56H         PUBLIC        ?C?UIDIV
  -------         ENDMOD        ?C?UIDIV

  -------         MODULE        ?C?IILDX
  C:0CABH         PUBLIC        ?C?IILDX
  -------         ENDMOD        ?C?IILDX

  -------         MODULE        ?C?ILDOPTR
  C:0CC1H         PUBLIC        ?C?ILDOPTR
  -------         ENDMOD        ?C?ILDOPTR

  -------         MODULE        ?C?LMUL
  C:0CF9H         PUBLIC        ?C?LMUL
  -------         ENDMOD        ?C?LMUL

  -------         MODULE        ?C?ULDIV
  C:0D84H         PUBLIC        ?C?ULDIV
  -------         ENDMOD        ?C?ULDIV

  -------         MODULE        ?C?SLDIV
  C:4175H         PUBLIC        ?C?SLDIV
  -------         ENDMOD        ?C?SLDIV

  -------         MODULE        ?C?LNEG
  C:0E16H         PUBLIC        ?C?LNEG
BL51 BANKED LINKER/LOCATER V6.00                                                      07/28/2017  09:58:56  PAGE 87


  -------         ENDMOD        ?C?LNEG

  -------         MODULE        ?C?ULCMP
  C:0E24H         PUBLIC        ?C?ULCMP
  -------         ENDMOD        ?C?ULCMP

  -------         MODULE        ?C?ULSHR
  C:0E35H         PUBLIC        ?C?ULSHR
  -------         ENDMOD        ?C?ULSHR

  -------         MODULE        ?C?LLDOPTR0
  C:0E48H         PUBLIC        ?C?LLDOPTR0
  -------         ENDMOD        ?C?LLDOPTR0

  -------         MODULE        ?C?LSTXDATA
  C:0E78H         PUBLIC        ?C?LSTXDATA
  -------         ENDMOD        ?C?LSTXDATA

  -------         MODULE        ?C?LSTKXDATA
  C:0E84H         PUBLIC        ?C?LSTKXDATA
  -------         ENDMOD        ?C?LSTKXDATA

  -------         MODULE        ?C?LLDIDATA0
  C:0EB5H         PUBLIC        ?C?LLDIDATA0
  -------         ENDMOD        ?C?LLDIDATA0

  -------         MODULE        ?C?LLDXDATA0
  C:0EC2H         PUBLIC        ?C?LLDXDATA0
  -------         ENDMOD        ?C?LLDXDATA0

  -------         MODULE        ?C?LLDPDATA0
  C:0ECEH         PUBLIC        ?C?LLDPDATA0
  -------         ENDMOD        ?C?LLDPDATA0

  -------         MODULE        ?C?LLDCODE0
  C:0EDBH         PUBLIC        ?C?LLDCODE0
  -------         ENDMOD        ?C?LLDCODE0

*** WARNING L16: UNCALLED SEGMENT, IGNORED FOR OVERLAY PROCESS
    SEGMENT: ?PR?_UART1_INIT?SETUP

*** WARNING L16: UNCALLED SEGMENT, IGNORED FOR OVERLAY PROCESS
    SEGMENT: ?PR?TEST?SETUP

*** WARNING L16: UNCALLED SEGMENT, IGNORED FOR OVERLAY PROCESS
    SEGMENT: ?PR?MODE1?MODE

*** WARNING L16: UNCALLED SEGMENT, IGNORED FOR OVERLAY PROCESS
    SEGMENT: ?PR?MODE2?MODE

*** WARNING L16: UNCALLED SEGMENT, IGNORED FOR OVERLAY PROCESS
    SEGMENT: ?PR?MODE3?MODE

*** WARNING L16: UNCALLED SEGMENT, IGNORED FOR OVERLAY PROCESS
    SEGMENT: ?PR?MODE4?MODE

*** WARNING L16: UNCALLED SEGMENT, IGNORED FOR OVERLAY PROCESS
BL51 BANKED LINKER/LOCATER V6.00                                                      07/28/2017  09:58:56  PAGE 88


    SEGMENT: ?PR?MODELAUNCHER?MODE

*** WARNING L16: UNCALLED SEGMENT, IGNORED FOR OVERLAY PROCESS
    SEGMENT: ?PR?_PID_CONFIG?PID

*** WARNING L16: UNCALLED SEGMENT, IGNORED FOR OVERLAY PROCESS
    SEGMENT: ?PR?_OPENPID?PID

*** WARNING L16: UNCALLED SEGMENT, IGNORED FOR OVERLAY PROCESS
    SEGMENT: ?PR?_CLOSEPID?PID

*** WARNING L16: UNCALLED SEGMENT, IGNORED FOR OVERLAY PROCESS
    SEGMENT: ?PR?_PID?PID

*** WARNING L16: UNCALLED SEGMENT, IGNORED FOR OVERLAY PROCESS
    SEGMENT: ?PR?_INCREMENTAL_PID?PID

*** WARNING L16: UNCALLED SEGMENT, IGNORED FOR OVERLAY PROCESS
    SEGMENT: ?PR?_SETPARAMETERINFERIORLIMIT?PID

*** WARNING L16: UNCALLED SEGMENT, IGNORED FOR OVERLAY PROCESS
    SEGMENT: ?PR?_SETPARAMETERUPPERLIMIT?PID

*** WARNING L16: UNCALLED SEGMENT, IGNORED FOR OVERLAY PROCESS
    SEGMENT: ?PR?_SETACTUALPARAMETER?PID

*** WARNING L16: UNCALLED SEGMENT, IGNORED FOR OVERLAY PROCESS
    SEGMENT: ?PR?_SETKI?PID

*** WARNING L16: UNCALLED SEGMENT, IGNORED FOR OVERLAY PROCESS
    SEGMENT: ?PR?_SETKP?PID

*** WARNING L16: UNCALLED SEGMENT, IGNORED FOR OVERLAY PROCESS
    SEGMENT: ?PR?_SETKD?PID

*** WARNING L16: UNCALLED SEGMENT, IGNORED FOR OVERLAY PROCESS
    SEGMENT: ?PR?_SETPARAMETER?PID

*** WARNING L16: UNCALLED SEGMENT, IGNORED FOR OVERLAY PROCESS
    SEGMENT: ?PR?_GETPARAMETER?PID

*** WARNING L16: UNCALLED SEGMENT, IGNORED FOR OVERLAY PROCESS
    SEGMENT: ?PR?_GETERR?PID

*** WARNING L16: UNCALLED SEGMENT, IGNORED FOR OVERLAY PROCESS
    SEGMENT: ?PR?_GETERRLAST?PID

*** WARNING L16: UNCALLED SEGMENT, IGNORED FOR OVERLAY PROCESS
    SEGMENT: ?PR?_GETKP?PID

*** WARNING L16: UNCALLED SEGMENT, IGNORED FOR OVERLAY PROCESS
    SEGMENT: ?PR?_GETKI?PID

*** WARNING L16: UNCALLED SEGMENT, IGNORED FOR OVERLAY PROCESS
    SEGMENT: ?PR?_GETKD?PID

*** WARNING L16: UNCALLED SEGMENT, IGNORED FOR OVERLAY PROCESS
BL51 BANKED LINKER/LOCATER V6.00                                                      07/28/2017  09:58:56  PAGE 89


    SEGMENT: ?PR?_GETOUTPUT?PID

*** WARNING L16: UNCALLED SEGMENT, IGNORED FOR OVERLAY PROCESS
    SEGMENT: ?PR?_GETINTEGRAL?PID

*** WARNING L16: UNCALLED SEGMENT, IGNORED FOR OVERLAY PROCESS
    SEGMENT: ?PR?_SENDSCOPEDATA?DATASCOPE_DP

*** WARNING L16: UNCALLED SEGMENT, IGNORED FOR OVERLAY PROCESS
    SEGMENT: ?PR?_WRITEDATA?STORAGE

*** WARNING L16: UNCALLED SEGMENT, IGNORED FOR OVERLAY PROCESS
    SEGMENT: ?PR?BUTTON_CONFIG?BUTTON

*** WARNING L16: UNCALLED SEGMENT, IGNORED FOR OVERLAY PROCESS
    SEGMENT: ?PR?_GETBUTTONSTATE?BUTTON

*** WARNING L16: UNCALLED SEGMENT, IGNORED FOR OVERLAY PROCESS
    SEGMENT: ?PR?BUTTONSCAN?BUTTON

*** WARNING L16: UNCALLED SEGMENT, IGNORED FOR OVERLAY PROCESS
    SEGMENT: ?PR?BOARD_LED_INIT?LED

*** WARNING L16: UNCALLED SEGMENT, IGNORED FOR OVERLAY PROCESS
    SEGMENT: ?PR?GETBOARD_LED_STATE?LED

*** WARNING L16: UNCALLED SEGMENT, IGNORED FOR OVERLAY PROCESS
    SEGMENT: ?PR?_BOARD_LED_PWM?LED

*** WARNING L16: UNCALLED SEGMENT, IGNORED FOR OVERLAY PROCESS
    SEGMENT: ?PR?_SETDC_MOTORSPEED?MOTOR

*** WARNING L16: UNCALLED SEGMENT, IGNORED FOR OVERLAY PROCESS
    SEGMENT: ?PR?_OPEN_DC_MOTOR?MOTOR

*** WARNING L16: UNCALLED SEGMENT, IGNORED FOR OVERLAY PROCESS
    SEGMENT: ?PR?_CLOSE_DC_MOTOR?MOTOR

*** WARNING L16: UNCALLED SEGMENT, IGNORED FOR OVERLAY PROCESS
    SEGMENT: ?PR?_GETDC_MOTORSTATE?MOTOR

*** WARNING L16: UNCALLED SEGMENT, IGNORED FOR OVERLAY PROCESS
    SEGMENT: ?PR?DC_MOTOR_CONFIG?MOTOR

*** WARNING L16: UNCALLED SEGMENT, IGNORED FOR OVERLAY PROCESS
    SEGMENT: ?PR?_INIT_STR_MOTOR?SERVO

*** WARNING L16: UNCALLED SEGMENT, IGNORED FOR OVERLAY PROCESS
    SEGMENT: ?PR?_SET_STR_ANGLE?SERVO

*** WARNING L16: UNCALLED SEGMENT, IGNORED FOR OVERLAY PROCESS
    SEGMENT: ?PR?_READ_STR_ANGLE?SERVO

*** WARNING L16: UNCALLED SEGMENT, IGNORED FOR OVERLAY PROCESS
    SEGMENT: ?PR?_OPEN_STR?SERVO

*** WARNING L16: UNCALLED SEGMENT, IGNORED FOR OVERLAY PROCESS
BL51 BANKED LINKER/LOCATER V6.00                                                      07/28/2017  09:58:56  PAGE 90


    SEGMENT: ?PR?_CLOSE_STR?SERVO

*** WARNING L16: UNCALLED SEGMENT, IGNORED FOR OVERLAY PROCESS
    SEGMENT: ?PR?_SETSTEPMOTORWITHDISTANCE?STEP_MOTOR

*** WARNING L16: UNCALLED SEGMENT, IGNORED FOR OVERLAY PROCESS
    SEGMENT: ?PR?_SETSTEPMOTORWITHROUND?STEP_MOTOR

*** WARNING L16: UNCALLED SEGMENT, IGNORED FOR OVERLAY PROCESS
    SEGMENT: ?PR?_SETSTEPMOTORSTATE?STEP_MOTOR

*** WARNING L16: UNCALLED SEGMENT, IGNORED FOR OVERLAY PROCESS
    SEGMENT: ?PR?_GETSTEPMOTORSTATE?STEP_MOTOR

*** WARNING L16: UNCALLED SEGMENT, IGNORED FOR OVERLAY PROCESS
    SEGMENT: ?PR?_SETSTEPMOTORDIVERSION?STEP_MOTOR

*** WARNING L16: UNCALLED SEGMENT, IGNORED FOR OVERLAY PROCESS
    SEGMENT: ?PR?_CLOSE_STEPMOTOR?STEP_MOTOR

*** WARNING L16: UNCALLED SEGMENT, IGNORED FOR OVERLAY PROCESS
    SEGMENT: ?PR?_OPEN_STEPMOTOR?STEP_MOTOR

*** WARNING L16: UNCALLED SEGMENT, IGNORED FOR OVERLAY PROCESS
    SEGMENT: ?PR?_FREESTEPMOTOR?STEP_MOTOR

*** WARNING L16: UNCALLED SEGMENT, IGNORED FOR OVERLAY PROCESS
    SEGMENT: ?PR?_LOCKSTEPMOTOR?STEP_MOTOR

*** WARNING L16: UNCALLED SEGMENT, IGNORED FOR OVERLAY PROCESS
    SEGMENT: ?PR?_STEPMOTOR_INIT?STEP_MOTOR

*** WARNING L16: UNCALLED SEGMENT, IGNORED FOR OVERLAY PROCESS
    SEGMENT: ?PR?_SETRELAY?RELAY

*** WARNING L16: UNCALLED SEGMENT, IGNORED FOR OVERLAY PROCESS
    SEGMENT: ?PR?_UNSETRELAY?RELAY

*** WARNING L16: UNCALLED SEGMENT, IGNORED FOR OVERLAY PROCESS
    SEGMENT: ?PR?RELAY_INIT?RELAY

*** WARNING L16: UNCALLED SEGMENT, IGNORED FOR OVERLAY PROCESS
    SEGMENT: ?PR?_ADC_CONFIG?ANGLE

*** WARNING L16: UNCALLED SEGMENT, IGNORED FOR OVERLAY PROCESS
    SEGMENT: ?PR?GETANGLE?ANGLE

*** WARNING L16: UNCALLED SEGMENT, IGNORED FOR OVERLAY PROCESS
    SEGMENT: ?PR?_LCD1602_WRITE_WORD?LCD1602

*** WARNING L16: UNCALLED SEGMENT, IGNORED FOR OVERLAY PROCESS
    SEGMENT: ?PR?LCD1602_INIT?LCD1602

*** WARNING L16: UNCALLED SEGMENT, IGNORED FOR OVERLAY PROCESS
    SEGMENT: ?PR?_HC595_INIT?74HC595

*** WARNING L16: UNCALLED SEGMENT, IGNORED FOR OVERLAY PROCESS
BL51 BANKED LINKER/LOCATER V6.00                                                      07/28/2017  09:58:56  PAGE 91


    SEGMENT: ?PR?_HC595SENDDATA?74HC595

*** WARNING L16: UNCALLED SEGMENT, IGNORED FOR OVERLAY PROCESS
    SEGMENT: ?PR?_LCD_CLR_ROW?LCD5510_V2

*** WARNING L16: UNCALLED SEGMENT, IGNORED FOR OVERLAY PROCESS
    SEGMENT: ?PR?_LCD_PRINTS?LCD5510_V2

*** WARNING L16: UNCALLED SEGMENT, IGNORED FOR OVERLAY PROCESS
    SEGMENT: ?PR?_LCD_PRINTSL?LCD5510_V2

*** WARNING L16: UNCALLED SEGMENT, IGNORED FOR OVERLAY PROCESS
    SEGMENT: ?PR?LCD5510_INIT?LCD5510_V2

*** WARNING L16: UNCALLED SEGMENT, IGNORED FOR OVERLAY PROCESS
    SEGMENT: ?PR?GETBUTTONNUM?TM1638

*** WARNING L16: UNCALLED SEGMENT, IGNORED FOR OVERLAY PROCESS
    SEGMENT: ?PR?INIT_TM1638?TM1638

*** WARNING L16: UNCALLED SEGMENT, IGNORED FOR OVERLAY PROCESS
    SEGMENT: ?PR?_TM1638LEDDISPLAY?TM1638

*** WARNING L16: UNCALLED SEGMENT, IGNORED FOR OVERLAY PROCESS
    SEGMENT: ?PR?CLOSETM1638DISPLAY?TM1638

*** WARNING L16: UNCALLED SEGMENT, IGNORED FOR OVERLAY PROCESS
    SEGMENT: ?PR?_GETPULSERSTATE?FIXEDPULSER

*** WARNING L16: UNCALLED SEGMENT, IGNORED FOR OVERLAY PROCESS
    SEGMENT: ?PR?_ADC_POWERCONTROL?ADC

*** WARNING L16: UNCALLED SEGMENT, IGNORED FOR OVERLAY PROCESS
    SEGMENT: ?PR?_SETPINSTATE?GPIO

*** WARNING L16: UNCALLED SEGMENT, IGNORED FOR OVERLAY PROCESS
    SEGMENT: ?PR?_PWMN_UPDATE?PCA

*** WARNING L16: UNCALLED SEGMENT, IGNORED FOR OVERLAY PROCESS
    SEGMENT: ?PR?_PCA_INIT?PCA

*** WARNING L16: UNCALLED SEGMENT, IGNORED FOR OVERLAY PROCESS
    SEGMENT: ?PR?_PWMOUTPUT?PCA

*** WARNING L16: UNCALLED SEGMENT, IGNORED FOR OVERLAY PROCESS
    SEGMENT: ?PR?_GET_PWM_PERIOD?STC15_PWM

*** WARNING L16: UNCALLED SEGMENT, IGNORED FOR OVERLAY PROCESS
    SEGMENT: ?PR?_GET_PWM_N_DUTY?STC15_PWM

*** WARNING L16: UNCALLED SEGMENT, IGNORED FOR OVERLAY PROCESS
    SEGMENT: ?PR?_GETPWM_DIV?STC15_PWM

*** WARNING L16: UNCALLED SEGMENT, IGNORED FOR OVERLAY PROCESS
    SEGMENT: ?PR?OPEN_PWM_ALL?STC15_PWM

*** WARNING L16: UNCALLED SEGMENT, IGNORED FOR OVERLAY PROCESS
BL51 BANKED LINKER/LOCATER V6.00                                                      07/28/2017  09:58:56  PAGE 92


    SEGMENT: ?PR?CLOSE_PWM_ALL?STC15_PWM

*** WARNING L16: UNCALLED SEGMENT, IGNORED FOR OVERLAY PROCESS
    SEGMENT: ?PR?_GET_PWM_N_STATE?STC15_PWM

*** WARNING L16: UNCALLED SEGMENT, IGNORED FOR OVERLAY PROCESS
    SEGMENT: ?PR?TIMERINIT?TIMER

*** WARNING L16: UNCALLED SEGMENT, IGNORED FOR OVERLAY PROCESS
    SEGMENT: ?PR?_SETTIMEOUT?TIMER

*** WARNING L16: UNCALLED SEGMENT, IGNORED FOR OVERLAY PROCESS
    SEGMENT: ?PR?_GETTIMEROUT?TIMER

*** WARNING L16: UNCALLED SEGMENT, IGNORED FOR OVERLAY PROCESS
    SEGMENT: ?PR?_SETTIMERHERTZ?TIMER

*** WARNING L16: UNCALLED SEGMENT, IGNORED FOR OVERLAY PROCESS
    SEGMENT: ?PR?_GETTIMERHERTZ?TIMER

*** WARNING L16: UNCALLED SEGMENT, IGNORED FOR OVERLAY PROCESS
    SEGMENT: ?PR?_STOPTIMER?TIMER

*** WARNING L16: UNCALLED SEGMENT, IGNORED FOR OVERLAY PROCESS
    SEGMENT: ?PR?_ISSTOPPED?TIMER

*** WARNING L16: UNCALLED SEGMENT, IGNORED FOR OVERLAY PROCESS
    SEGMENT: ?PR?_ONRESTARTTIMER?TIMER

*** WARNING L16: UNCALLED SEGMENT, IGNORED FOR OVERLAY PROCESS
    SEGMENT: ?PR?GETMICROS?TIMER

*** WARNING L16: UNCALLED SEGMENT, IGNORED FOR OVERLAY PROCESS
    SEGMENT: ?PR?GETMILLIS?TIMER

*** WARNING L16: UNCALLED SEGMENT, IGNORED FOR OVERLAY PROCESS
    SEGMENT: ?PR?GETSECONDS?TIMER

*** WARNING L16: UNCALLED SEGMENT, IGNORED FOR OVERLAY PROCESS
    SEGMENT: ?PR?GETMINUTES?TIMER

*** WARNING L16: UNCALLED SEGMENT, IGNORED FOR OVERLAY PROCESS
    SEGMENT: ?PR?GETHOURS?TIMER

*** WARNING L16: UNCALLED SEGMENT, IGNORED FOR OVERLAY PROCESS
    SEGMENT: ?PR?GETDAYS?TIMER

*** WARNING L16: UNCALLED SEGMENT, IGNORED FOR OVERLAY PROCESS
    SEGMENT: ?PR?_PRINTSTRING1?USART1

*** WARNING L16: UNCALLED SEGMENT, IGNORED FOR OVERLAY PROCESS
    SEGMENT: ?PR?_PRINTSTRING2?USART1

*** WARNING L16: UNCALLED SEGMENT, IGNORED FOR OVERLAY PROCESS
    SEGMENT: ?PR?_PRINTSTRING3?USART1

*** WARNING L16: UNCALLED SEGMENT, IGNORED FOR OVERLAY PROCESS
BL51 BANKED LINKER/LOCATER V6.00                                                      07/28/2017  09:58:56  PAGE 93


    SEGMENT: ?PR?_PRINTSTRING4?USART1

*** WARNING L16: UNCALLED SEGMENT, IGNORED FOR OVERLAY PROCESS
    SEGMENT: ?PR?_EEPROM_READ_N?STC15_EEPROM

*** WARNING L16: UNCALLED SEGMENT, IGNORED FOR OVERLAY PROCESS
    SEGMENT: ?PR?_EEPROM_SECTORERASE?STC15_EEPROM

*** WARNING L16: UNCALLED SEGMENT, IGNORED FOR OVERLAY PROCESS
    SEGMENT: ?PR?_EEPROM_WRITE_N?STC15_EEPROM

******************************************************************************
* RESTRICTED VERSION WITH FFFFH BYTE CODE SIZE LIMIT; USED: 3E42H BYTE (24%) *
******************************************************************************

Program Size: data=27.6 xdata=1434 code=17923
LINK/LOCATE RUN COMPLETE.  105 WARNING(S),  0 ERROR(S)
